MODULE Linux x86_64 B8E4E51806DEC89DB2E82F35ACD304EE0 sample_once
INFO CODE_ID 18E5E4B8DE069DC8B2E82F35ACD304EECCCDBA45
FUNC 7130 58 0 _ZN4core3num18ptr_try_from_impls69_$LT$impl$u20$core..convert..TryFrom$LT$usize$GT$$u20$for$u20$u32$GT$8try_from17hcfccf5ec00041e80E
FUNC 7190 34 0 _ZN66_$LT$$RF$$u27$a$u20$T$u20$as$u20$core..convert..AsRef$LT$U$GT$$GT$6as_ref17h14b995e94232b9daE
FUNC 71d0 92 0 _ZN4core3ops8function5impls91_$LT$impl$u20$core..ops..function..FnOnce$LT$A$GT$$u20$for$u20$$RF$$u27$a$u20$mut$u20$F$GT$9call_once17h1e2ef374958a943cE
FUNC 7270 36 0 _ZN4core3ptr33_$LT$impl$u20$$BP$const$u20$T$GT$6offset17h95bcc338253cf036E
FUNC 72b0 36 0 _ZN4core3ptr33_$LT$impl$u20$$BP$const$u20$T$GT$7is_null17h2e14fdd3938bfd8dE
FUNC 72f0 2a 0 _ZN4core5slice29_$LT$impl$u20$$u5b$T$u5d$$GT$3len17h394a286ac0aa5d1cE
FUNC 7320 142 0 _ZN4core5slice29_$LT$impl$u20$$u5b$T$u5d$$GT$4iter17hbca304b6645f0d3cE
FUNC 7470 19 0 _ZN4core5slice29_$LT$impl$u20$$u5b$T$u5d$$GT$6as_ptr17h81e15d99fc610f7bE
FUNC 7490 32 0 _ZN53_$LT$$RF$$u27$a$u20$T$u20$as$u20$core..fmt..Debug$GT$3fmt17hc11d9100a2c640f3E
FUNC 74d0 56 0 _ZN8vignette9lib_linux15thread_iterator28_$u7b$$u7b$closure$u7d$$u7d$28_$u7b$$u7b$closure$u7d$$u7d$17hd58ece684c3a0b7dE
FUNC 7530 135 0 _ZN8vignette9lib_linux15thread_iterator28_$u7b$$u7b$closure$u7d$$u7d$28_$u7b$$u7b$closure$u7d$$u7d$28_$u7b$$u7b$closure$u7d$$u7d$17hf0199a1e95973f26E
FUNC 7670 33e 0 _ZN8vignette9lib_linux7Sampler25suspend_and_resume_thread17h2f54bc316b31005fE
FUNC 79b0 1f5 0 _ZN47_$LT$core..result..Result$LT$T$C$$u20$E$GT$$GT$3map17h477cf990be4c39f0E
FUNC 7bb0 29b 0 _ZN47_$LT$core..result..Result$LT$T$C$$u20$E$GT$$GT$3map17hbaaf5ed9be07f440E
FUNC 7e50 1f5 0 _ZN47_$LT$core..result..Result$LT$T$C$$u20$E$GT$$GT$3map17hd80d9d7f8368c819E
FUNC 8050 4c 0 _ZN47_$LT$core..result..Result$LT$T$C$$u20$E$GT$$GT$5is_ok17hddff3417739948a0E
FUNC 80a0 13a 0 _ZN47_$LT$core..result..Result$LT$T$C$$u20$E$GT$$GT$6expect17h7cbc211ee6d2cb20E
FUNC 81e0 c3 0 _ZN47_$LT$core..result..Result$LT$T$C$$u20$E$GT$$GT$6expect17h887463b66859a8e1E
FUNC 82b0 d4 0 _ZN47_$LT$core..result..Result$LT$T$C$$u20$E$GT$$GT$6expect17h8ec2da087a9bcbdfE
FUNC 8390 10c 0 _ZN47_$LT$core..result..Result$LT$T$C$$u20$E$GT$$GT$6expect17h9d2633dafefeaed4E
FUNC 84a0 102 0 _ZN47_$LT$core..result..Result$LT$T$C$$u20$E$GT$$GT$6expect17hc2a4bfa9b0465263E
FUNC 85b0 113 0 _ZN47_$LT$core..result..Result$LT$T$C$$u20$E$GT$$GT$6expect17hd776ce84917d529eE
FUNC 86d0 27 0 _ZN47_$LT$core..result..Result$LT$T$C$$u20$E$GT$$GT$6is_err17h173eba342fa6b63dE
FUNC 8700 e2 0 _ZN47_$LT$core..result..Result$LT$T$C$$u20$E$GT$$GT$6unwrap17h40bde40fc172cca8E
FUNC 87f0 12b 0 _ZN47_$LT$core..result..Result$LT$T$C$$u20$E$GT$$GT$6unwrap17h773939d5504418bbE
FUNC 8920 d6 0 _ZN47_$LT$core..result..Result$LT$T$C$$u20$E$GT$$GT$6unwrap17hb04fec709ed2e7e6E
FUNC 8a00 c8 0 _ZN47_$LT$core..result..Result$LT$T$C$$u20$E$GT$$GT$6unwrap17hcf14941ee4fab4d6E
FUNC 8ad0 178 0 _ZN47_$LT$core..result..Result$LT$T$C$$u20$E$GT$$GT$7map_err17h16ddb31ea400da7aE
FUNC 8c50 178 0 _ZN47_$LT$core..result..Result$LT$T$C$$u20$E$GT$$GT$7map_err17h1ff7280883ac4e92E
FUNC 8dd0 18e 0 _ZN47_$LT$core..result..Result$LT$T$C$$u20$E$GT$$GT$8and_then17h00a0fb930ac6b0e5E
FUNC 8f60 165 0 _ZN4core6result13unwrap_failed17h011d92b0c748a6a4E
FUNC 90d0 15a 0 _ZN4core6result13unwrap_failed17h26ab1d375a557535E
FUNC 9230 15c 0 _ZN4core6result13unwrap_failed17h6bf14e005e580ea5E
FUNC 9390 16a 0 _ZN4core6result13unwrap_failed17h6d5d9d9d9f220e30E
FUNC 9500 160 0 _ZN4core6result13unwrap_failed17h92008176482c301dE
FUNC 9660 16d 0 _ZN4core6result13unwrap_failed17ha266ff4cd4632f14E
FUNC 97d0 34 0 _ZN78_$LT$core..result..Result$LT$T$C$$u20$E$GT$$u20$as$u20$core..ops..try..Try$GT$10from_error17hab4f40555d80a1dfE
FUNC 9810 1a 0 _ZN78_$LT$core..result..Result$LT$T$C$$u20$E$GT$$u20$as$u20$core..ops..try..Try$GT$11into_result17h5484727edc3fcdfaE
FUNC 9830 15 0 _ZN3std6thread9panicking17h5deec2eab9f7cd76E
FUNC 9850 36 0 _ZN58_$LT$std..thread..Thread$u20$as$u20$core..clone..Clone$GT$5clone17h420ed98bd6e9815dE
FUNC 9890 4d 0 _ZN59_$LT$alloc..alloc..Global$u20$as$u20$core..alloc..Alloc$GT$5alloc17hd210b8dd398c1b82E
FUNC 98e0 3e 0 _ZN59_$LT$alloc..alloc..Global$u20$as$u20$core..alloc..Alloc$GT$7dealloc17h6385ed25db20388cE
FUNC 9920 72 0 _ZN59_$LT$alloc..alloc..Global$u20$as$u20$core..alloc..Alloc$GT$7realloc17h71534ffe1ee9a295E
FUNC 99a0 90 0 _ZN5alloc5alloc15exchange_malloc17hc8d1ce3ab1789773E
FUNC 9a30 48 0 _ZN5alloc5alloc5alloc17h4b9b6c3b36914968E
FUNC 9a80 57 0 _ZN5alloc5alloc7dealloc17h20538a2beb324815E
FUNC 9ae0 6b 0 _ZN5alloc5alloc7realloc17ha83383cd8f8fd9deE
FUNC 9b50 a1 0 _ZN3std6thread5spawn17h7012e0c8cfb5f3cfE
FUNC 9c00 a1 0 _ZN3std6thread5spawn17hc0b18b3ce030fd29E
FUNC 9cb0 60a 0 _ZN3std6thread7Builder5spawn17h5636919728691c20E
FUNC a2c0 60a 0 _ZN3std6thread7Builder5spawn17hb5e0c0f3977b3b7dE
FUNC a8d0 2d9 0 _ZN3std6thread7Builder5spawn28_$u7b$$u7b$closure$u7d$$u7d$17h0b9ed8999fba122cE
FUNC abb0 2d9 0 _ZN3std6thread7Builder5spawn28_$u7b$$u7b$closure$u7d$$u7d$17h9105b3b522bbb030E
FUNC ae90 10 0 _ZN3std6thread7Builder5spawn28_$u7b$$u7b$closure$u7d$$u7d$28_$u7b$$u7b$closure$u7d$$u7d$17h0b19361d01a9fbe0E
FUNC aea0 10 0 _ZN3std6thread7Builder5spawn28_$u7b$$u7b$closure$u7d$$u7d$28_$u7b$$u7b$closure$u7d$$u7d$17hdf867c4eafce7866E
FUNC aeb0 90 0 _ZN40_$LT$std..thread..JoinInner$LT$T$GT$$GT$4join17h907f6f9ea648c0bbE
FUNC af40 58 0 _ZN41_$LT$std..thread..JoinHandle$LT$T$GT$$GT$4join17h894a4ef96e8db712E
FUNC afa0 36 0 _ZN4core3ptr31_$LT$impl$u20$$BP$mut$u20$T$GT$6offset17h86f4444b5cc598beE
FUNC afe0 36 0 _ZN4core3ptr31_$LT$impl$u20$$BP$mut$u20$T$GT$7is_null17h79db55272377581bE
FUNC b020 36 0 _ZN4core3ptr33_$LT$impl$u20$$BP$const$u20$T$GT$6offset17h4c5e021dbd6484e8E
FUNC b060 19 0 _ZN4core5slice29_$LT$impl$u20$$u5b$T$u5d$$GT$10as_mut_ptr17h826c0dd4444f1beaE
FUNC b080 34 0 _ZN4core5slice77_$LT$impl$u20$core..ops..index..IndexMut$LT$I$GT$$u20$for$u20$$u5b$T$u5d$$GT$9index_mut17h7837c1645ea418e9E
FUNC b0c0 5b 0 _ZN50_$LT$F$u20$as$u20$alloc..boxed..FnBox$LT$A$GT$$GT$8call_box17h1298c3b88af58c16E
FUNC b120 5b 0 _ZN50_$LT$F$u20$as$u20$alloc..boxed..FnBox$LT$A$GT$$GT$8call_box17h9b52f3b0ee817428E
FUNC b180 f 0 _ZN33_$LT$alloc..vec..Vec$LT$T$GT$$GT$3len17h1d8e2b0186284e62E
FUNC b190 f 0 _ZN33_$LT$alloc..vec..Vec$LT$T$GT$$GT$3len17hf35b775c90ac88eeE
FUNC b1a0 48 0 _ZN33_$LT$alloc..vec..Vec$LT$T$GT$$GT$3new17h5c380f8c9a579760E
FUNC b1f0 48 0 _ZN33_$LT$alloc..vec..Vec$LT$T$GT$$GT$3new17h89fde80510313bf8E
FUNC b240 171 0 _ZN33_$LT$alloc..vec..Vec$LT$T$GT$$GT$4push17hbca24ad5b5b21498E
FUNC b3c0 36 0 _ZN33_$LT$alloc..vec..Vec$LT$T$GT$$GT$7reserve17h25c4f1e9e1782ebeE
FUNC b400 36 0 _ZN33_$LT$alloc..vec..Vec$LT$T$GT$$GT$7reserve17h27bf9d7f71264893E
FUNC b440 4b 0 _ZN33_$LT$alloc..vec..Vec$LT$T$GT$$GT$8capacity17h667013fa1219a7a9E
FUNC b490 b 0 _ZN4core4iter8iterator8Iterator6by_ref17h0d22f3b1e8f5d184E
FUNC b4a0 b 0 _ZN54_$LT$I$u20$as$u20$core..iter..traits..IntoIterator$GT$9into_iter17h39a5227e116f2929E
FUNC b4b0 31 0 _ZN66_$LT$alloc..vec..Vec$LT$T$GT$$u20$as$u20$core..ops..drop..Drop$GT$4drop17h4903bf81b44cddc4E
FUNC b4f0 50 0 _ZN68_$LT$alloc..vec..Vec$LT$T$GT$$u20$as$u20$core..ops..deref..Deref$GT$5deref17ha62094868b5edcbeE
FUNC b540 254 0 _ZN71_$LT$alloc..vec..IntoIter$LT$T$GT$$u20$as$u20$core..ops..drop..Drop$GT$4drop17h53e4a3e08cb1bf94E
FUNC b7a0 50 0 _ZN71_$LT$alloc..vec..Vec$LT$T$GT$$u20$as$u20$core..ops..deref..DerefMut$GT$9deref_mut17h18a96f8c4cb034e0E
FUNC b7f0 28 0 _ZN75_$LT$$RF$$u27$a$u20$mut$u20$I$u20$as$u20$core..iter..iterator..Iterator$GT$4next17h5c86987b40c8d99cE
FUNC b820 24e 0 _ZN77_$LT$alloc..vec..Vec$LT$T$GT$$u20$as$u20$core..iter..traits..IntoIterator$GT$9into_iter17haf0a7b0bd5e40172E
FUNC ba70 89 0 _ZN77_$LT$alloc..vec..Vec$LT$T$GT$$u20$as$u20$core..ops..index..Index$LT$I$GT$$GT$5index17h51f7aab1867fe9c1E
FUNC bb00 13e 0 _ZN80_$LT$alloc..vec..IntoIter$LT$T$GT$$u20$as$u20$core..iter..iterator..Iterator$GT$4next17h514fa8ce745b8928E
FUNC bc40 81 0 _ZN80_$LT$alloc..vec..Vec$LT$T$GT$$u20$as$u20$core..ops..index..IndexMut$LT$I$GT$$GT$9index_mut17h07615fe96572ae1bE
FUNC bcd0 89 0 _ZN80_$LT$alloc..vec..Vec$LT$T$GT$$u20$as$u20$core..ops..index..IndexMut$LT$I$GT$$GT$9index_mut17he44be8d30c76d96eE
FUNC bd60 85 0 _ZN3std2fs11OpenOptions4open17ha3ce895b43099d16E
FUNC bdf0 96 0 _ZN3std2fs4File4open17h51c0f8ffa78842d0E
FUNC be90 39 0 _ZN3std2io4Read14read_to_string17hc2836148bb336d3bE
FUNC bed0 28 0 _ZN3std2io5impls68_$LT$impl$u20$std..io..Read$u20$for$u20$$RF$$u27$a$u20$mut$u20$R$GT$11initializer17h07b9dcc4fa529409E
FUNC bf00 31 0 _ZN100_$LT$std..sync..rwlock..RwLockWriteGuard$LT$$u27$a$C$$u20$T$GT$$u20$as$u20$core..ops..drop..Drop$GT$4drop17he8ffea7c4462ade9E
FUNC bf40 29 0 _ZN106_$LT$std..sync..rwlock..RwLockReadGuard$LT$$u27$rwlock$C$$u20$T$GT$$u20$as$u20$core..ops..deref..Deref$GT$5deref17h1510c02d0fcc4597E
FUNC bf70 29 0 _ZN110_$LT$std..sync..rwlock..RwLockWriteGuard$LT$$u27$rwlock$C$$u20$T$GT$$u20$as$u20$core..ops..deref..DerefMut$GT$9deref_mut17h8123198f0cc0d706E
FUNC bfa0 e1 0 _ZN43_$LT$std..sync..rwlock..RwLock$LT$T$GT$$GT$3new17hcb46105b7ac99fc1E
FUNC c090 37 0 _ZN43_$LT$std..sync..rwlock..RwLock$LT$T$GT$$GT$4read17ha5c90063a8c647c8E
FUNC c0d0 3d 0 _ZN43_$LT$std..sync..rwlock..RwLock$LT$T$GT$$GT$5write17hf1739ec8361ea1acE
FUNC c110 61 0 _ZN71_$LT$std..sync..rwlock..RwLockReadGuard$LT$$u27$rwlock$C$$u20$T$GT$$GT$3new17h5c7ff3987336b8a8E
FUNC c180 27 0 _ZN71_$LT$std..sync..rwlock..RwLockReadGuard$LT$$u27$rwlock$C$$u20$T$GT$$GT$3new28_$u7b$$u7b$closure$u7d$$u7d$17h9046db6942f3dd2aE
FUNC c1b0 6e 0 _ZN72_$LT$std..sync..rwlock..RwLockWriteGuard$LT$$u27$rwlock$C$$u20$T$GT$$GT$3new17hbffacddbad1987eaE
FUNC c220 33 0 _ZN72_$LT$std..sync..rwlock..RwLockWriteGuard$LT$$u27$rwlock$C$$u20$T$GT$$GT$3new28_$u7b$$u7b$closure$u7d$$u7d$17h66d76b6ded3a12e8E
FUNC c260 13 0 _ZN76_$LT$std..sync..rwlock..RwLock$LT$T$GT$$u20$as$u20$core..ops..drop..Drop$GT$4drop17h3c3cca2b2ebecee2E
FUNC c280 16 0 _ZN99_$LT$std..sync..rwlock..RwLockReadGuard$LT$$u27$a$C$$u20$T$GT$$u20$as$u20$core..ops..drop..Drop$GT$4drop17h420a065e4aea6490E
FUNC c2a0 6b 0 _ZN3std2io5error5Error3new17hf8d084b417d82779E
FUNC c310 12 0 _ZN50_$LT$T$u20$as$u20$core..convert..From$LT$T$GT$$GT$4from17h57979b466b00d824E
FUNC c330 16 0 _ZN4core3ops8function6FnOnce9call_once17h0f4e8fa3294b1796E
FUNC c350 3f 0 _ZN4core3ops8function6FnOnce9call_once17hf40e5f2347b9aca2E
FUNC c390 10 0 _ZN4core3ptr13drop_in_place17h02b683c813564a2cE
FUNC c3a0 32 0 _ZN4core3ptr13drop_in_place17h03315188bfb0c194E
FUNC c3e0 27 0 _ZN4core3ptr13drop_in_place17h0cf065494e3292aeE
FUNC c410 4d 0 _ZN4core3ptr13drop_in_place17h13d63d93fd6bc2f1E
FUNC c460 10 0 _ZN4core3ptr13drop_in_place17h167745a1bc015b81E
FUNC c470 10 0 _ZN4core3ptr13drop_in_place17h19bc113e96580605E
FUNC c480 7 0 _ZN4core3ptr13drop_in_place17h1af709382f50a923E
FUNC c490 10 0 _ZN4core3ptr13drop_in_place17h1cebb0ac79ebfa92E
FUNC c4a0 4d 0 _ZN4core3ptr13drop_in_place17h20d08df718ecc540E
FUNC c4f0 23 0 _ZN4core3ptr13drop_in_place17h23b3da54eb19961aE
FUNC c520 10 0 _ZN4core3ptr13drop_in_place17h26284bd2574eafbdE
FUNC c530 31 0 _ZN4core3ptr13drop_in_place17h284a113d2635c7dfE
FUNC c570 32 0 _ZN4core3ptr13drop_in_place17h288091a1cb9e3f5eE
FUNC c5b0 10 0 _ZN4core3ptr13drop_in_place17h2a704af6c1b417f1E
FUNC c5c0 10 0 _ZN4core3ptr13drop_in_place17h2f51378d98269547E
FUNC c5d0 86 0 _ZN4core3ptr13drop_in_place17h2f8c345575c2fda5E
FUNC c660 32 0 _ZN4core3ptr13drop_in_place17h3015caa22663d81fE
FUNC c6a0 17 0 _ZN4core3ptr13drop_in_place17h33be3e8f0f9790a9E
FUNC c6c0 10 0 _ZN4core3ptr13drop_in_place17h3678322136053fe7E
FUNC c6d0 10 0 _ZN4core3ptr13drop_in_place17h37f9412accb7ab16E
FUNC c6e0 10 0 _ZN4core3ptr13drop_in_place17h3c80b2e58b3675c1E
FUNC c6f0 10 0 _ZN4core3ptr13drop_in_place17h3cca5005cfa1b8d0E
FUNC c700 10 0 _ZN4core3ptr13drop_in_place17h415b8078d4366900E
FUNC c710 6d 0 _ZN4core3ptr13drop_in_place17h41cee7ffea688b51E
FUNC c780 10 0 _ZN4core3ptr13drop_in_place17h4a99f15aacddbe92E
FUNC c790 23 0 _ZN4core3ptr13drop_in_place17h4b892c235a3d43d7E
FUNC c7c0 10 0 _ZN4core3ptr13drop_in_place17h4d6d9586bda29835E
FUNC c7d0 10 0 _ZN4core3ptr13drop_in_place17h50c170c293c40a23E
FUNC c7e0 1d 0 _ZN4core3ptr13drop_in_place17h557151ec7fa2ecd2E
FUNC c800 1d 0 _ZN4core3ptr13drop_in_place17h57a00c7d4892bfb7E
FUNC c820 4d 0 _ZN4core3ptr13drop_in_place17h5932635a824594a4E
FUNC c870 1d 0 _ZN4core3ptr13drop_in_place17h62b61cc8966cc86eE
FUNC c890 10 0 _ZN4core3ptr13drop_in_place17h64476e696eb96af8E
FUNC c8a0 86 0 _ZN4core3ptr13drop_in_place17h6996b200d92aa6b5E
FUNC c930 2f 0 _ZN4core3ptr13drop_in_place17h6bc35338df6b53f8E
FUNC c960 10 0 _ZN4core3ptr13drop_in_place17h6c49937819718a64E
FUNC c970 10 0 _ZN4core3ptr13drop_in_place17h70596c98c441b704E
FUNC c980 4d 0 _ZN4core3ptr13drop_in_place17h76cf2b5384605a47E
FUNC c9d0 10 0 _ZN4core3ptr13drop_in_place17h800bccee6d4f1cadE
FUNC c9e0 4d 0 _ZN4core3ptr13drop_in_place17h8cce405a8cf82c73E
FUNC ca30 4d 0 _ZN4core3ptr13drop_in_place17h923b2569043910e2E
FUNC ca80 10 0 _ZN4core3ptr13drop_in_place17h92d2b30761f157e6E
FUNC ca90 86 0 _ZN4core3ptr13drop_in_place17h93052ca43acc0d56E
FUNC cb20 32 0 _ZN4core3ptr13drop_in_place17h938114a153252fb4E
FUNC cb60 10 0 _ZN4core3ptr13drop_in_place17h98eb20e688610e6cE
FUNC cb70 143 0 _ZN4core3ptr13drop_in_place17h9c189574826964afE
FUNC ccc0 10 0 _ZN4core3ptr13drop_in_place17h9cbeea60c6b662a0E
FUNC ccd0 10 0 _ZN4core3ptr13drop_in_place17h9d90d93f94d78833E
FUNC cce0 10 0 _ZN4core3ptr13drop_in_place17h9e7b4b9ea31d5d0bE
FUNC ccf0 86 0 _ZN4core3ptr13drop_in_place17ha2db6808b28d037eE
FUNC cd80 10 0 _ZN4core3ptr13drop_in_place17ha35160ff1877a890E
FUNC cd90 6d 0 _ZN4core3ptr13drop_in_place17ha7a839feb5e8e552E
FUNC ce00 23 0 _ZN4core3ptr13drop_in_place17hb1e9dba62d81c8baE
FUNC ce30 4d 0 _ZN4core3ptr13drop_in_place17hba11ac4097fd21b7E
FUNC ce80 37 0 _ZN4core3ptr13drop_in_place17hbbc0291673933ce8E
FUNC cec0 10 0 _ZN4core3ptr13drop_in_place17hbe1f47360e1616ddE
FUNC ced0 10 0 _ZN4core3ptr13drop_in_place17hbf11ca71c05fab55E
FUNC cee0 32 0 _ZN4core3ptr13drop_in_place17hc0080867942287a8E
FUNC cf20 10 0 _ZN4core3ptr13drop_in_place17hc232b2f135799000E
FUNC cf30 10 0 _ZN4core3ptr13drop_in_place17hc5ffb53cb92d4278E
FUNC cf40 10 0 _ZN4core3ptr13drop_in_place17hc8a983a3041370e4E
FUNC cf50 10 0 _ZN4core3ptr13drop_in_place17hcb3f0fbb3381d41dE
FUNC cf60 50 0 _ZN4core3ptr13drop_in_place17hd637807138166f70E
FUNC cfb0 32 0 _ZN4core3ptr13drop_in_place17hd8e2cc9a736d286dE
FUNC cff0 10 0 _ZN4core3ptr13drop_in_place17he83ec336dc17fc15E
FUNC d000 21 0 _ZN4core3ptr13drop_in_place17hec280f20e6eb26c1E
FUNC d030 10 0 _ZN4core3ptr13drop_in_place17hf31c902df0100a17E
FUNC d040 10 0 _ZN4core3ptr13drop_in_place17hf43fcda97fb4ec2bE
FUNC d050 10 0 _ZN4core3ptr13drop_in_place17hfd11499491727a00E
FUNC d060 6e 0 _ZN5alloc7raw_vec11alloc_guard17h6121a3888d76e961E
FUNC d0d0 29 0 _ZN3std3sys4unix6rwlock6RWLock10raw_unlock17h2121887d22d04149E
FUNC d100 3b 0 _ZN3std3sys4unix6rwlock6RWLock11read_unlock17h54c4901a2b217913E
FUNC d140 33 0 _ZN3std3sys4unix6rwlock6RWLock12write_unlock17hd19ea68806bcb0b3E
FUNC d180 a1 0 _ZN3std3sys4unix6rwlock6RWLock3new17h4e43e026fa75d2bbE
FUNC d230 e5 0 _ZN3std3sys4unix6rwlock6RWLock4read17hb1987ba4d847750eE
FUNC d320 102 0 _ZN3std3sys4unix6rwlock6RWLock5write17h1b40d433f8d04359E
FUNC d430 29 0 _ZN3std3sys4unix6rwlock6RWLock7destroy17hab0c5a913bd54f2dE
FUNC d460 11 0 _ZN107_$LT$alloc..collections..CollectionAllocErr$u20$as$u20$core..convert..From$LT$core..alloc..AllocErr$GT$$GT$4from17h4b54878510233072E
FUNC d480 75 0 _ZN103_$LT$core..ops..range..RangeFrom$LT$usize$GT$$u20$as$u20$core..slice..SliceIndex$LT$$u5b$T$u5d$$GT$$GT$9index_mut17h919abca7840cd16eE
FUNC d500 108 0 _ZN4core4iter5range93_$LT$impl$u20$core..iter..iterator..Iterator$u20$for$u20$core..ops..range..Range$LT$A$GT$$GT$4next17h5fe9e17bbe672787E
FUNC d610 11 0 _ZN54_$LT$I$u20$as$u20$core..iter..traits..IntoIterator$GT$9into_iter17hfd816e367f5c9f4aE
FUNC d630 1d 0 _ZN90_$LT$core..ops..range..RangeFull$u20$as$u20$core..slice..SliceIndex$LT$$u5b$T$u5d$$GT$$GT$9index_mut17ha3be7569825f451bE
FUNC d650 70 0 _ZN99_$LT$core..ops..range..Range$LT$usize$GT$$u20$as$u20$core..slice..SliceIndex$LT$$u5b$T$u5d$$GT$$GT$17get_unchecked_mut17hd748d3c34751fe01E
FUNC d6c0 ca 0 _ZN99_$LT$core..ops..range..Range$LT$usize$GT$$u20$as$u20$core..slice..SliceIndex$LT$$u5b$T$u5d$$GT$$GT$9index_mut17h31ef8a5c1d77d806E
FUNC d790 25 0 _ZN4core3num12NonZeroUsize13new_unchecked17h7c3e90e7d21a609bE
FUNC d7c0 b 0 _ZN4core3num12NonZeroUsize3get17h84dcb50aa9f9b352E
FUNC d7d0 27 0 _ZN4core3num21_$LT$impl$u20$u32$GT$12wrapping_add17h50e8650f8aa31ae3E
FUNC d800 6 0 _ZN4core3num21_$LT$impl$u20$u32$GT$9max_value17h88c141404064ed62E
FUNC d810 6f 0 _ZN4core3num23_$LT$impl$u20$usize$GT$11checked_add17h6ab3decd4397ae62E
FUNC d880 6f 0 _ZN4core3num23_$LT$impl$u20$usize$GT$11checked_mul17hb160fdc1ad444752E
FUNC d8f0 2f 0 _ZN4core3num23_$LT$impl$u20$usize$GT$12wrapping_add17h22f8a857b1989496E
FUNC d920 2f 0 _ZN4core3num23_$LT$impl$u20$usize$GT$12wrapping_sub17h3262af94de6452fbE
FUNC d950 70 0 _ZN4core3num23_$LT$impl$u20$usize$GT$15overflowing_add17he8f1f82c1bd28194E
FUNC d9c0 71 0 _ZN4core3num23_$LT$impl$u20$usize$GT$15overflowing_mul17h3ca10f0b51652973E
FUNC da40 9f 0 _ZN66_$LT$std..io..error..ErrorKind$u20$as$u20$core..cmp..PartialEq$GT$2eq17ha577708f27f63296E
FUNC dae0 d3 0 _ZN3std9panicking3try17hae834ec33ac31c89E
FUNC dbc0 d3 0 _ZN3std9panicking3try17hb7779540d3ab0d43E
FUNC dca0 43 0 _ZN3std9panicking3try7do_call17h68b665a99076e8a0E
FUNC dcf0 43 0 _ZN3std9panicking3try7do_call17hc1ca6e25aeaa5a61E
FUNC dd40 40 0 _ZN40_$LT$alloc..raw_vec..RawVec$LT$T$GT$$GT$14from_raw_parts17hb304d282f4ef6aaaE
FUNC dd80 20 0 _ZN40_$LT$alloc..raw_vec..RawVec$LT$T$GT$$GT$3new17h9f25a6adc1fbd96fE
FUNC dda0 20 0 _ZN40_$LT$alloc..raw_vec..RawVec$LT$T$GT$$GT$3new17heef0697744e999feE
FUNC ddc0 84 0 _ZN49_$LT$alloc..raw_vec..RawVec$LT$T$C$$u20$A$GT$$GT$14current_layout17hdf8f83e9f2609d1cE
FUNC de50 af 0 _ZN49_$LT$alloc..raw_vec..RawVec$LT$T$C$$u20$A$GT$$GT$14dealloc_buffer17h39f2e1aadfb8d944E
FUNC df00 741 0 _ZN49_$LT$alloc..raw_vec..RawVec$LT$T$C$$u20$A$GT$$GT$16reserve_internal17h28f0125eaa7f3e21E
FUNC e650 741 0 _ZN49_$LT$alloc..raw_vec..RawVec$LT$T$C$$u20$A$GT$$GT$16reserve_internal17h86c3482846e90b60E
FUNC eda0 17 0 _ZN49_$LT$alloc..raw_vec..RawVec$LT$T$C$$u20$A$GT$$GT$16reserve_internal28_$u7b$$u7b$closure$u7d$$u7d$17hbdff34f3fcb858dfE
FUNC edc0 17 0 _ZN49_$LT$alloc..raw_vec..RawVec$LT$T$C$$u20$A$GT$$GT$16reserve_internal28_$u7b$$u7b$closure$u7d$$u7d$17hf1da83e7232f2030E
FUNC ede0 141 0 _ZN49_$LT$alloc..raw_vec..RawVec$LT$T$C$$u20$A$GT$$GT$18amortized_new_size17h596786384972ecfdE
FUNC ef30 141 0 _ZN49_$LT$alloc..raw_vec..RawVec$LT$T$C$$u20$A$GT$$GT$18amortized_new_size17h5bf479b8396dd954E
FUNC f080 25 0 _ZN49_$LT$alloc..raw_vec..RawVec$LT$T$C$$u20$A$GT$$GT$3ptr17h113a2d731593f367E
FUNC f0b0 b4 0 _ZN49_$LT$alloc..raw_vec..RawVec$LT$T$C$$u20$A$GT$$GT$6new_in17h5957a4af739ce162E
FUNC f170 b4 0 _ZN49_$LT$alloc..raw_vec..RawVec$LT$T$C$$u20$A$GT$$GT$6new_in17hd005d9353ae2b530E
FUNC f230 c4 0 _ZN49_$LT$alloc..raw_vec..RawVec$LT$T$C$$u20$A$GT$$GT$7reserve17h085f6ae5f19579e6E
FUNC f300 c4 0 _ZN49_$LT$alloc..raw_vec..RawVec$LT$T$C$$u20$A$GT$$GT$7reserve17h417e86ebede2d3fbE
FUNC f3d0 10 0 _ZN82_$LT$alloc..raw_vec..RawVec$LT$T$C$$u20$A$GT$$u20$as$u20$core..ops..drop..Drop$GT$4drop17h1a8b4052be5db900E
FUNC f3e0 10 0 _ZN3std10sys_common6rwlock6RWLock11read_unlock17hf74134b34fa7175eE
FUNC f3f0 10 0 _ZN3std10sys_common6rwlock6RWLock12write_unlock17h7fa978529d6fc1cfE
FUNC f400 3f 0 _ZN3std10sys_common6rwlock6RWLock3new17h9225e12e83ccb827E
FUNC f440 10 0 _ZN3std10sys_common6rwlock6RWLock4read17h1f6936004b5ac23dE
FUNC f450 10 0 _ZN3std10sys_common6rwlock6RWLock5write17h6f544ca3e293e14cE
FUNC f460 10 0 _ZN3std10sys_common6rwlock6RWLock7destroy17h288a785355c54917E
FUNC f470 8b 0 _ZN4core4time8Duration11from_millis17h3cd1468849627822E
FUNC f500 12f 0 _ZN4core4sync6atomic10atomic_add17hb95742d0549fd5a1E
FUNC f630 a7 0 _ZN4core4sync6atomic11atomic_load17h61b5695fb720d1efE
FUNC f6e0 a1 0 _ZN4core4sync6atomic11atomic_load17he56772d8e327c4d1E
FUNC f790 f5 0 _ZN4core4sync6atomic12atomic_store17hc33cc5d8a9112bd8E
FUNC f890 36 0 _ZN4core3str21_$LT$impl$u20$str$GT$5parse17hdaba2676b9f6a000E
FUNC f8d0 27 0 _ZN35_$LT$alloc..boxed..Box$LT$T$GT$$GT$11into_unique17h0f9fa5fa81e40c5aE
FUNC f900 27 0 _ZN35_$LT$alloc..boxed..Box$LT$T$GT$$GT$11into_unique17h7cbec014b0a788fbE
FUNC f930 2f 0 _ZN35_$LT$alloc..boxed..Box$LT$T$GT$$GT$17into_raw_non_null17h6ed00b042b6008e3E
FUNC f960 2f 0 _ZN35_$LT$alloc..boxed..Box$LT$T$GT$$GT$17into_raw_non_null17h8ba03e98635c0572E
FUNC f990 36 0 _ZN63_$LT$alloc..boxed..Box$LT$T$GT$$u20$as$u20$core..fmt..Debug$GT$3fmt17h560075279fe89465E
FUNC f9d0 57 0 _ZN3std2rt10lang_start17h5f945d92026732b9E
FUNC fa30 22 0 _ZN3std2rt10lang_start28_$u7b$$u7b$closure$u7d$$u7d$17h48df748a84bf3f17E
FUNC fa60 7d 0 _ZN5alloc5alloc8box_free17h2edf0b24bdae2e3cE
FUNC fae0 69 0 _ZN5alloc5alloc8box_free17h3288d1ca6386075eE
FUNC fb50 69 0 _ZN5alloc5alloc8box_free17h3c516b9a50d67493E
FUNC fbc0 69 0 _ZN5alloc5alloc8box_free17h509297748defc006E
FUNC fc30 69 0 _ZN5alloc5alloc8box_free17h87dac3332095a073E
FUNC fca0 69 0 _ZN5alloc5alloc8box_free17h8a547aab744a6e08E
FUNC fd10 69 0 _ZN5alloc5alloc8box_free17he43ea8b0f83bef98E
FUNC fd80 69 0 _ZN5alloc5alloc8box_free17heb148cd0fc265b92E
FUNC fdf0 1da 0 _ZN4core3ptr25swap_nonoverlapping_bytes17heb37a324b7f09ffdE
FUNC ffd0 1e 0 _ZN54_$LT$I$u20$as$u20$core..iter..traits..IntoIterator$GT$9into_iter17h18dec19763a806f1E
FUNC fff0 4d 0 _ZN84_$LT$core..iter..Map$LT$I$C$$u20$F$GT$$u20$as$u20$core..iter..iterator..Iterator$GT$4next17h6ca0f5f3d0489fddE
FUNC 10040 e 0 _ZN40_$LT$core..cell..UnsafeCell$LT$T$GT$$GT$3get17h0e4494b6cb09c61aE
FUNC 10050 e 0 _ZN40_$LT$core..cell..UnsafeCell$LT$T$GT$$GT$3get17hbde9ed786ab62af9E
FUNC 10060 b 0 _ZN40_$LT$core..cell..UnsafeCell$LT$T$GT$$GT$3get17hcff4fc58a01b3e9aE
FUNC 10070 e 0 _ZN40_$LT$core..cell..UnsafeCell$LT$T$GT$$GT$3get17hda9ec1df0f02dcceE
FUNC 10080 b 0 _ZN40_$LT$core..cell..UnsafeCell$LT$T$GT$$GT$3get17hdae7ad04274fe251E
FUNC 10090 3e 0 _ZN40_$LT$core..cell..UnsafeCell$LT$T$GT$$GT$3new17h018a957039ff4992E
FUNC 100d0 23 0 _ZN40_$LT$core..cell..UnsafeCell$LT$T$GT$$GT$3new17h06031471395bbc14E
FUNC 10100 1a 0 _ZN40_$LT$core..cell..UnsafeCell$LT$T$GT$$GT$3new17h54008c5bc8629878E
FUNC 10120 1b 0 _ZN40_$LT$core..cell..UnsafeCell$LT$T$GT$$GT$3new17h646a6bce249f01b0E
FUNC 10140 54 0 _ZN40_$LT$core..cell..UnsafeCell$LT$T$GT$$GT$3new17h64dbd8b3ff74c9d5E
FUNC 101a0 28 0 _ZN4core3cmp5impls55_$LT$impl$u20$core..cmp..PartialOrd$u20$for$u20$i32$GT$2lt17h56b98f7f4f0e39c5E
FUNC 101d0 1d 0 _ZN4core5slice13size_from_ptr17hdfafafed9d109f0eE
FUNC 101f0 43 0 _ZN4core5slice14from_raw_parts17h5894dbe0bc51bf7cE
FUNC 10240 43 0 _ZN4core5slice18from_raw_parts_mut17ha961b97294b2aebaE
FUNC 10290 36 0 _ZN4core5slice29_$LT$impl$u20$$u5b$T$u5d$$GT$17get_unchecked_mut17h9f732fe6486b7ec7E
FUNC 102d0 3e 0 _ZN4core5slice77_$LT$impl$u20$core..ops..index..IndexMut$LT$I$GT$$u20$for$u20$$u5b$T$u5d$$GT$9index_mut17hdf32925285c0d118E
FUNC 10310 1b 0 _ZN54_$LT$I$u20$as$u20$core..iter..traits..IntoIterator$GT$9into_iter17h5a1da8274f8fcbf3E
FUNC 10330 43 0 _ZN68_$LT$usize$u20$as$u20$core..slice..SliceIndex$LT$$u5b$T$u5d$$GT$$GT$17get_unchecked_mut17h7307196e771b6e29E
FUNC 10380 133 0 _ZN91_$LT$core..slice..Iter$LT$$u27$a$C$$u20$T$GT$$u20$as$u20$core..iter..iterator..Iterator$GT$4next17hd0fe6580801079a2E
FUNC 104c0 36 0 _ZN50_$LT$T$u20$as$u20$core..convert..Into$LT$U$GT$$GT$4into17h3b1726318a2c1e7aE
FUNC 10500 10 0 _ZN3std10sys_common5mutex5Mutex7destroy17ha028e7afd2712936E
FUNC 10510 16 0 _ZN101_$LT$std..panic..AssertUnwindSafe$LT$F$GT$$u20$as$u20$core..ops..function..FnOnce$LT$$LP$$RP$$GT$$GT$9call_once17h0cca624e737415ceE
FUNC 10530 16 0 _ZN101_$LT$std..panic..AssertUnwindSafe$LT$F$GT$$u20$as$u20$core..ops..function..FnOnce$LT$$LP$$RP$$GT$$GT$9call_once17ha2e5a2f412ab8dedE
FUNC 10550 2a 0 _ZN3std5panic12catch_unwind17h2dd76530f98ccdf9E
FUNC 10580 2a 0 _ZN3std5panic12catch_unwind17h4d86efd7ef4dab6dE
FUNC 105b0 2 0 _ZN4core4hint21unreachable_unchecked17hbf821a4f05cceb63E
FUNC 105c0 18 0 _ZN54_$LT$$LP$$RP$$u20$as$u20$std..process..Termination$GT$6report17h38748f4a5ae1b938E
FUNC 105e0 1a 0 _ZN68_$LT$std..process..ExitCode$u20$as$u20$std..process..Termination$GT$6report17hd7632236072cb16eE
FUNC 10600 1b9 0 _ZN3std10sys_common6poison10map_result17h35b50fb9d8ff9e3dE
FUNC 107c0 182 0 _ZN3std10sys_common6poison10map_result17h646aa614633fc749E
FUNC 10950 23 0 _ZN54_$LT$std..sys_common..poison..PoisonError$LT$T$GT$$GT$3new17h1a9a1512227def70E
FUNC 10980 1b 0 _ZN54_$LT$std..sys_common..poison..PoisonError$LT$T$GT$$GT$3new17hac287e35b15be9f8E
FUNC 109a0 30 0 _ZN54_$LT$std..sys_common..poison..PoisonError$LT$T$GT$$GT$3new17hca166b315ef57e93E
FUNC 109d0 48 0 _ZN82_$LT$std..sys_common..poison..PoisonError$LT$T$GT$$u20$as$u20$core..fmt..Debug$GT$3fmt17h6ea3cfd275e76bc1E
FUNC 10a20 48 0 _ZN82_$LT$std..sys_common..poison..PoisonError$LT$T$GT$$u20$as$u20$core..fmt..Debug$GT$3fmt17hf358fcbd57c21768E
FUNC 10a70 4b0 0 _ZN3std2io11read_to_end17h24efbb71ef6bd007E
FUNC 10f20 235 0 _ZN3std2io16append_to_string17h16040fb1c8eb2e9bE
FUNC 11160 68 0 _ZN3std2io16append_to_string28_$u7b$$u7b$closure$u7d$$u7d$17h3cc67167b3e780caE
FUNC 111d0 30 0 _ZN3std2io4Read14read_to_string28_$u7b$$u7b$closure$u7d$$u7d$17hc8410ae51268f2e3E
FUNC 11200 76 0 _ZN4core3fmt9Arguments16new_v1_formatted17hf10704ff82808adeE
FUNC 11280 5c 0 _ZN4core3fmt9Arguments6new_v117h3e1c840fd3521d53E
FUNC 112e0 3e 0 _ZN41_$LT$core..mem..ManuallyDrop$LT$T$GT$$GT$3new17h3a7832ee4d222f08E
FUNC 11320 1b 0 _ZN41_$LT$core..mem..ManuallyDrop$LT$T$GT$$GT$3new17h67af439a168ec50cE
FUNC 11340 1b 0 _ZN41_$LT$core..mem..ManuallyDrop$LT$T$GT$$GT$3new17h992abc583f7325fcE
FUNC 11360 24 0 _ZN4core3mem11size_of_val17h551b752e80d2fdfbE
FUNC 11390 24 0 _ZN4core3mem11size_of_val17h59f7c80d2bb197b9E
FUNC 113c0 24 0 _ZN4core3mem11size_of_val17h85ae1223115ab685E
FUNC 113f0 24 0 _ZN4core3mem12align_of_val17h7220dd46b27aa625E
FUNC 11420 24 0 _ZN4core3mem12align_of_val17h7b855005a8cb27b9E
FUNC 11450 24 0 _ZN4core3mem12align_of_val17hd5587155e03cb62aE
FUNC 11480 d 0 _ZN4core3mem13uninitialized17h45e16db41bb99f8eE
FUNC 11490 25 0 _ZN4core3mem13uninitialized17h62a20f58d103856bE
FUNC 114c0 16 0 _ZN4core3mem13uninitialized17h76a8e3c9e8a4443dE
FUNC 114e0 d 0 _ZN4core3mem13uninitialized17h77ef59402643e1b1E
FUNC 114f0 16 0 _ZN4core3mem13uninitialized17h93afb7a5d0c9c191E
FUNC 11510 22 0 _ZN4core3mem4swap17h3c7b76f1fe0adbbcE
FUNC 11540 22 0 _ZN4core3mem4swap17ha77399c8ea96a947E
FUNC 11570 22 0 _ZN4core3mem4swap17hd2d04f2e63f3f8c7E
FUNC 115a0 1d 0 _ZN4core3mem6forget17h96ca5e91f18019c8E
FUNC 115c0 32 0 _ZN4core3mem6forget17h97faec6b6e5730ecE
FUNC 11600 1d 0 _ZN4core3mem6forget17hfb11eab76b0c3e5cE
FUNC 11620 7c 0 _ZN4core3mem7replace17h53ce906ce50c98ebE
FUNC 116a0 56 0 _ZN4core3mem7replace17h65ed3cd7d3ee7561E
FUNC 11700 1f 0 _ZN4core3mem7size_of17h3f609b829fcd7444E
FUNC 11720 1f 0 _ZN4core3mem7size_of17ha1f6fe6cb4c29fe4E
FUNC 11740 1f 0 _ZN4core3mem7size_of17hcdc2d8415af57f06E
FUNC 11760 1f 0 _ZN4core3mem8align_of17he267f74fc8ae9d1bE
FUNC 11780 182 0 _ZN38_$LT$core..option..Option$LT$T$GT$$GT$13get_or_insert17h8cb98861171e0f5eE
FUNC 11910 e0 0 _ZN38_$LT$core..option..Option$LT$T$GT$$GT$14unwrap_or_else17hde284a16ec41c68bE
FUNC 119f0 23e 0 _ZN38_$LT$core..option..Option$LT$T$GT$$GT$3map17h000e0e5798a31c6cE
FUNC 11c30 3d 0 _ZN38_$LT$core..option..Option$LT$T$GT$$GT$4take17h7bd55f518be4bebbE
FUNC 11c70 31 0 _ZN38_$LT$core..option..Option$LT$T$GT$$GT$4take17hfd5f5122551323aaE
FUNC 11cb0 e0 0 _ZN38_$LT$core..option..Option$LT$T$GT$$GT$6expect17hb19fb795e09d046bE
FUNC 11d90 b2 0 _ZN38_$LT$core..option..Option$LT$T$GT$$GT$6unwrap17h1bda9706bf739ea9E
FUNC 11e50 9c 0 _ZN38_$LT$core..option..Option$LT$T$GT$$GT$6unwrap17h2e85b9b23fefd2ddE
FUNC 11ef0 ed 0 _ZN38_$LT$core..option..Option$LT$T$GT$$GT$6unwrap17hf853897840405fa1E
FUNC 11fe0 125 0 _ZN34_$LT$alloc..sync..Arc$LT$T$GT$$GT$3new17h2a08e7cf70fb6875E
FUNC 12110 113 0 _ZN34_$LT$alloc..sync..Arc$LT$T$GT$$GT$3new17h7e0d46574c7e6017E
FUNC 12230 22 0 _ZN34_$LT$alloc..sync..Arc$LT$T$GT$$GT$5inner17h2b6d98284b99c1edE
FUNC 12260 22 0 _ZN34_$LT$alloc..sync..Arc$LT$T$GT$$GT$5inner17hadc4264cf64524e4E
FUNC 12290 22 0 _ZN34_$LT$alloc..sync..Arc$LT$T$GT$$GT$5inner17hec6964f377d4b9b9E
FUNC 122c0 ce 0 _ZN34_$LT$alloc..sync..Arc$LT$T$GT$$GT$9drop_slow17h0f585760fc94af8dE
FUNC 12390 ce 0 _ZN34_$LT$alloc..sync..Arc$LT$T$GT$$GT$9drop_slow17h3da9f7cc94b20aa4E
FUNC 12460 ce 0 _ZN34_$LT$alloc..sync..Arc$LT$T$GT$$GT$9drop_slow17hd96037fa566931b8E
FUNC 12530 67 0 _ZN64_$LT$alloc..sync..Arc$LT$T$GT$$u20$as$u20$core..clone..Clone$GT$5clone17h3878ca98cabc95c0E
FUNC 125a0 67 0 _ZN64_$LT$alloc..sync..Arc$LT$T$GT$$u20$as$u20$core..clone..Clone$GT$5clone17h6030d21edbbe356fE
FUNC 12610 67 0 _ZN64_$LT$alloc..sync..Arc$LT$T$GT$$u20$as$u20$core..clone..Clone$GT$5clone17h867bd43b56dc7925E
FUNC 12680 6a 0 _ZN67_$LT$alloc..sync..Arc$LT$T$GT$$u20$as$u20$core..ops..drop..Drop$GT$4drop17h4d4cd95c2962ba0fE
FUNC 126f0 6a 0 _ZN67_$LT$alloc..sync..Arc$LT$T$GT$$u20$as$u20$core..ops..drop..Drop$GT$4drop17ha7c54b319ee87cc2E
FUNC 12760 6a 0 _ZN67_$LT$alloc..sync..Arc$LT$T$GT$$u20$as$u20$core..ops..drop..Drop$GT$4drop17hb7bb90b0b5292cf8E
FUNC 127d0 26 0 _ZN69_$LT$alloc..sync..Arc$LT$T$GT$$u20$as$u20$core..ops..deref..Deref$GT$5deref17h0b834238a4a1a780E
FUNC 12800 26 0 _ZN69_$LT$alloc..sync..Arc$LT$T$GT$$u20$as$u20$core..ops..deref..Deref$GT$5deref17h8717d7b281fe25b6E
FUNC 12830 9b 0 _ZN4core3fmt3num50_$LT$impl$u20$core..fmt..Debug$u20$for$u20$i32$GT$3fmt17h7d36af124e0749ccE
FUNC 128d0 13 0 _ZN74_$LT$std..sync..mutex..Mutex$LT$T$GT$$u20$as$u20$core..ops..drop..Drop$GT$4drop17h1f0e8c42762f025dE
FUNC 128f0 2f8 0 _ZN11sample_once7fun_one17h8c9babd3e33fc828E
FUNC 12bf0 1d3 0 _ZN11sample_once10boring_one17hb55354352c9d49bdE
FUNC 12dd0 3d8 0 _ZN11sample_once11sample_once17h01b894fbf7120e06E
FUNC 131b0 e0f 0 _ZN11sample_once4main17he6c1974d51a143f9E
FUNC 14000 2a 0 _ZN4core4sync6atomic10AtomicBool3new17hef55182126927b0eE
FUNC 14030 46 0 _ZN4core4sync6atomic10AtomicBool4load17hfdf8a7a865100ba5E
FUNC 14080 43 0 _ZN4core4sync6atomic10AtomicBool5store17hac0cc64461645625E
FUNC 140d0 2a 0 _ZN4core4sync6atomic11AtomicUsize3new17h47b86a0052079e20E
FUNC 14100 3d 0 _ZN4core4sync6atomic11AtomicUsize4load17hd78b7df14d24470bE
FUNC 14140 44 0 _ZN4core4sync6atomic11AtomicUsize9fetch_add17hb51571e27e64916bE
FUNC 14190 44 0 _ZN4core4sync6atomic11AtomicUsize9fetch_sub17hbcdb0f0cf3e46190E
FUNC 141e0 68 0 _ZN4core4sync6atomic5fence17hf6901aff7c89cfdeE
FUNC 14250 72 0 _ZN3std2io11Initializer10initialize17h7d2cf991a0e6621dE
FUNC 142d0 12 0 _ZN3std2io11Initializer17should_initialize17h4f48492bbb2c04e7E
FUNC 142f0 15 0 _ZN3std2io11Initializer3nop17hac1ada05c5c3fd11E
FUNC 14310 6f 0 _ZN11sample_once11sample_once28_$u7b$$u7b$closure$u7d$$u7d$17ha711d1d9c9371b29E
FUNC 14380 10 0 _ZN11sample_once4main28_$u7b$$u7b$closure$u7d$$u7d$17hcc2f0b80c4287b20E
FUNC 14390 10 0 _ZN11sample_once4main28_$u7b$$u7b$closure$u7d$$u7d$17h0f5a17e99e877b30E
FUNC 143a0 18 0 _ZN3std10sys_common9backtrace28__rust_begin_short_backtrace17he981f5a1b884f16cE
FUNC 143c0 18 0 _ZN3std10sys_common9backtrace28__rust_begin_short_backtrace17he9d0b831e03bdb3aE
FUNC 143e0 33 0 _ZN66_$LT$std..ffi..c_str..CString$u20$as$u20$core..ops..drop..Drop$GT$4drop17hffd21ed2cf6102d2E
FUNC 14420 ac 0 _ZN47_$LT$i32$u20$as$u20$core..iter..range..Step$GT$9add_usize17h07233cf88e030301E
FUNC 144d0 57 0 _ZN4core3fmt10ArgumentV13new17h04c660b2962bee1fE
FUNC 14530 57 0 _ZN4core3fmt10ArgumentV13new17h2ec47e91ee3a22e8E
FUNC 14590 57 0 _ZN4core3fmt10ArgumentV13new17hb4f7fe1f99181c52E
FUNC 145f0 57 0 _ZN4core3fmt10ArgumentV13new17hbbe9d385b40ba485E
FUNC 14650 57 0 _ZN4core3fmt10ArgumentV13new17hc244724ed206af42E
FUNC 146b0 57 0 _ZN4core3fmt10ArgumentV13new17hc255c141f1256977E
FUNC 14710 57 0 _ZN4core3fmt10ArgumentV13new17hca97158c699b3817E
FUNC 14770 57 0 _ZN4core3fmt10ArgumentV13new17he6502ff8f535b2e4E
FUNC 147d0 57 0 _ZN4core3fmt10ArgumentV13new17hf7afd7556bef06f1E
FUNC 14830 57 0 _ZN4core3fmt10ArgumentV13new17hfac9ae22704d2857E
FUNC 14890 1b 0 _ZN4core3str19from_utf8_unchecked17he82c1e87d25c3ebbE
FUNC 148b0 1b 0 _ZN101_$LT$core..ptr..NonNull$LT$T$GT$$u20$as$u20$core..convert..From$LT$core..ptr..Unique$LT$T$GT$$GT$$GT$4from17h18f0bb0370ce5e8eE
FUNC 148d0 1b 0 _ZN101_$LT$core..ptr..NonNull$LT$T$GT$$u20$as$u20$core..convert..From$LT$core..ptr..Unique$LT$T$GT$$GT$$GT$4from17hdfc5c2d3efca6c1bE
FUNC 148f0 1b 0 _ZN101_$LT$core..ptr..NonNull$LT$T$GT$$u20$as$u20$core..convert..From$LT$core..ptr..Unique$LT$T$GT$$GT$$GT$4from17hf0d66f6f2d748baeE
FUNC 14910 1b 0 _ZN101_$LT$core..ptr..Unique$LT$T$GT$$u20$as$u20$core..convert..From$LT$core..ptr..NonNull$LT$T$GT$$GT$$GT$4from17h3fc8c60d0a4b96b1E
FUNC 14930 25 0 _ZN35_$LT$core..ptr..Unique$LT$T$GT$$GT$13new_unchecked17h2de7bd4378247bdaE
FUNC 14960 25 0 _ZN35_$LT$core..ptr..Unique$LT$T$GT$$GT$13new_unchecked17hb8e2bb486437160cE
FUNC 14990 27 0 _ZN35_$LT$core..ptr..Unique$LT$T$GT$$GT$5empty17h2f13456466d3d6d8E
FUNC 149c0 27 0 _ZN35_$LT$core..ptr..Unique$LT$T$GT$$GT$5empty17he80b4a522731409bE
FUNC 149f0 b 0 _ZN35_$LT$core..ptr..Unique$LT$T$GT$$GT$6as_ptr17h0719dd0435d89d39E
FUNC 14a00 b 0 _ZN35_$LT$core..ptr..Unique$LT$T$GT$$GT$6as_ptr17h1f6004d06986f887E
FUNC 14a10 b 0 _ZN35_$LT$core..ptr..Unique$LT$T$GT$$GT$6as_ptr17h3b1b46c98619b706E
FUNC 14a20 b 0 _ZN35_$LT$core..ptr..Unique$LT$T$GT$$GT$6as_ptr17h42e9aad120302af3E
FUNC 14a30 b 0 _ZN35_$LT$core..ptr..Unique$LT$T$GT$$GT$6as_ptr17h613395e872134b9cE
FUNC 14a40 b 0 _ZN35_$LT$core..ptr..Unique$LT$T$GT$$GT$6as_ptr17h6d1b737ccb4aae42E
FUNC 14a50 1b 0 _ZN35_$LT$core..ptr..Unique$LT$T$GT$$GT$6as_ptr17had3f6b04933eecfeE
FUNC 14a70 b 0 _ZN35_$LT$core..ptr..Unique$LT$T$GT$$GT$6as_ptr17he979f6dbb7ae4318E
FUNC 14a80 b 0 _ZN35_$LT$core..ptr..Unique$LT$T$GT$$GT$6as_ptr17hfc5bb44cf9d93ed0E
FUNC 14a90 25 0 _ZN36_$LT$core..ptr..NonNull$LT$T$GT$$GT$13new_unchecked17h6d6663a7e60d1935E
FUNC 14ac0 32 0 _ZN36_$LT$core..ptr..NonNull$LT$T$GT$$GT$4cast17h01e6d2cfef587026E
FUNC 14b00 32 0 _ZN36_$LT$core..ptr..NonNull$LT$T$GT$$GT$4cast17h88e3e44084a2179eE
FUNC 14b40 32 0 _ZN36_$LT$core..ptr..NonNull$LT$T$GT$$GT$4cast17hc0ec05f97476c086E
FUNC 14b80 32 0 _ZN36_$LT$core..ptr..NonNull$LT$T$GT$$GT$4cast17he75f006721ba21a0E
FUNC 14bc0 32 0 _ZN36_$LT$core..ptr..NonNull$LT$T$GT$$GT$4cast17hf684d810f0b37048E
FUNC 14c00 25 0 _ZN36_$LT$core..ptr..NonNull$LT$T$GT$$GT$6as_mut17h5a29d7dc5b8daebaE
FUNC 14c30 25 0 _ZN36_$LT$core..ptr..NonNull$LT$T$GT$$GT$6as_mut17ha5d7bd3315c33f12E
FUNC 14c60 25 0 _ZN36_$LT$core..ptr..NonNull$LT$T$GT$$GT$6as_mut17hb5e1c4d00924a582E
FUNC 14c90 b 0 _ZN36_$LT$core..ptr..NonNull$LT$T$GT$$GT$6as_ptr17h04493f9275924d51E
FUNC 14ca0 b 0 _ZN36_$LT$core..ptr..NonNull$LT$T$GT$$GT$6as_ptr17h92b0c2775c837f4dE
FUNC 14cb0 b 0 _ZN36_$LT$core..ptr..NonNull$LT$T$GT$$GT$6as_ptr17hd4e239b25c00ca19E
FUNC 14cc0 b 0 _ZN36_$LT$core..ptr..NonNull$LT$T$GT$$GT$6as_ptr17he7b333d7b3bc6159E
FUNC 14cd0 25 0 _ZN36_$LT$core..ptr..NonNull$LT$T$GT$$GT$6as_ref17h3b60383e54876cb6E
FUNC 14d00 25 0 _ZN36_$LT$core..ptr..NonNull$LT$T$GT$$GT$6as_ref17hbac10aaaf47764d1E
FUNC 14d30 25 0 _ZN36_$LT$core..ptr..NonNull$LT$T$GT$$GT$6as_ref17hf08979a47fcf912cE
FUNC 14d60 58 0 _ZN4core3ptr19swap_nonoverlapping17h3c9eb56313863a6eE
FUNC 14dc0 58 0 _ZN4core3ptr19swap_nonoverlapping17h5f6c9fca2c10e615E
FUNC 14e20 58 0 _ZN4core3ptr19swap_nonoverlapping17h7908c40d05a6c01bE
FUNC 14e80 d7 0 _ZN4core3ptr23swap_nonoverlapping_one17h346cccbe831ce303E
FUNC 14f60 b4 0 _ZN4core3ptr23swap_nonoverlapping_one17h51f5a2e030feaae4E
FUNC 15020 e7 0 _ZN4core3ptr23swap_nonoverlapping_one17h531f39a0bbd5db2eE
FUNC 15110 3b 0 _ZN4core3ptr4read17h00c1e25239244062E
FUNC 15150 2a 0 _ZN4core3ptr4read17h0312a3e1d437856cE
FUNC 15180 6b 0 _ZN4core3ptr4read17h3539ec840dc39d7eE
FUNC 151f0 7b 0 _ZN4core3ptr4read17h4635951abda46a28E
FUNC 15270 2a 0 _ZN4core3ptr4read17h674a182e3135134eE
FUNC 152a0 26 0 _ZN4core3ptr4read17hed82699c9470eebaE
FUNC 152d0 29 0 _ZN4core3ptr5write17h0a99fd3f9d3c9c23E
FUNC 15300 d 0 _ZN4core3ptr5write17h4c70d8d6d6b12cedE
FUNC 15310 21 0 _ZN4core3ptr5write17h8f34f95a2a3d5997E
FUNC 15340 1b 0 _ZN4core3ptr5write17h929a64a6d2b072a4E
FUNC 15360 2c 0 _ZN4core3ptr5write17hdb2d29e244ed57a0E
FUNC 15390 22 0 _ZN50_$LT$T$u20$as$u20$core..convert..Into$LT$U$GT$$GT$4into17h6842f7e59e726b05E
FUNC 153c0 22 0 _ZN50_$LT$T$u20$as$u20$core..convert..Into$LT$U$GT$$GT$4into17hc6145d096594f53bE
FUNC 153f0 22 0 _ZN50_$LT$T$u20$as$u20$core..convert..Into$LT$U$GT$$GT$4into17hd999dab40490ac2dE
FUNC 15420 e 0 _ZN5alloc6string6String10as_mut_vec17h02578fc44890755cE
FUNC 15430 22 0 _ZN5alloc6string6String3len17hf77f8d14263b6699E
FUNC 15460 45 0 _ZN5alloc6string6String3new17hf0b45749b75e768dE
FUNC 154b0 48 0 _ZN60_$LT$alloc..string..String$u20$as$u20$core..fmt..Display$GT$3fmt17hd99253dc5ab8e1d3E
FUNC 15500 43 0 _ZN65_$LT$alloc..string..String$u20$as$u20$core..ops..deref..Deref$GT$5deref17h8514d3f7818a12c5E
FUNC 15550 29 0 _ZN3std3sys4unix5mutex5Mutex7destroy17hee76f8dda43c59d8E
FUNC 15580 2f 0 _ZN3std10sys_common6poison4Flag3get17hd0d216e4ded15989E
FUNC 155b0 1a 0 _ZN3std10sys_common6poison4Flag3new17h01e303fc750277f0E
FUNC 155d0 69 0 _ZN3std10sys_common6poison4Flag4done17h1186ba8b90f54785E
FUNC 15640 75 0 _ZN3std10sys_common6poison4Flag6borrow17h3b067d9a974ecaa9E
FUNC 156c0 10 0 _ZN3std3sys4unix7process14process_common8ExitCode6as_i3217h4daa5cf390a7d43fE
FUNC 156d0 20 0 _ZN47_$LT$std..fs..File$u20$as$u20$std..io..Read$GT$11initializer17h3290e34d942771f2E
FUNC 156f0 91 0 _ZN4core5alloc6Layout18padding_needed_for17he94e452a0dad12ebE
FUNC 15790 4a 0 _ZN4core5alloc6Layout25from_size_align_unchecked17h1b32fd1025dd5cf9E
FUNC 157e0 e 0 _ZN4core5alloc6Layout4size17he30569347065154eE
FUNC 157f0 26 0 _ZN4core5alloc6Layout5align17hfd8a46ff69231e5dE
FUNC 15820 29a 0 _ZN4core5alloc6Layout6repeat17h944df5001823cf73E
FUNC 15ac0 3b 0 _ZN4core5alloc10size_align17h3e8cb1ebfe8e1e3cE
FUNC 15b00 3b 0 _ZN4core5alloc10size_align17hd7902f4ded57bffeE
FUNC 15b40 4f 0 _ZN4core5alloc6Layout3new17h1bbca1199e4c7103E
FUNC 15b90 4f 0 _ZN4core5alloc6Layout3new17h21adaee382863f95E
FUNC 15be0 4d 0 _ZN4core5alloc6Layout5array17hade88ab03d9adf30E
FUNC 15c30 4d 0 _ZN4core5alloc6Layout5array17hbfcec35a0f97fa00E
FUNC 15c80 2d 0 _ZN4core5alloc6Layout5array28_$u7b$$u7b$closure$u7d$$u7d$17h744976d5639e2681E
FUNC 15cb0 2d 0 _ZN4core5alloc6Layout5array28_$u7b$$u7b$closure$u7d$$u7d$17h8ac87a0bc6bb4dcbE
FUNC 15ce0 75 0 _ZN4core5alloc6Layout9for_value17h16e0ef7d5ee91221E
FUNC 15d60 75 0 _ZN4core5alloc6Layout9for_value17h394128d22c883948E
FUNC 15de0 75 0 _ZN4core5alloc6Layout9for_value17h60ca68ec9bdc3f02E
FUNC 15ea0 36 0 _ZN4core3ptr31_$LT$impl$u20$$BP$mut$u20$T$GT$6offset17h73dc924866c5d29eE
FUNC 15ee0 36 0 _ZN4core3ptr31_$LT$impl$u20$$BP$mut$u20$T$GT$7is_null17h7d3d8f0780676d5fE
FUNC 15f20 19 0 _ZN4core5slice29_$LT$impl$u20$$u5b$T$u5d$$GT$10as_mut_ptr17hff778b159a97833cE
FUNC 15f40 34 0 _ZN4core5slice77_$LT$impl$u20$core..ops..index..IndexMut$LT$I$GT$$u20$for$u20$$u5b$T$u5d$$GT$9index_mut17h79acf44ff3fc5f8cE
FUNC 15f80 49 0 _ZN8vignette9lib_linux15thread_iterator28_$u7b$$u7b$closure$u7d$$u7d$17ha104509a781b2d91E
FUNC 15fd0 123 0 _ZN47_$LT$core..result..Result$LT$T$C$$u20$E$GT$$GT$14unwrap_or_else17hacee3a3b6c73e571E
FUNC 16100 23f 0 _ZN47_$LT$core..result..Result$LT$T$C$$u20$E$GT$$GT$3map17hceeb608f2a4a459bE
FUNC 16340 23f 0 _ZN47_$LT$core..result..Result$LT$T$C$$u20$E$GT$$GT$3map17he302e3ee9375fee9E
FUNC 16580 1f5 0 _ZN47_$LT$core..result..Result$LT$T$C$$u20$E$GT$$GT$3map17heb95977669ed2df2E
FUNC 16780 112 0 _ZN47_$LT$core..result..Result$LT$T$C$$u20$E$GT$$GT$6expect17h2bc7764e1f5c47e5E
FUNC 168a0 137 0 _ZN47_$LT$core..result..Result$LT$T$C$$u20$E$GT$$GT$6expect17h88eae60eeb9a4b65E
FUNC 169e0 de 0 _ZN47_$LT$core..result..Result$LT$T$C$$u20$E$GT$$GT$6expect17hf0eac3fe862dd7ddE
FUNC 16ac0 178 0 _ZN47_$LT$core..result..Result$LT$T$C$$u20$E$GT$$GT$7map_err17h93768b56943504f4E
FUNC 16c40 160 0 _ZN4core6result13unwrap_failed17h15e6bd0ef8279557E
FUNC 16da0 1d 0 _ZN8vignette9lib_linux6gettid17h59df0c2d8f50b05cE
FUNC 16dc0 16 0 _ZN8vignette9lib_linux18get_current_thread17h71bda9f14e3bd4feE
FUNC 16de0 2b 0 _ZN8vignette9lib_linux17is_current_thread17hfe47978998e645d9E
FUNC 16e10 122 0 _ZN8vignette9lib_linux14PosixSemaphore3new17hcd961ef9f4c41d67E
FUNC 16f40 73 0 _ZN8vignette9lib_linux14PosixSemaphore4post17ha26d8c3ba5dd1daeE
FUNC 16fc0 73 0 _ZN8vignette9lib_linux14PosixSemaphore4wait17h4f3df7e4d79057b7E
FUNC 17040 1dd 0 _ZN8vignette9lib_linux14PosixSemaphore17wait_through_intr17ha31a8ebd4c5bc909E
FUNC 17220 2b 0 _ZN77_$LT$vignette..lib_linux..PosixSemaphore$u20$as$u20$core..ops..drop..Drop$GT$4drop17hb423c3911d9ee780E
FUNC 17250 46 0 _ZN8vignette9lib_linux15thread_iterator17hed9337db67e39aa1E
FUNC 172a0 17f 0 _ZN8vignette9lib_linux18clear_shared_state17hfebf4a9b652f883fE
FUNC 17420 2af 0 _ZN8vignette9lib_linux18reset_shared_state17hae47639af69b179cE
FUNC 176d0 121 0 _ZN8vignette9lib_linux7Sampler3new17h7bba81fbf45de3fcE
FUNC 17800 66 0 _ZN70_$LT$vignette..lib_linux..Sampler$u20$as$u20$core..ops..drop..Drop$GT$4drop17h377216bb57672827E
FUNC 17870 35a 0 _ZN8vignette9lib_linux15sigprof_handler17h181797dcd4f4895dE
FUNC 17bd0 36 0 _ZN8vignette9lib_linux12send_sigprof17h54c6d5f47c44c06fE
FUNC 17c10 51 0 _ZN8vignette9lib_linux6Sample3new17h4768f5cdc6f82d5fE
FUNC 17c70 214 0 _ZN8vignette9lib_linux6Sample7collect17h63263a549790490bE
FUNC 17e90 7d 0 _ZN66_$LT$vignette..lib_linux..ThreadId$u20$as$u20$core..fmt..Debug$GT$3fmt17h97ce6f1572c82c43E
FUNC 17f10 1f 0 _ZN67_$LT$nix..sys..signal..SaFlags$u20$as$u20$core..ops..bit..BitOr$GT$5bitor17h414302a7a6933e63E
FUNC 17f30 53 0 _ZN33_$LT$alloc..vec..Vec$LT$T$GT$$GT$13with_capacity17h7d1565889e81f634E
FUNC 17f90 f 0 _ZN33_$LT$alloc..vec..Vec$LT$T$GT$$GT$3len17hc3915739c0db8365E
FUNC 17fa0 139 0 _ZN33_$LT$alloc..vec..Vec$LT$T$GT$$GT$4push17ha86a12fb39d6cc15E
FUNC 180e0 36 0 _ZN33_$LT$alloc..vec..Vec$LT$T$GT$$GT$7reserve17h5920a21b7c1c293fE
FUNC 18120 4b 0 _ZN33_$LT$alloc..vec..Vec$LT$T$GT$$GT$8capacity17h2df8ea4f94ad25cbE
FUNC 18170 24 0 _ZN66_$LT$alloc..vec..Vec$LT$T$GT$$u20$as$u20$core..ops..drop..Drop$GT$4drop17h7a828c286ca995ceE
FUNC 181a0 50 0 _ZN71_$LT$alloc..vec..Vec$LT$T$GT$$u20$as$u20$core..ops..deref..DerefMut$GT$9deref_mut17h978f82fe957102b8E
FUNC 181f0 81 0 _ZN80_$LT$alloc..vec..Vec$LT$T$GT$$u20$as$u20$core..ops..index..IndexMut$LT$I$GT$$GT$9index_mut17hd9c55ddaf7533054E
FUNC 18280 80 0 _ZN3std2fs8read_dir17h93a8ff05d04c9518E
FUNC 18300 30 0 _ZN4core4iter8iterator8Iterator3map17h1d42a88769a62571E
FUNC 18330 49 0 _ZN4core3ops8function6FnOnce9call_once17hcf0d29ceb7c45703E
FUNC 18380 32 0 _ZN4core3ptr13drop_in_place17h016585d04d292709E
FUNC 183c0 10 0 _ZN4core3ptr13drop_in_place17h1b6bda6a5b5ff54dE
FUNC 183d0 10 0 _ZN4core3ptr13drop_in_place17h1daa63d13a423815E
FUNC 183e0 4d 0 _ZN4core3ptr13drop_in_place17h28b740008466cfdeE
FUNC 18430 50 0 _ZN4core3ptr13drop_in_place17h32d7022e93c25448E
FUNC 18480 10 0 _ZN4core3ptr13drop_in_place17h3b5fadb78ac18705E
FUNC 18490 31 0 _ZN4core3ptr13drop_in_place17h3bb678107da908e7E
FUNC 184d0 23 0 _ZN4core3ptr13drop_in_place17h426f6bce635c5cc2E
FUNC 18500 10 0 _ZN4core3ptr13drop_in_place17h49f16afc3f925cabE
FUNC 18510 10 0 _ZN4core3ptr13drop_in_place17h555abc934c02cca9E
FUNC 18520 10 0 _ZN4core3ptr13drop_in_place17h5667978cfd3a3f04E
FUNC 18530 10 0 _ZN4core3ptr13drop_in_place17h7c769ce5ef5f0fa4E
FUNC 18540 10 0 _ZN4core3ptr13drop_in_place17h8d51a7f57a5c2aa1E
FUNC 18550 7 0 _ZN4core3ptr13drop_in_place17ha1fceb6d810f2777E
FUNC 18560 4d 0 _ZN4core3ptr13drop_in_place17ha231b5ed5fdb9987E
FUNC 185b0 10 0 _ZN4core3ptr13drop_in_place17hb90bf5499ae0aedcE
FUNC 185c0 55 0 _ZN4core3ptr13drop_in_place17hbc928ce8ba9c6ce5E
FUNC 18620 6d 0 _ZN4core3ptr13drop_in_place17hcdc522f1b5dde7d5E
FUNC 18690 10 0 _ZN4core3ptr13drop_in_place17hda4719e4feb91d6eE
FUNC 186a0 10 0 _ZN4core3ptr13drop_in_place17hf822ddce498260a9E
FUNC 186b0 10 0 _ZN4core3ptr13drop_in_place17hfb50a8da3384de86E
FUNC 186c0 10 0 _ZN4core3ptr13drop_in_place17hff464718a20099a1E
FUNC 186d0 1d 0 _ZN90_$LT$core..ops..range..RangeFull$u20$as$u20$core..slice..SliceIndex$LT$$u5b$T$u5d$$GT$$GT$9index_mut17h37c84344485f6fffE
FUNC 186f0 2e 0 _ZN40_$LT$alloc..raw_vec..RawVec$LT$T$GT$$GT$13with_capacity17h800783806f5677a9E
FUNC 18720 298 0 _ZN49_$LT$alloc..raw_vec..RawVec$LT$T$C$$u20$A$GT$$GT$11allocate_in17h2ce6f4f6fb22ac52E
FUNC 189c0 11 0 _ZN49_$LT$alloc..raw_vec..RawVec$LT$T$C$$u20$A$GT$$GT$11allocate_in28_$u7b$$u7b$closure$u7d$$u7d$17h012a9f7b7d62932fE
FUNC 189e0 8 0 _ZN49_$LT$alloc..raw_vec..RawVec$LT$T$C$$u20$A$GT$$GT$11allocate_in28_$u7b$$u7b$closure$u7d$$u7d$17habfd2adbf09d5a62E
FUNC 189f0 84 0 _ZN49_$LT$alloc..raw_vec..RawVec$LT$T$C$$u20$A$GT$$GT$14current_layout17hd1b22c32136f43bdE
FUNC 18a80 af 0 _ZN49_$LT$alloc..raw_vec..RawVec$LT$T$C$$u20$A$GT$$GT$14dealloc_buffer17h458fd9ff26bc29dbE
FUNC 18b30 741 0 _ZN49_$LT$alloc..raw_vec..RawVec$LT$T$C$$u20$A$GT$$GT$16reserve_internal17hf22152f903c675c0E
FUNC 19280 17 0 _ZN49_$LT$alloc..raw_vec..RawVec$LT$T$C$$u20$A$GT$$GT$16reserve_internal28_$u7b$$u7b$closure$u7d$$u7d$17h4e9c199c25d91aabE
FUNC 192a0 141 0 _ZN49_$LT$alloc..raw_vec..RawVec$LT$T$C$$u20$A$GT$$GT$18amortized_new_size17h743a5375dcb613b5E
FUNC 193f0 25 0 _ZN49_$LT$alloc..raw_vec..RawVec$LT$T$C$$u20$A$GT$$GT$3ptr17hf6f08a53ab4bef1eE
FUNC 19420 c4 0 _ZN49_$LT$alloc..raw_vec..RawVec$LT$T$C$$u20$A$GT$$GT$7reserve17haaa84239690db88eE
FUNC 194f0 10 0 _ZN82_$LT$alloc..raw_vec..RawVec$LT$T$C$$u20$A$GT$$u20$as$u20$core..ops..drop..Drop$GT$4drop17hc32ac0c68a464331E
FUNC 19500 13e 0 _ZN4core4sync6atomic10atomic_sub17h00a9180e3a7e4055E
FUNC 19640 69 0 _ZN5alloc5alloc8box_free17h129e18ce8d0cc4faE
FUNC 196b0 82 0 _ZN5alloc5alloc8box_free17h675f93afc113ca14E
FUNC 19740 b 0 _ZN40_$LT$core..cell..UnsafeCell$LT$T$GT$$GT$3get17hbe6ec27fd8dc04abE
FUNC 19750 e 0 _ZN40_$LT$core..cell..UnsafeCell$LT$T$GT$$GT$3get17hdbcdf165f976665fE
FUNC 19760 50 0 _ZN40_$LT$core..cell..UnsafeCell$LT$T$GT$$GT$3new17h5bc6d390a896f792E
FUNC 197b0 43 0 _ZN4core5slice18from_raw_parts_mut17h02dbce7b4d147baaE
FUNC 19800 34 0 _ZN66_$LT$$RF$$u27$a$u20$T$u20$as$u20$core..convert..AsRef$LT$U$GT$$GT$6as_ref17h1fa9b4578d77be76E
FUNC 19840 76 0 _ZN4core3fmt9Arguments16new_v1_formatted17he7dc43bfd5d75fbaE
FUNC 198c0 24 0 _ZN4core3mem11size_of_val17h7afd33fba23d2790E
FUNC 198f0 24 0 _ZN4core3mem12align_of_val17h345f4fba9920768bE
FUNC 19920 d 0 _ZN4core3mem13uninitialized17h17ceb4532ad94571E
FUNC 19930 d 0 _ZN4core3mem13uninitialized17ha0326c5ce61aeae7E
FUNC 19940 1f 0 _ZN4core3mem7size_of17h0cec52beacf273f7E
FUNC 19960 1f 0 _ZN4core3mem8align_of17hf1cc787b6193ba98E
FUNC 19980 e0 0 _ZN38_$LT$core..option..Option$LT$T$GT$$GT$14unwrap_or_else17h69deaf225a378d3cE
FUNC 19a60 5d 0 _ZN38_$LT$core..option..Option$LT$T$GT$$GT$6as_ref17h688d7ba9af3279cfE
FUNC 19ac0 93 0 _ZN38_$LT$core..option..Option$LT$T$GT$$GT$6expect17hda690a0f7e2bf9b9E
FUNC 19b60 9c 0 _ZN38_$LT$core..option..Option$LT$T$GT$$GT$6unwrap17h40630e33c44485cbE
FUNC 19c00 22 0 _ZN34_$LT$alloc..sync..Arc$LT$T$GT$$GT$5inner17h44be2c00de89e4b9E
FUNC 19c30 ce 0 _ZN34_$LT$alloc..sync..Arc$LT$T$GT$$GT$9drop_slow17h6089d4dc77cc195bE
FUNC 19d00 6a 0 _ZN67_$LT$alloc..sync..Arc$LT$T$GT$$u20$as$u20$core..ops..drop..Drop$GT$4drop17hc2c2df08581f4c5dE
FUNC 19d70 44 0 _ZN4core4sync6atomic11AtomicUsize9fetch_sub17h8ebf70c90783458eE
FUNC 19dc0 68 0 _ZN4core4sync6atomic5fence17h39da54c92650d772E
FUNC 19e30 57 0 _ZN4core3fmt10ArgumentV13new17h84f2891a85a65746E
FUNC 19e90 1b 0 _ZN101_$LT$core..ptr..NonNull$LT$T$GT$$u20$as$u20$core..convert..From$LT$core..ptr..Unique$LT$T$GT$$GT$$GT$4from17ha5a185ff74d20593E
FUNC 19eb0 1b 0 _ZN101_$LT$core..ptr..Unique$LT$T$GT$$u20$as$u20$core..convert..From$LT$core..ptr..NonNull$LT$T$GT$$GT$$GT$4from17h50ae371eaeecd75bE
FUNC 19ed0 b 0 _ZN35_$LT$core..ptr..Unique$LT$T$GT$$GT$6as_ptr17h0a57ec86055bcee9E
FUNC 19ee0 b 0 _ZN35_$LT$core..ptr..Unique$LT$T$GT$$GT$6as_ptr17h294b24a08ab1fab0E
FUNC 19ef0 1b 0 _ZN35_$LT$core..ptr..Unique$LT$T$GT$$GT$6as_ptr17heacb9ba20530dba1E
FUNC 19f10 25 0 _ZN36_$LT$core..ptr..NonNull$LT$T$GT$$GT$13new_unchecked17h35f36560ee3c1904E
FUNC 19f40 32 0 _ZN36_$LT$core..ptr..NonNull$LT$T$GT$$GT$4cast17h63b9c3ff1beae6e9E
FUNC 19f80 32 0 _ZN36_$LT$core..ptr..NonNull$LT$T$GT$$GT$4cast17ha5587eaf70dc10beE
FUNC 19fc0 32 0 _ZN36_$LT$core..ptr..NonNull$LT$T$GT$$GT$4cast17haab36b7ad4ad1258E
FUNC 1a000 25 0 _ZN36_$LT$core..ptr..NonNull$LT$T$GT$$GT$6as_mut17h01da7e264b3f011dE
FUNC 1a030 b 0 _ZN36_$LT$core..ptr..NonNull$LT$T$GT$$GT$6as_ptr17h17a8fe27bd81dd80E
FUNC 1a040 b 0 _ZN36_$LT$core..ptr..NonNull$LT$T$GT$$GT$6as_ptr17haf810d8128895d82E
FUNC 1a050 25 0 _ZN36_$LT$core..ptr..NonNull$LT$T$GT$$GT$6as_ref17h4d46fd3d0709b6baE
FUNC 1a080 2f 0 _ZN36_$LT$core..ptr..NonNull$LT$T$GT$$GT$8dangling17h5862517ac319a463E
FUNC 1a0b0 1e 0 _ZN4core3ptr5write17h606a2a2e48ec16b9E
FUNC 1a0d0 22 0 _ZN50_$LT$T$u20$as$u20$core..convert..Into$LT$U$GT$$GT$4into17hff3afc8db08d9cacE
FUNC 1a100 30 0 _ZN3std2fs7ReadDir17h76fd972dd726b809E
FUNC 1a130 99 0 _ZN4core5alloc6Layout15from_size_align17h585280b10425f539E
FUNC 1a1d0 91 0 _ZN4core5alloc6Layout18padding_needed_for17h5ee5dbac80c321c9E
FUNC 1a270 4a 0 _ZN4core5alloc6Layout25from_size_align_unchecked17hcf053c36f0797fb7E
FUNC 1a2c0 e 0 _ZN4core5alloc6Layout4size17hfa9109f497d00db5E
FUNC 1a2d0 26 0 _ZN4core5alloc6Layout5align17h669b775014bebe90E
FUNC 1a300 29a 0 _ZN4core5alloc6Layout6repeat17haa892f14638f744fE
FUNC 1a5a0 3b 0 _ZN4core5alloc10size_align17h0ade4642c3f410afE
FUNC 1a5e0 4f 0 _ZN4core5alloc6Layout3new17h15369cf0e1feaf3dE
FUNC 1a630 4d 0 _ZN4core5alloc6Layout5array17hc3620efd8854fd75E
FUNC 1a680 2d 0 _ZN4core5alloc6Layout5array28_$u7b$$u7b$closure$u7d$$u7d$17hb4dfdc78b55f79dbE
FUNC 1a6b0 75 0 _ZN4core5alloc6Layout9for_value17h0fa687340199e61dE
FUNC 1a730 4d 0 _ZN59_$LT$alloc..alloc..Global$u20$as$u20$core..alloc..Alloc$GT$12alloc_zeroed17h4accb1027a1acb88E
FUNC 1a780 4d 0 _ZN59_$LT$alloc..alloc..Global$u20$as$u20$core..alloc..Alloc$GT$5alloc17h91f6432717e28077E
FUNC 1a7d0 3e 0 _ZN59_$LT$alloc..alloc..Global$u20$as$u20$core..alloc..Alloc$GT$7dealloc17h2199c0665dd3f9e3E
FUNC 1a810 72 0 _ZN59_$LT$alloc..alloc..Global$u20$as$u20$core..alloc..Alloc$GT$7realloc17h47a75de4d607163bE
FUNC 1a890 48 0 _ZN5alloc5alloc12alloc_zeroed17h83eb75e142291a12E
FUNC 1a8e0 48 0 _ZN5alloc5alloc5alloc17h5eedb0e67bd5b349E
FUNC 1a930 57 0 _ZN5alloc5alloc7dealloc17hf006e87804b10125E
FUNC 1a990 6b 0 _ZN5alloc5alloc7realloc17hadc08252c6215665E
FUNC 1aa00 6e 0 _ZN5alloc7raw_vec11alloc_guard17h225e67c926bb29d9E
FUNC 1aa70 11 0 _ZN107_$LT$alloc..collections..CollectionAllocErr$u20$as$u20$core..convert..From$LT$core..alloc..AllocErr$GT$$GT$4from17h5eb986af0d660d3cE
FUNC 1aa90 25 0 _ZN4core3num12NonZeroUsize13new_unchecked17h46f06cbe7e511157E
FUNC 1aac0 b 0 _ZN4core3num12NonZeroUsize3get17hb05c08c01787bdb0E
FUNC 1aad0 6f 0 _ZN4core3num23_$LT$impl$u20$usize$GT$11checked_add17h28feae1e0e840e3fE
FUNC 1ab40 6f 0 _ZN4core3num23_$LT$impl$u20$usize$GT$11checked_mul17h85aa555413e1af0cE
FUNC 1abb0 2f 0 _ZN4core3num23_$LT$impl$u20$usize$GT$12wrapping_add17h58ffc2f85f89e5f2E
FUNC 1abe0 2f 0 _ZN4core3num23_$LT$impl$u20$usize$GT$12wrapping_sub17hbc4f4b3529b24ebaE
FUNC 1ac10 5e 0 _ZN4core3num23_$LT$impl$u20$usize$GT$15is_power_of_two17h610c7dae5a98747eE
FUNC 1ac70 70 0 _ZN4core3num23_$LT$impl$u20$usize$GT$15overflowing_add17h61d00ea390f2f0b8E
FUNC 1ace0 71 0 _ZN4core3num23_$LT$impl$u20$usize$GT$15overflowing_mul17h1845a70c1ec253fdE
FUNC 1ad60 1bc 0 _ZN47_$LT$core..result..Result$LT$T$C$$u20$E$GT$$GT$3map17h82093323ebf921a2E
FUNC 1af20 e1 0 _ZN47_$LT$core..result..Result$LT$T$C$$u20$E$GT$$GT$6unwrap17he8236dd1bbbfccf7E
FUNC 1b010 156 0 _ZN4core6result13unwrap_failed17h1492c689f5ac0de5E
FUNC 1b170 15a 0 _ZN4core6result13unwrap_failed17h27cffadad280b542E
FUNC 1b2d0 1e 0 _ZN78_$LT$core..result..Result$LT$T$C$$u20$E$GT$$u20$as$u20$core..ops..try..Try$GT$10from_error17h530940ee027c55a9E
FUNC 1b2f0 22 0 _ZN78_$LT$core..result..Result$LT$T$C$$u20$E$GT$$u20$as$u20$core..ops..try..Try$GT$10from_error17hb4c357667ca4124bE
FUNC 1b320 e 0 _ZN78_$LT$core..result..Result$LT$T$C$$u20$E$GT$$u20$as$u20$core..ops..try..Try$GT$10from_error17hb59d655453d98837E
FUNC 1b330 b 0 _ZN78_$LT$core..result..Result$LT$T$C$$u20$E$GT$$u20$as$u20$core..ops..try..Try$GT$11into_result17h0736c3faa5eb2005E
FUNC 1b340 1b 0 _ZN78_$LT$core..result..Result$LT$T$C$$u20$E$GT$$u20$as$u20$core..ops..try..Try$GT$11into_result17h66035ed5bc24631eE
FUNC 1b360 1a 0 _ZN78_$LT$core..result..Result$LT$T$C$$u20$E$GT$$u20$as$u20$core..ops..try..Try$GT$11into_result17h8061757f1a5bcd9bE
FUNC 1b380 12 0 _ZN78_$LT$core..result..Result$LT$T$C$$u20$E$GT$$u20$as$u20$core..ops..try..Try$GT$11into_result17h85298221c2fbe533E
FUNC 1b3a0 12 0 _ZN78_$LT$core..result..Result$LT$T$C$$u20$E$GT$$u20$as$u20$core..ops..try..Try$GT$11into_result17hf2c25fb23493fba0E
FUNC 1b3c0 32 0 _ZN53_$LT$$RF$$u27$a$u20$T$u20$as$u20$core..fmt..Debug$GT$3fmt17h557a31bbd2f52807E
FUNC 1b500 6cf 0 _ZN3nix5errno6consts8from_i3217hbbfe6b8a2998093fE
FUNC 1bbd0 203d 0 _ZN62_$LT$nix..errno..consts..Errno$u20$as$u20$core..fmt..Debug$GT$3fmt17h25c6179793995c54E
FUNC 1dc10 75 0 _ZN103_$LT$core..ops..range..RangeFrom$LT$usize$GT$$u20$as$u20$core..slice..SliceIndex$LT$$u5b$T$u5d$$GT$$GT$5index17hf5e8e0f2e9ed01f2E
FUNC 1dc90 40 0 _ZN35_$LT$alloc..boxed..Box$LT$T$GT$$GT$11into_unique17h0195f8a632e4a4cbE
FUNC 1dcd0 4f 0 _ZN35_$LT$alloc..boxed..Box$LT$T$GT$$GT$17into_raw_non_null17h1bc7828c8d4db57aE
FUNC 1dd20 4f 0 _ZN35_$LT$alloc..boxed..Box$LT$T$GT$$GT$8into_raw17h44597c69405b6c28E
FUNC 1dd70 2f 0 _ZN41_$LT$core..mem..ManuallyDrop$LT$T$GT$$GT$3new17h76985f9fd0d066a4E
FUNC 1dda0 84 0 _ZN49_$LT$alloc..raw_vec..RawVec$LT$T$C$$u20$A$GT$$GT$14current_layout17ha216e717ae6e2646E
FUNC 1de30 af 0 _ZN49_$LT$alloc..raw_vec..RawVec$LT$T$C$$u20$A$GT$$GT$14dealloc_buffer17he8190a8934361eabE
FUNC 1dee0 25 0 _ZN49_$LT$alloc..raw_vec..RawVec$LT$T$C$$u20$A$GT$$GT$3ptr17h072fad7121d88b6dE
FUNC 1df10 d 0 _ZN4core3mem13uninitialized17h270a2e32c9b52e9fE
FUNC 1df20 d 0 _ZN4core3mem13uninitialized17h321e06d2c51768e6E
FUNC 1df30 25 0 _ZN4core3mem13uninitialized17h4fb33d54594e4351E
FUNC 1df60 d 0 _ZN4core3mem13uninitialized17h74608e3c0f7c5368E
FUNC 1df70 d 0 _ZN4core3mem13uninitialized17ha868133468cf78bfE
FUNC 1df80 d 0 _ZN4core3mem13uninitialized17hee312d78922958f4E
FUNC 1df90 22 0 _ZN4core3mem4swap17he2aeee4dd7c04805E
FUNC 1dfc0 2c 0 _ZN4core3mem6forget17h02a4cf608dab5e28E
FUNC 1dff0 4c 0 _ZN4core3mem7replace17h060ae6cbfb7e880eE
FUNC 1e040 1f 0 _ZN4core3mem7size_of17h11dce010bb556b06E
FUNC 1e060 1f 0 _ZN4core3mem7size_of17h6856b27881f47544E
FUNC 1e080 1f 0 _ZN4core3mem7size_of17h8e2dcf6db0123346E
FUNC 1e0a0 1f 0 _ZN4core3mem7size_of17ha31ef6f63f573f8cE
FUNC 1e0c0 1f 0 _ZN4core3mem7size_of17hd5f0fcd13d4cb533E
FUNC 1e0e0 1f 0 _ZN4core3mem8align_of17h2c91b76d68260bd0E
FUNC 1e100 10 0 _ZN82_$LT$alloc..raw_vec..RawVec$LT$T$C$$u20$A$GT$$u20$as$u20$core..ops..drop..Drop$GT$4drop17hfb8afd2b823afa7aE
FUNC 1e110 1d 0 _ZN90_$LT$core..ops..range..RangeFull$u20$as$u20$core..slice..SliceIndex$LT$$u5b$T$u5d$$GT$$GT$9index_mut17h0b7093364a20d349E
FUNC 1e130 70 0 _ZN99_$LT$core..ops..range..Range$LT$usize$GT$$u20$as$u20$core..slice..SliceIndex$LT$$u5b$T$u5d$$GT$$GT$13get_unchecked17hd9058dee290c4a8cE
FUNC 1e1a0 ca 0 _ZN99_$LT$core..ops..range..Range$LT$usize$GT$$u20$as$u20$core..slice..SliceIndex$LT$$u5b$T$u5d$$GT$$GT$5index17hbce88211fc4afdd1E
FUNC 1e270 1d 0 _ZN36_$LT$T$u20$as$u20$core..any..Any$GT$11get_type_id17h686d931e96130014E
FUNC 1e290 1d 0 _ZN36_$LT$T$u20$as$u20$core..any..Any$GT$11get_type_id17hc40674db8eb22b2cE
FUNC 1e2b0 71 0 _ZN3std9panicking11begin_panic17hee7bf69231aad994E
FUNC 1e330 2f 0 _ZN4core3any6TypeId2of17h4ccdfc7d79562d3aE
FUNC 1e360 2f 0 _ZN4core3any6TypeId2of17hcb64ed2c2b6d6c8eE
FUNC 1e390 b7 0 _ZN4core3cmp3Ord3max17hdc4d696075561bd2E
FUNC 1e450 2a 0 _ZN4core3cmp3max17hd1a6bc59e6d9be07E
FUNC 1e480 57 0 _ZN4core3fmt10ArgumentV13new17h0aed225296431cbdE
FUNC 1e4e0 57 0 _ZN4core3fmt10ArgumentV13new17h25078f4685b24515E
FUNC 1e540 57 0 _ZN4core3fmt10ArgumentV13new17h3ae1d8d83b28d4caE
FUNC 1e5a0 57 0 _ZN4core3fmt10ArgumentV13new17h749bfef0e9da9af7E
FUNC 1e600 57 0 _ZN4core3fmt10ArgumentV13new17h7844f54f35b137f8E
FUNC 1e660 76 0 _ZN4core3fmt9Arguments16new_v1_formatted17h3f6874d08ccef11aE
FUNC 1e6e0 19 0 _ZN50_$LT$T$u20$as$u20$core..convert..From$LT$T$GT$$GT$4from17h5f2796cdb0cea295E
FUNC 1e700 32 0 _ZN53_$LT$$RF$$u27$a$u20$T$u20$as$u20$core..fmt..Debug$GT$3fmt17hd2c5ea686e7d8935E
FUNC 1e740 36 0 _ZN55_$LT$$RF$$u27$a$u20$T$u20$as$u20$core..fmt..Display$GT$3fmt17h56d141a83475f70aE
FUNC 1e780 43 0 _ZN59_$LT$std..panicking..begin_panic..PanicPayload$LT$A$GT$$GT$3new17h79414061a31fb69aE
FUNC 1e7d0 81 0 _ZN91_$LT$std..panicking..begin_panic..PanicPayload$LT$A$GT$$u20$as$u20$core..panic..BoxMeUp$GT$3get17h5d9475bcd2ed33daE
FUNC 1e860 287 0 _ZN91_$LT$std..panicking..begin_panic..PanicPayload$LT$A$GT$$u20$as$u20$core..panic..BoxMeUp$GT$9box_me_up17h0d2ae5d1e26014c6E
FUNC 1eaf0 3d 0 _ZN38_$LT$core..option..Option$LT$T$GT$$GT$4take17h98f9785e8d9b1ddaE
FUNC 1eb30 b7 0 _ZN38_$LT$core..option..Option$LT$T$GT$$GT$5ok_or17h04f882d8f366d785E
FUNC 1ebf0 af 0 _ZN38_$LT$core..option..Option$LT$T$GT$$GT$5ok_or17hc4bda1e48f165034E
FUNC 1eca0 c5 0 _ZN38_$LT$core..option..Option$LT$T$GT$$GT$5ok_or17hca25f8767880495aE
FUNC 1ed70 28 0 _ZN4core3cmp5impls54_$LT$impl$u20$core..cmp..PartialEq$u20$for$u20$i32$GT$2eq17hfb026a8ec60cf31aE
FUNC 1eda0 29 0 _ZN4core3cmp5impls57_$LT$impl$u20$core..cmp..PartialOrd$u20$for$u20$usize$GT$2ge17h9c102e4c3cd919bbE
FUNC 1edd0 9b 0 _ZN4core3fmt3num50_$LT$impl$u20$core..fmt..Debug$u20$for$u20$i32$GT$3fmt17head1ffe9f6e2d5fbE
FUNC 1ee70 7 0 _ZN4core3ptr13drop_in_place17h02900366c0bacee6E
FUNC 1ee80 7 0 _ZN4core3ptr13drop_in_place17h1b6fb68e121f9d36E
FUNC 1ee90 7 0 _ZN4core3ptr13drop_in_place17h776dae29807a9761E
FUNC 1eea0 6d 0 _ZN4core3ptr13drop_in_place17hb936e5b751114f2bE
FUNC 1ef10 7 0 _ZN4core3ptr13drop_in_place17hee571fe4c020a3cdE
FUNC 1ef20 4a 0 _ZN4core5alloc6Layout25from_size_align_unchecked17hf14f2889cdcac72cE
FUNC 1ef70 e 0 _ZN4core5alloc6Layout4size17h79f7d3ba6849c346E
FUNC 1ef80 26 0 _ZN4core5alloc6Layout5align17hc92b59956a1f5d6cE
FUNC 1efb0 3 0 _ZN50_$LT$T$u20$as$u20$core..convert..From$LT$T$GT$$GT$4from17h8ed3bef57df1df10E
FUNC 1efc0 80 0 _ZN3nix3sys6signal6SigSet5empty17h3bd2af3fe4f20c30E
FUNC 1f040 1eb 0 _ZN3nix3sys6signal9SigAction3new17hd56e565d48c7ce2cE
FUNC 1f230 8f 0 _ZN3nix3sys6signal9sigaction17h1a6942ecb3cd0dfcE
FUNC 1f2c0 6c 0 _ZN3nix3sys6signal9sigaction28_$u7b$$u7b$closure$u7d$$u7d$17h6fd03e4c817855eeE
FUNC 1f330 d 0 _ZN3nix3sys6signal7SaFlags4bits17hb442a8ba4a4aa1beE
FUNC 1f340 1f 0 _ZN67_$LT$nix..sys..signal..SaFlags$u20$as$u20$core..ops..bit..BitOr$GT$5bitor17hccc8018f623a8adbE
FUNC 1f360 24 0 _ZN67_$LT$nix..sys..signal..SaFlags$u20$as$u20$core..ops..arith..Sub$GT$3sub17h9d4cc606ed8c244dE
FUNC 1f390 18e 0 _ZN47_$LT$nix..Error$u20$as$u20$core..fmt..Debug$GT$3fmt17hfc499bf2bc0b6541E
FUNC 1f520 2f 0 _ZN101_$LT$core..ptr..NonNull$LT$T$GT$$u20$as$u20$core..convert..From$LT$core..ptr..Unique$LT$T$GT$$GT$$GT$4from17h105113991c2d7d28E
FUNC 1f550 1b 0 _ZN101_$LT$core..ptr..NonNull$LT$T$GT$$u20$as$u20$core..convert..From$LT$core..ptr..Unique$LT$T$GT$$GT$$GT$4from17h9d28d92beab41fd9E
FUNC 1f570 1b 0 _ZN101_$LT$core..ptr..Unique$LT$T$GT$$u20$as$u20$core..convert..From$LT$core..ptr..NonNull$LT$T$GT$$GT$$GT$4from17h3fdd60c3f34c9a6fE
FUNC 1f590 b 0 _ZN35_$LT$core..ptr..Unique$LT$T$GT$$GT$6as_ptr17h61cd107d17da3222E
FUNC 1f5a0 1b 0 _ZN35_$LT$core..ptr..Unique$LT$T$GT$$GT$6as_ptr17hcf8f8aea6b558f18E
FUNC 1f5c0 25 0 _ZN36_$LT$core..ptr..NonNull$LT$T$GT$$GT$13new_unchecked17h97c1b9402d487b50E
FUNC 1f5f0 56 0 _ZN36_$LT$core..ptr..NonNull$LT$T$GT$$GT$3new17h159fd089b8169ecbE
FUNC 1f650 2f 0 _ZN36_$LT$core..ptr..NonNull$LT$T$GT$$GT$4cast17hd536c0c1f786dfceE
FUNC 1f680 b 0 _ZN36_$LT$core..ptr..NonNull$LT$T$GT$$GT$6as_ptr17h4464a2e3ca780b34E
FUNC 1f690 1b 0 _ZN36_$LT$core..ptr..NonNull$LT$T$GT$$GT$6as_ptr17h52a05d392a5feddfE
FUNC 1f6b0 25 0 _ZN4core3num12NonZeroUsize13new_unchecked17h9e79dce45fc112deE
FUNC 1f6e0 b 0 _ZN4core3num12NonZeroUsize3get17he7fe0a4dce457662E
FUNC 1f6f0 58 0 _ZN4core3ptr19swap_nonoverlapping17h50a28eccc96cf363E
FUNC 1f750 cd 0 _ZN4core3ptr23swap_nonoverlapping_one17h80a2229b8d787cf2E
FUNC 1f820 1da 0 _ZN4core3ptr25swap_nonoverlapping_bytes17hb62bf7c9585f53ebE
FUNC 1fa00 2f 0 _ZN4core3ptr31_$LT$impl$u20$$BP$mut$u20$T$GT$15wrapping_offset17hc0e7dfa12710f7a2E
FUNC 1fa30 2f 0 _ZN4core3ptr31_$LT$impl$u20$$BP$mut$u20$T$GT$6offset17h8595898c5c6f4febE
FUNC 1fa60 36 0 _ZN4core3ptr31_$LT$impl$u20$$BP$mut$u20$T$GT$7is_null17ha6cd4b09533fd83dE
FUNC 1faa0 2f 0 _ZN4core3ptr33_$LT$impl$u20$$BP$const$u20$T$GT$6offset17h80f3a65ee7bbce09E
FUNC 1fad0 3 0 _ZN4core3ptr4null17h3a21eceda47c7fbdE
FUNC 1fae0 3b 0 _ZN4core3ptr4read17hb5e1778de57f9934E
FUNC 1fb20 2c 0 _ZN4core3ptr5write17ha1de3c374ce11b5dE
FUNC 1fb50 3 0 _ZN4core3ptr8null_mut17h1516288c64603358E
FUNC 1fb60 36 0 _ZN50_$LT$T$u20$as$u20$core..convert..Into$LT$U$GT$$GT$4into17h018200c6c0a4f3f4E
FUNC 1fba0 22 0 _ZN50_$LT$T$u20$as$u20$core..convert..Into$LT$U$GT$$GT$4into17h7c367239841d4cffE
FUNC 1fbd0 3e 0 _ZN59_$LT$alloc..alloc..Global$u20$as$u20$core..alloc..Alloc$GT$7dealloc17h06a996b2984b6435E
FUNC 1fc10 90 0 _ZN5alloc5alloc15exchange_malloc17h94ed7fbaf6948d0dE
FUNC 1fca0 48 0 _ZN5alloc5alloc5alloc17hf00b1c16f79c5d38E
FUNC 1fcf0 57 0 _ZN5alloc5alloc7dealloc17h1c38da2686d46dd6E
FUNC 1fd50 82 0 _ZN5alloc5alloc8box_free17h39ec43cb13e3ef08E
FUNC 1fde0 12 0 _ZN3nix5errno5errno17h288ae685deaeacb7E
FUNC 1fe00 6 0 _ZN49_$LT$i32$u20$as$u20$nix..errno..ErrnoSentinel$GT$8sentinel17h6cbe43b70b396c3cE
FUNC 1fe10 1b 0 _ZN3nix5errno4last17h638b6b3809814942E
FUNC 1fe30 10 0 _ZN3nix5errno14errno_location17hea16eeecc9cf931cE
FUNC 1fe40 1f 0 _ZN33_$LT$alloc..vec..Vec$LT$T$GT$$GT$7set_len17he53b65b3cb864c25E
FUNC 1fe60 43 0 _ZN4core5slice14from_raw_parts17h8b213afa35a03e7fE
FUNC 1feb0 43 0 _ZN4core5slice18from_raw_parts_mut17hc2a128ce4cb12c3eE
FUNC 1ff00 19 0 _ZN4core5slice29_$LT$impl$u20$$u5b$T$u5d$$GT$10as_mut_ptr17h1ce2de543fe58225E
FUNC 1ff20 2a 0 _ZN4core5slice29_$LT$impl$u20$$u5b$T$u5d$$GT$3len17h32b50283a1c39f7fE
FUNC 1ff50 19 0 _ZN4core5slice29_$LT$impl$u20$$u5b$T$u5d$$GT$6as_ptr17hdac406c2c41e276bE
FUNC 1ff70 3e 0 _ZN4core5slice74_$LT$impl$u20$core..ops..index..Index$LT$I$GT$$u20$for$u20$$u5b$T$u5d$$GT$5index17h549e660f7c079b25E
FUNC 1ffb0 34 0 _ZN4core5slice77_$LT$impl$u20$core..ops..index..IndexMut$LT$I$GT$$u20$for$u20$$u5b$T$u5d$$GT$9index_mut17h57dbed9feb469c55E
FUNC 1fff0 24 0 _ZN66_$LT$alloc..vec..Vec$LT$T$GT$$u20$as$u20$core..ops..drop..Drop$GT$4drop17ha84fefe6f2a1c638E
FUNC 20020 50 0 _ZN68_$LT$alloc..vec..Vec$LT$T$GT$$u20$as$u20$core..ops..deref..Deref$GT$5deref17hbee87bec1a8b09c7E
FUNC 20070 50 0 _ZN71_$LT$alloc..vec..Vec$LT$T$GT$$u20$as$u20$core..ops..deref..DerefMut$GT$9deref_mut17hcb2c0945d6f9e72dE
FUNC 200c0 81 0 _ZN80_$LT$alloc..vec..Vec$LT$T$GT$$u20$as$u20$core..ops..index..IndexMut$LT$I$GT$$GT$9index_mut17hdb3a53dcc7f5441bE
FUNC 20150 1e 0 <name omitted>
FUNC 20170 17 0 <name omitted>
FUNC 20190 7 0 <name omitted>
FUNC 201a0 1d 0 <name omitted>
FUNC 201c0 1bf 0 _ZN78_$LT$std..sys..unix..fs..ReadDir$u20$as$u20$core..iter..iterator..Iterator$GT$4next17h961b070b00c1c83bE
FUNC 20380 8 0 _ZN65_$LT$std..sys..unix..fs..Dir$u20$as$u20$core..ops..drop..Drop$GT$4drop17hb637639ab8951dcaE
FUNC 20390 f4 0 _ZN3std3sys4unix2fs4File4open17hda4c19dab21582f6E
FUNC 20490 2eb 0 _ZN3std3sys4unix2fs4File6open_c17he6c9d2ef5dcdd61aE
FUNC 20780 1a6 0 _ZN3std3sys4unix2fs7readdir17hb3d7c3e76e0cdf3cE
FUNC 20930 9d 0 _ZN33_$LT$alloc..vec..Vec$LT$T$GT$$GT$16into_boxed_slice17h0e8c393a0fd7ba14E
FUNC 209d0 51 0 <name omitted>
FUNC 20a30 65 0 <name omitted>
FUNC 20aa0 1 0 _ZN4core3ptr13drop_in_place17h3ac544e89b5c2b75E
FUNC 20ab0 18 0 <name omitted>
FUNC 20ad0 17 0 _ZN4core3ptr13drop_in_place17h62cb9fa2a5022317E
FUNC 20af0 73 0 <name omitted>
FUNC 20b70 20 0 _ZN4core3ptr13drop_in_place17hd0d22d944ce62ceeE
FUNC 20b90 56 0 <name omitted>
FUNC 20bf0 17 0 _ZN4core3ptr13drop_in_place17hdf202be98e12fd9cE
FUNC 20c10 75 0 _ZN53_$LT$$RF$$u27$a$u20$T$u20$as$u20$core..fmt..Debug$GT$3fmt17hc25c43ce4536c2d1E
FUNC 20c90 f 0 _ZN5alloc5alloc8box_free17h2b94fb1dc019fe63E
FUNC 20ca0 16 0 _ZN5alloc5alloc8box_free17h2cd9ddd8ed440c5dE
FUNC 20cc0 16 0 _ZN5alloc5alloc8box_free17h86190e9a836215c0E
FUNC 20ce0 f 0 _ZN5alloc5alloc8box_free17hac697b9db4199dd8E
FUNC 20cf0 d5 0 _ZN98_$LT$alloc..vec..Vec$LT$T$GT$$u20$as$u20$core..convert..From$LT$$RF$$u27$a$u20$$u5b$T$u5d$$GT$$GT$4from17hec718b9b3c77cc36E
FUNC 20dd0 67 0 _ZN3std2io5impls69_$LT$impl$u20$std..io..Write$u20$for$u20$$RF$$u27$a$u20$mut$u20$W$GT$5write17h4424dcf9ff36e62fE
FUNC 20e40 7 0 _ZN3std2io5impls69_$LT$impl$u20$std..io..Write$u20$for$u20$$RF$$u27$a$u20$mut$u20$W$GT$5flush17h8593f7e03d01e73aE
FUNC 20e50 11 0 _ZN3std2io5impls69_$LT$impl$u20$std..io..Write$u20$for$u20$$RF$$u27$a$u20$mut$u20$W$GT$9write_all17h5c8ea4213a3a11f6E
FUNC 20e70 35 0 _ZN3std2io5impls69_$LT$impl$u20$std..io..Write$u20$for$u20$$RF$$u27$a$u20$mut$u20$W$GT$9write_fmt17hb74566380e2033c3E
FUNC 20eb0 338 0 _ZN3std9panicking12default_hook17h0900ca64d90a7435E
FUNC 211f0 1fa 0 _ZN3std9panicking12default_hook28_$u7b$$u7b$closure$u7d$$u7d$17h9473310f6dfe171bE
FUNC 213f0 53 0 _ZN3std9panicking18update_panic_count17hddb6e1752c0807a7E
FUNC 21450 17 0 _ZN3std9panicking3try7do_call17hf3ed35c55df52b1cE
FUNC 21470 50 0 _ZN3std9panicking9panicking17hb2a88596e3a7c0deE
FUNC 214c0 8 0 rust_begin_unwind
FUNC 214d0 60 0 _ZN3std9panicking15begin_panic_fmt17h4e0336ae5201e4eeE
FUNC 21530 b3 0 _ZN3std9panicking18continue_panic_fmt17h266d21e74d67b706E
FUNC 215f0 fe 0 _ZN103_$LT$std..panicking..continue_panic_fmt..PanicPayload$LT$$u27$a$GT$$u20$as$u20$core..panic..BoxMeUp$GT$9box_me_up17h2f598b10941d511fE
FUNC 216f0 a4 0 _ZN103_$LT$std..panicking..continue_panic_fmt..PanicPayload$LT$$u27$a$GT$$u20$as$u20$core..panic..BoxMeUp$GT$3get17hbee37ac50515ad7dE
FUNC 217a0 29 0 _ZN3std9panicking11begin_panic17hf0abeecdad926ea0E
FUNC 217d0 60 0 _ZN91_$LT$std..panicking..begin_panic..PanicPayload$LT$A$GT$$u20$as$u20$core..panic..BoxMeUp$GT$9box_me_up17hdef525dfcc556cd1E
FUNC 21830 22 0 _ZN91_$LT$std..panicking..begin_panic..PanicPayload$LT$A$GT$$u20$as$u20$core..panic..BoxMeUp$GT$3get17h6a197779039bb294E
FUNC 21860 216 0 _ZN3std9panicking20rust_panic_with_hook17h3c8b159e8ee10628E
FUNC 21a80 7b 0 rust_panic
FUNC 21b00 426 0 _ZN3std3sys4unix6thread6Thread3new17h9ce2c834addb8fd4E
FUNC 21f30 a 0 _ZN3std3sys4unix6thread6Thread3new12thread_start17hf3ef36013f37e61bE
FUNC 21f40 16 0 _ZN3std3sys4unix6thread6Thread8set_name17hc4e1137a9d291cbbE
FUNC 21f60 129 0 _ZN3std3sys4unix6thread6Thread5sleep17hca10fb7f4b25364dE
FUNC 22090 97 0 _ZN3std3sys4unix6thread6Thread4join17hfc29ea591a18f384E
FUNC 22130 8 0 _ZN72_$LT$std..sys..unix..thread..Thread$u20$as$u20$core..ops..drop..Drop$GT$4drop17h4ac68f60da546355E
FUNC 22140 a 0 _ZN3std9panicking12LOCAL_STDERR6__init17hddd0e18c6f4971c7E
FUNC 22150 78 0 _ZN3std9panicking12LOCAL_STDERR7__getit17h80d6914a5656fb23E
FUNC 221d0 3 0 _ZN3std9panicking18update_panic_count11PANIC_COUNT6__init17hb660b9ade2e554ecE
FUNC 221e0 16 0 _ZN3std9panicking18update_panic_count11PANIC_COUNT7__getit17h2b7e0ae71c7997d3E
FUNC 22210 17 0 _ZN4core3ptr13drop_in_place17h21eb23d05ce64cf6E
FUNC 22230 1 0 _ZN4core3ptr13drop_in_place17h297088333d18650aE
FUNC 22240 46 0 <name omitted>
FUNC 22290 1f 0 _ZN4core3ptr13drop_in_place17h5ce3d69da3cf59a3E
FUNC 222b0 17 0 _ZN4core3ptr13drop_in_place17h62cb9fa2a5022317E
FUNC 222d0 8 0 <name omitted>
FUNC 222e0 59 0 <name omitted>
FUNC 22340 82 0 _ZN50_$LT$F$u20$as$u20$alloc..boxed..FnBox$LT$A$GT$$GT$8call_box17haeb3530a20158988E
FUNC 223d0 10 0 _ZN53_$LT$$RF$$u27$a$u20$T$u20$as$u20$core..fmt..Debug$GT$3fmt17hb3460cba4905dd57E
FUNC 223e0 f 0 _ZN5alloc5alloc8box_free17h0be82c4d055d1554E
FUNC 223f0 16 0 _ZN5alloc5alloc8box_free17h2cd9ddd8ed440c5dE
FUNC 22410 f 0 <name omitted>
FUNC 22420 3 0 _ZN3std5error5Error5cause17hee84ad8cd1888de1E
FUNC 22430 b 0 _ZN3std5error5Error7type_id17h3996ae3f884c1277E
FUNC 22440 8 0 _ZN297_$LT$std..error..$LT$impl$u20$core..convert..From$LT$alloc..string..String$GT$$u20$for$u20$alloc..boxed..Box$LT$$LP$dyn$u20$std..error..Error$u20$$u2b$$u20$core..marker..Send$u20$$u2b$$u20$core..marker..Sync$u20$$u2b$$u20$$u27$static$RP$$GT$$GT$..from..StringError$u20$as$u20$std..error..Error$GT$11description17hdedb354b7227514aE
FUNC 22450 15 0 _ZN298_$LT$std..error..$LT$impl$u20$core..convert..From$LT$alloc..string..String$GT$$u20$for$u20$alloc..boxed..Box$LT$$LP$dyn$u20$std..error..Error$u20$$u2b$$u20$core..marker..Send$u20$$u2b$$u20$core..marker..Sync$u20$$u2b$$u20$$u27$static$RP$$GT$$GT$..from..StringError$u20$as$u20$core..fmt..Display$GT$3fmt17hd9aedc45e121930eE
FUNC 22470 6e 0 _ZN3std5error160_$LT$impl$u20$core..convert..From$LT$$RF$$u27$a$u20$str$GT$$u20$for$u20$alloc..boxed..Box$LT$$LP$dyn$u20$std..error..Error$u20$$u2b$$u20$$u27$static$RP$$GT$$GT$4from17ha3d518e38d090c7dE
FUNC 224e0 64 0 <name omitted>
FUNC 22550 1e 0 _ZN3std2fs11OpenOptions3new17h3958d7b52a100ac1E
FUNC 22570 8 0 _ZN3std2fs11OpenOptions4read17hb8742f614e5ef11cE
FUNC 22580 55 0 _ZN3std2fs11OpenOptions5_open17h60f36446bd8bc060E
FUNC 225e0 a0 0 _ZN67_$LT$std..fs..ReadDir$u20$as$u20$core..iter..iterator..Iterator$GT$4next17ha380f50b0123223fE
FUNC 22680 45 0 _ZN3std2fs8DirEntry9file_name17hf4b7df607b81e48fE
FUNC 226d0 d3 0 _ZN37_$LT$std..io..lazy..Lazy$LT$T$GT$$GT$3get17hfa68d10d5b87ded4E
FUNC 227b0 113 0 _ZN3std10sys_common6thread12start_thread17h3acda9c82bdde7f1E
FUNC 228d0 1a9 0 _ZN3std10sys_common6thread9min_stack17h6a164b095ad92107E
FUNC 22a80 68 0 _ZN3std5alloc24default_alloc_error_hook17ha7bc80569e37a080E
FUNC 22af0 1f 0 rust_oom
FUNC 22b10 263 0 _ZN3std2rt19lang_start_internal17hf71fda63f858a2beE
FUNC 22d80 4c 0 _ZN296_$LT$std..error..$LT$impl$u20$core..convert..From$LT$alloc..string..String$GT$$u20$for$u20$alloc..boxed..Box$LT$$LP$dyn$u20$std..error..Error$u20$$u2b$$u20$core..marker..Send$u20$$u2b$$u20$core..marker..Sync$u20$$u2b$$u20$$u27$static$RP$$GT$$GT$..from..StringError$u20$as$u20$core..fmt..Debug$GT$3fmt17hbf90711d77ab9063E
FUNC 22de0 17 0 <name omitted>
FUNC 22e00 23 0 _ZN4core3str6traits101_$LT$impl$u20$core..slice..SliceIndex$LT$str$GT$$u20$for$u20$core..ops..range..Range$LT$usize$GT$$GT$5index28_$u7b$$u7b$closure$u7d$$u7d$17haff0ab2845af70ccE
FUNC 22e30 1a 0 _ZN4core3str6traits103_$LT$impl$u20$core..slice..SliceIndex$LT$str$GT$$u20$for$u20$core..ops..range..RangeTo$LT$usize$GT$$GT$5index28_$u7b$$u7b$closure$u7d$$u7d$17hca976427d18a4048E
FUNC 22e50 1cb 0 _ZN4core3str7pattern14TwoWaySearcher9next_back17h79ed4ec10e0cd74bE
FUNC 23020 29a 0 _ZN56_$LT$core..str..SplitInternal$LT$$u27$a$C$$u20$P$GT$$GT$9next_back17h846684cce44b9cadE
FUNC 232c0 f 0 <name omitted>
FUNC 232d0 16 0 <name omitted>
FUNC 232f0 10a3 0 _ZN3std10sys_common9backtrace5print17h329a53789d3fcb87E
FUNC 243a0 3 0 _ZN3std10sys_common9backtrace28__rust_begin_short_backtrace17ha2f3dc23ef45d616E
FUNC 243b0 d1 0 _ZN3std10sys_common9backtrace11log_enabled17hddedec36360f8b4fE
FUNC 24490 23a7 0 _ZN3std10sys_common9backtrace6output17h08c44c816718eeb4E
FUNC 26840 5a5 0 _ZN3std10sys_common9backtrace15output_fileline17h5e485771394c8fe4E
FUNC 26df0 4e 0 _ZN4core3fmt3num50_$LT$impl$u20$core..fmt..Debug$u20$for$u20$i32$GT$3fmt17h29d44e8fd331417eE
FUNC 26e40 18 0 <name omitted>
FUNC 26e60 1 0 _ZN4core3ptr13drop_in_place17h7ddea1ab4e5ec96dE
FUNC 26e70 17 0 <name omitted>
FUNC 26e90 113 0 _ZN4core5slice29_$LT$impl$u20$$u5b$T$u5d$$GT$15copy_from_slice17h1635117fff7a6eb5E
FUNC 26fb0 8 0 _ZN53_$LT$$RF$$u27$a$u20$T$u20$as$u20$core..fmt..Debug$GT$3fmt17h4e08c7b3dcc72a48E
FUNC 26fc0 15 0 _ZN58_$LT$alloc..string..String$u20$as$u20$core..fmt..Debug$GT$3fmt17h05b765560556cdbdE
FUNC 26fe0 15 0 _ZN60_$LT$alloc..string..String$u20$as$u20$core..fmt..Display$GT$3fmt17h7d068bcb6ee13292E
FUNC 27000 10a 0 _ZN3std3ffi5c_str104_$LT$impl$u20$core..convert..From$LT$std..ffi..c_str..NulError$GT$$u20$for$u20$std..io..error..Error$GT$4from17hf5f725fe9c7c89b8E
FUNC 27110 5 0 _ZN58_$LT$std..io..error..Error$u20$as$u20$core..fmt..Debug$GT$3fmt17h75148db54f599a50E
FUNC 27120 cf 0 _ZN3std2io5error5Error3new17ha6cabfbabdb729caE
FUNC 271f0 89 0 _ZN3std2io5error5Error4_new17h841e2cf5702eeac6E
FUNC 27280 16 0 _ZN3std2io5error5Error13last_os_error17h507773a48991e6f1E
FUNC 272a0 c 0 _ZN3std2io5error5Error12raw_os_error17h38da4187102f6c83E
FUNC 272b0 1e 0 <name omitted>
FUNC 272d0 1b7 0 _ZN57_$LT$std..io..error..Repr$u20$as$u20$core..fmt..Debug$GT$3fmt17hd711a693c116fb4bE
FUNC 27490 2ac 0 _ZN60_$LT$std..io..error..Error$u20$as$u20$core..fmt..Display$GT$3fmt17hf594b56cbaa79e39E
FUNC 27740 155 0 _ZN62_$LT$std..io..error..ErrorKind$u20$as$u20$core..fmt..Debug$GT$3fmt17he428e93630f6a98aE
FUNC 278a0 211 0 _ZN3std4path10iter_after17h31c49e026c12e004E
FUNC 27ac0 b4 0 _ZN81_$LT$std..path..PrefixComponent$LT$$u27$a$GT$$u20$as$u20$core..cmp..PartialEq$GT$2eq17hc2863c57d8507d86E
FUNC 27b80 26a 0 _ZN3std4path10Components7as_path17hdf354810f90944afE
FUNC 27df0 fa 0 _ZN3std4path10Components15include_cur_dir17hdd4b5225b0ad29cfE
FUNC 27ef0 191 0 _ZN3std4path10Components20parse_next_component17h78eead72f972e047E
FUNC 28090 262 0 _ZN3std4path10Components25parse_next_component_back17h9d192ad54b742278E
FUNC 28300 421 0 _ZN86_$LT$std..path..Components$LT$$u27$a$GT$$u20$as$u20$core..iter..iterator..Iterator$GT$4next17hea8cca12e7f5790cE
FUNC 28730 7 0 _ZN3std4path4Path3new17h2791b3cea4aa96bbE
FUNC 28740 3f 0 _ZN3std4path4Path10components17h815aa877fc2d63e3E
FUNC 28780 7 0 _ZN79_$LT$std..path..Path$u20$as$u20$core..convert..AsRef$LT$std..path..Path$GT$$GT$6as_ref17ha745c153803f1811E
FUNC 287a0 111 0 _ZN4core3fmt5Write10write_char17h6b1b045104c0e560E
FUNC 288c0 111 0 _ZN4core3fmt5Write10write_char17hc3da507c3abae181E
FUNC 289e0 3e 0 <name omitted>
FUNC 28a20 3e 0 <name omitted>
FUNC 28a60 13 0 _ZN4core3ptr13drop_in_place17h01f69269b1b5430eE
FUNC 28a80 1 0 _ZN4core3ptr13drop_in_place17h09231c5fda19b2a4E
FUNC 28a90 73 0 <name omitted>
FUNC 28b10 78 0 <name omitted>
FUNC 28b90 4e 0 _ZN53_$LT$$RF$$u27$a$u20$T$u20$as$u20$core..fmt..Debug$GT$3fmt17h9f3e7600e0cae53dE
FUNC 28be0 4e 0 _ZN53_$LT$$RF$$u27$a$u20$T$u20$as$u20$core..fmt..Debug$GT$3fmt17hb7617d435a810103E
FUNC 28c30 4e 0 _ZN53_$LT$$RF$$u27$a$u20$T$u20$as$u20$core..fmt..Debug$GT$3fmt17he13294790dccf452E
FUNC 28c80 15 0 _ZN55_$LT$$RF$$u27$a$u20$T$u20$as$u20$core..fmt..Display$GT$3fmt17h1aa201f9fe038f3eE
FUNC 28ca0 8 0 _ZN56_$LT$$RF$$u27$a$u20$T$u20$as$u20$core..fmt..UpperHex$GT$3fmt17hae14fce41081dddaE
FUNC 28cb0 f 0 _ZN5alloc5alloc8box_free17h2b94fb1dc019fe63E
FUNC 28cc0 16 0 _ZN5alloc5alloc8box_free17h86190e9a836215c0E
FUNC 28ce0 8 0 _ZN96_$LT$core..fmt..Write..write_fmt..Adapter$LT$$u27$a$C$$u20$T$GT$$u20$as$u20$core..fmt..Write$GT$10write_char17h667ca0aa20d05dc4E
FUNC 28cf0 13c 0 _ZN96_$LT$core..fmt..Write..write_fmt..Adapter$LT$$u27$a$C$$u20$T$GT$$u20$as$u20$core..fmt..Write$GT$10write_char17hbaf3c36ba9c3088aE
FUNC 28e30 8 0 _ZN96_$LT$core..fmt..Write..write_fmt..Adapter$LT$$u27$a$C$$u20$T$GT$$u20$as$u20$core..fmt..Write$GT$10write_char17he0e2fb977b4c41afE
FUNC 28e40 41 0 _ZN96_$LT$core..fmt..Write..write_fmt..Adapter$LT$$u27$a$C$$u20$T$GT$$u20$as$u20$core..fmt..Write$GT$9write_fmt17h3bb99f9b11519215E
FUNC 28e90 41 0 _ZN96_$LT$core..fmt..Write..write_fmt..Adapter$LT$$u27$a$C$$u20$T$GT$$u20$as$u20$core..fmt..Write$GT$9write_fmt17h78adac39541a3b68E
FUNC 28ee0 41 0 _ZN96_$LT$core..fmt..Write..write_fmt..Adapter$LT$$u27$a$C$$u20$T$GT$$u20$as$u20$core..fmt..Write$GT$9write_fmt17hcdf21df7edfeb14dE
FUNC 28f30 61 0 _ZN96_$LT$core..fmt..Write..write_fmt..Adapter$LT$$u27$a$C$$u20$T$GT$$u20$as$u20$core..fmt..Write$GT$9write_str17h08c103ff5810fc31E
FUNC 28fa0 67 0 _ZN96_$LT$core..fmt..Write..write_fmt..Adapter$LT$$u27$a$C$$u20$T$GT$$u20$as$u20$core..fmt..Write$GT$9write_str17h3216645b71bf4642E
FUNC 29010 67 0 _ZN96_$LT$core..fmt..Write..write_fmt..Adapter$LT$$u27$a$C$$u20$T$GT$$u20$as$u20$core..fmt..Write$GT$9write_str17ha8269dadf9e23215E
FUNC 29080 c 0 _ZN70_$LT$std..io..Guard$LT$$u27$a$GT$$u20$as$u20$core..ops..drop..Drop$GT$4drop17h33813b04c07dc8a7E
FUNC 29090 67 0 _ZN94_$LT$std..io..Write..write_fmt..Adaptor$LT$$u27$a$C$$u20$T$GT$$u20$as$u20$core..fmt..Write$GT$9write_str17h17efaba89fbe9cd6E
FUNC 29100 67 0 _ZN94_$LT$std..io..Write..write_fmt..Adaptor$LT$$u27$a$C$$u20$T$GT$$u20$as$u20$core..fmt..Write$GT$9write_str17h58f12cee915e04ccE
FUNC 29170 9f 0 _ZN41_$LT$std..sync..mutex..Mutex$LT$T$GT$$GT$3new17h837ed1a8a74efbb7E
FUNC 29210 62 0 _ZN3std10sys_common11thread_info3set17h62fafedf7adf5a27E
FUNC 29280 13 0 _ZN3std10sys_common11thread_info11THREAD_INFO6__init17he6e7a0e776c98e7cE
FUNC 292a0 78 0 _ZN3std10sys_common11thread_info11THREAD_INFO7__getit17hcd50cabc2a514697E
FUNC 29320 b 0 <name omitted>
FUNC 29330 96 0 <name omitted>
FUNC 293d0 73 0 <name omitted>
FUNC 29450 51 0 <name omitted>
FUNC 294b0 8 0 <name omitted>
FUNC 294c0 10 0 <name omitted>
FUNC 294d0 f 0 _ZN5alloc5alloc8box_free17h2b94fb1dc019fe63E
FUNC 294e0 16 0 _ZN5alloc5alloc8box_free17h86190e9a836215c0E
FUNC 29500 16 0 _ZN5alloc5alloc8box_free17hfc30f279f061ff77E
FUNC 29520 1f2 0 _ZN46_$LT$std..io..buffered..BufWriter$LT$W$GT$$GT$9flush_buf17h93949a5ca88459edE
FUNC 29720 153 0 _ZN72_$LT$std..io..buffered..BufWriter$LT$W$GT$$u20$as$u20$std..io..Write$GT$5write17hc7366fd6b21ce29aE
FUNC 29880 92 0 _ZN79_$LT$std..io..buffered..BufWriter$LT$W$GT$$u20$as$u20$core..ops..drop..Drop$GT$4drop17h8192d7aabf2937efE
FUNC 29920 2c8 0 _ZN73_$LT$std..io..buffered..LineWriter$LT$W$GT$$u20$as$u20$std..io..Write$GT$5write17hceda8a4fc0e24e24E
FUNC 29bf0 16e 0 _ZN3std10sys_common11at_exit_imp7cleanup17h373d18d9f183e4efE
FUNC 29d60 127 0 _ZN3std10sys_common11at_exit_imp4push17h277e9db3c55ad6c8E
FUNC 29e90 91 0 _ZN34_$LT$alloc..sync..Arc$LT$T$GT$$GT$9drop_slow17h29058eac17eaed1aE
FUNC 29f30 56 0 _ZN34_$LT$alloc..sync..Arc$LT$T$GT$$GT$9drop_slow17h54cee049546aa1d5E
FUNC 29f90 86 0 _ZN34_$LT$alloc..sync..Arc$LT$T$GT$$GT$9drop_slow17h7c4cacf88a5e1dafE
FUNC 2a020 b 0 <name omitted>
FUNC 2a030 9 0 <name omitted>
FUNC 2a040 17 0 _ZN4core3ptr13drop_in_place17h62cb9fa2a5022317E
FUNC 2a060 13 0 <name omitted>
FUNC 2a080 18 0 _ZN4core3ptr13drop_in_place17h6f13534c66b6eee6E
FUNC 2a0a0 73 0 <name omitted>
FUNC 2a120 18 0 <name omitted>
FUNC 2a140 56 0 <name omitted>
FUNC 2a1a0 10 0 _ZN4core3ptr13drop_in_place17h93c999618d6bd701E
FUNC 2a1b0 75 0 <name omitted>
FUNC 2a230 1e 0 <name omitted>
FUNC 2a250 10 0 <name omitted>
FUNC 2a260 f 0 _ZN5alloc5alloc8box_free17h2b94fb1dc019fe63E
FUNC 2a270 16 0 _ZN5alloc5alloc8box_free17h86190e9a836215c0E
FUNC 2a290 2a 0 _ZN68_$LT$std..thread..local..AccessError$u20$as$u20$core..fmt..Debug$GT$3fmt17h8b0a996045e8feaaE
FUNC 2a2c0 1a8 0 _ZN46_$LT$std..thread..local..LocalKey$LT$T$GT$$GT$4with17h0a3e674f14296c0aE
FUNC 2a470 191 0 _ZN46_$LT$std..thread..local..LocalKey$LT$T$GT$$GT$4with17h1f6840958de67b4fE
FUNC 2a610 101 0 _ZN46_$LT$std..thread..local..LocalKey$LT$T$GT$$GT$4with17h3ca4be2711531580E
FUNC 2a720 10b 0 _ZN46_$LT$std..thread..local..LocalKey$LT$T$GT$$GT$4with17hdd515014b7591b8fE
FUNC 2a830 22e 0 _ZN46_$LT$std..thread..local..LocalKey$LT$T$GT$$GT$8try_with17h4ea79f3a8c785783E
FUNC 2aa60 20f 0 _ZN46_$LT$std..thread..local..LocalKey$LT$T$GT$$GT$8try_with17h686cd73c32db32c0E
FUNC 2ac70 1a1 0 _ZN3std2io5stdio6stdout11stdout_init17h381333921b838bbeE
FUNC 2ae20 206 0 _ZN57_$LT$std..io..stdio..Stdout$u20$as$u20$std..io..Write$GT$9write_fmt17hfe4b42292dd5f4fdE
FUNC 2b030 4b9 0 _ZN3std2io5stdio6_print17h3fe914eb1e85ffa7E
FUNC 2b4f0 1ef 0 _ZN3std2io5Write9write_all17hc5aa410948819e58E
FUNC 2b6e0 348 0 _ZN3std10sys_common10bytestring20debug_fmt_bytestring17h3d99de3ad89fecd8E
FUNC 2ba30 265 0 _ZN3std3sys4unix7condvar7Condvar4init17ha2d53d6144a1359aE
FUNC 2bca0 45 0 _ZN3std3sys4unix17decode_error_kind17h061f5da470b4709fE
FUNC 2bcf0 95 0 _ZN3std3sys4unix5cvt_r17h07e44f8e2d880b1dE
FUNC 2bd90 8 0 _ZN3std3sys4unix14abort_internal17hc9d6a4c8937bda67E
FUNC 2bda0 b 0 _ZN36_$LT$T$u20$as$u20$core..any..Any$GT$11get_type_id17h981bce83a407c474E
FUNC 2bdb0 13 0 <name omitted>
FUNC 2bdd0 1 0 _ZN4core3ptr13drop_in_place17h1de0fb9a4e796575E
FUNC 2bde0 75 0 <name omitted>
FUNC 2be60 18 0 _ZN4core3ptr13drop_in_place17h31a6148024efb1f5E
FUNC 2be80 18 0 _ZN4core3ptr13drop_in_place17h4205af600cf499a6E
FUNC 2bea0 22 0 _ZN4core3ptr13drop_in_place17h8cee867e3543b8acE
FUNC 2bed0 1f 0 _ZN4core3ptr13drop_in_place17hbd794fb3d0d1242dE
FUNC 2bef0 8 0 <name omitted>
FUNC 2bf00 1f 0 _ZN4core3ptr13drop_in_place17hd93b6d325bb6ab96E
FUNC 2bf20 1a 0 _ZN4core3str6traits103_$LT$impl$u20$core..slice..SliceIndex$LT$str$GT$$u20$for$u20$core..ops..range..RangeTo$LT$usize$GT$$GT$5index28_$u7b$$u7b$closure$u7d$$u7d$17hca976427d18a4048E
FUNC 2bf40 23 0 _ZN4core3str6traits105_$LT$impl$u20$core..slice..SliceIndex$LT$str$GT$$u20$for$u20$core..ops..range..RangeFrom$LT$usize$GT$$GT$5index28_$u7b$$u7b$closure$u7d$$u7d$17h73feb80fdbae5163E
FUNC 2bf70 88 0 _ZN4core6result13unwrap_failed17h149107a2ae6a5180E
FUNC 2c000 88 0 _ZN4core6result13unwrap_failed17h1d6e307d9e44431aE
FUNC 2c090 85 0 _ZN4core6result13unwrap_failed17h1eb3605e64adbb6bE
FUNC 2c120 b2 0 _ZN4core6result13unwrap_failed17h3fde888169a4a4d5E
FUNC 2c1e0 a0 0 _ZN4core6result13unwrap_failed17h43823b81383a459fE
FUNC 2c280 88 0 _ZN4core6result13unwrap_failed17hc455da29629981f0E
FUNC 2c310 8e 0 _ZN4core6result13unwrap_failed17hf11ebf823405b501E
FUNC 2c3a0 15 0 _ZN53_$LT$$RF$$u27$a$u20$T$u20$as$u20$core..fmt..Debug$GT$3fmt17hfc1a5733681786c9E
FUNC 2c3c0 f 0 _ZN5alloc5alloc8box_free17h2b94fb1dc019fe63E
FUNC 2c3d0 16 0 _ZN5alloc5alloc8box_free17h86190e9a836215c0E
FUNC 2c3f0 13 0 _ZN3std6thread7Builder3new17h4f5cacb2d96f6427E
FUNC 2c410 5 0 _ZN3std6thread5sleep17h3e96316e7ceccaa2E
FUNC 2c420 2a7 0 _ZN3std6thread4park17h723d007d30a7c2daE
FUNC 2c6d0 218 0 _ZN3std6thread6Thread3new17hd46849f8ee262f48E
FUNC 2c8f0 221 0 _ZN3std6thread6Thread6unpark17h0ce3dd534973d1b1E
FUNC 2cb20 1f 0 _ZN3std6thread6Thread5cname17h59c6dad0fc04ef21E
FUNC 2cb40 8 0 _ZN69_$LT$std..sync..condvar..Condvar$u20$as$u20$core..ops..drop..Drop$GT$4drop17h9edd636a14272b5aE
FUNC 2cb50 17 0 _ZN82_$LT$std..sys_common..poison..PoisonError$LT$T$GT$$u20$as$u20$core..fmt..Debug$GT$3fmt17h1c395d681ef2f562E
FUNC 2cb70 503 0 _ZN3std10sys_common3gnu12libbacktrace23foreach_symbol_fileline17h5d646b03802a372aE
FUNC 2d080 204 0 _ZN3std10sys_common3gnu12libbacktrace15resolve_symname17h62de047683f59a29E
FUNC 2d290 622 0 _ZN3std10sys_common3gnu12libbacktrace15resolve_symname17h69b9a482f89e364bE
FUNC 2d8c0 1 0 _ZN3std10sys_common3gnu12libbacktrace8error_cb17he4030b159262139dE
FUNC 2d8d0 4 0 _ZN3std10sys_common3gnu12libbacktrace10syminfo_cb17h0aaca7a5135806a0E
FUNC 2d8e0 29 0 _ZN3std10sys_common3gnu12libbacktrace9pcinfo_cb17h376d9dd16765373bE
FUNC 2d910 1 0 _ZN4core3ptr13drop_in_place17h6e9d0634b89a2b2cE
FUNC 2d920 3 0 _ZN3std5error5Error5cause17h222cab34677a274bE
FUNC 2d930 b 0 _ZN3std5error5Error7type_id17h4d1644c7789c26e1E
FUNC 2d940 cc 0 _ZN3std3sys4unix4weak5fetch17h8f5e5246f1898adcE
FUNC 2da10 d 0 _ZN90_$LT$std..sys..unix..backtrace..tracing..imp..UnwindError$u20$as$u20$std..error..Error$GT$11description17hd98b93537263e195E
FUNC 2da20 92 0 _ZN91_$LT$std..sys..unix..backtrace..tracing..imp..UnwindError$u20$as$u20$core..fmt..Display$GT$3fmt17h9d91afd7af7e1dcaE
FUNC 2dac0 125 0 _ZN3std3sys4unix9backtrace7tracing3imp16unwind_backtrace17ha47dfa322c35d949E
FUNC 2dbf0 76 0 _ZN3std3sys4unix9backtrace7tracing3imp8trace_fn17ha58ce71f2ac0bfc3E
FUNC 2dc70 2e1 0 _ZN3std3sys4unix6thread5guard4init17hc2d2caf12680db49E
FUNC 2df60 336 0 _ZN3std3sys4unix6thread5guard7current17h438fda832e4b08aaE
FUNC 2e2a0 4c 0 _ZN89_$LT$std..sys..unix..backtrace..tracing..imp..UnwindError$u20$as$u20$core..fmt..Debug$GT$3fmt17h7e899e1de78dba81E
FUNC 2e2f0 b 0 _ZN36_$LT$T$u20$as$u20$core..any..Any$GT$11get_type_id17h63ca26ca60a9ec70E
FUNC 2e300 b 0 _ZN36_$LT$T$u20$as$u20$core..any..Any$GT$11get_type_id17h876b7214240c0d07E
FUNC 2e310 b 0 _ZN36_$LT$T$u20$as$u20$core..any..Any$GT$11get_type_id17hdcc4a745b9707c5aE
FUNC 2e320 91 0 _ZN4core3ops8function6FnOnce9call_once17h8453d3c1d7908ef8E
FUNC 2e3c0 13 0 <name omitted>
FUNC 2e3e0 1 0 _ZN4core3ptr13drop_in_place17h0f644b067787f4d5E
FUNC 2e3f0 17 0 _ZN4core3ptr13drop_in_place17h28b2abeb59c36f74E
FUNC 2e410 18 0 <name omitted>
FUNC 2e430 18 0 <name omitted>
FUNC 2e450 5 0 <name omitted>
FUNC 2e460 3e 0 <name omitted>
FUNC 2e4a0 23 0 _ZN4core3str6traits105_$LT$impl$u20$core..slice..SliceIndex$LT$str$GT$$u20$for$u20$core..ops..range..RangeFrom$LT$usize$GT$$GT$5index28_$u7b$$u7b$closure$u7d$$u7d$17h73feb80fdbae5163E
FUNC 2e4d0 8 0 _ZN53_$LT$$RF$$u27$a$u20$T$u20$as$u20$core..fmt..Debug$GT$3fmt17h3d47f4d9ed071935E
FUNC 2e4e0 15 0 _ZN53_$LT$$RF$$u27$a$u20$T$u20$as$u20$core..fmt..Debug$GT$3fmt17h48c55a4446f096caE
FUNC 2e500 8 0 _ZN55_$LT$$RF$$u27$a$u20$T$u20$as$u20$core..fmt..Display$GT$3fmt17h7dbc1ebb9b7e9ea3E
FUNC 2e510 f 0 _ZN5alloc5alloc8box_free17h2b94fb1dc019fe63E
FUNC 2e520 16 0 _ZN5alloc5alloc8box_free17h86190e9a836215c0E
FUNC 2e540 b8 0 _ZN3std3ffi5c_str7CString18from_vec_unchecked17hebe72aa27f817222E
FUNC 2e600 138 0 _ZN3std3ffi6os_str8OsString11into_string17h538137d20da975afE
FUNC 2e740 15 0 _ZN63_$LT$std..ffi..os_str..OsString$u20$as$u20$core..fmt..Debug$GT$3fmt17hb6a20d6c5a99424aE
FUNC 2e760 d5 0 _ZN3std3ffi6os_str5OsStr12to_os_string17hdaec55c48aae6244E
FUNC 2e840 94 0 _ZN3std4sync4once4Once9call_once28_$u7b$$u7b$closure$u7d$$u7d$17h1fded3e58d6b48f4E
FUNC 2e8e0 1db 0 _ZN3std4sync4once4Once10call_inner17h516ee891fa53427eE
FUNC 2eac0 140 0 _ZN79_$LT$std..sync..once..Finish$LT$$u27$a$GT$$u20$as$u20$core..ops..drop..Drop$GT$4drop17hb2abfd420f250fcbE
FUNC 2ec00 156 0 _ZN3std10sys_common12thread_local9StaticKey9lazy_init17h01ac021b0e1ce71eE
FUNC 2ed60 e6 0 _ZN3std10sys_common12thread_local22register_dtor_fallback17h214a96685f5619a9E
FUNC 2ee50 14e 0 _ZN3std10sys_common12thread_local22register_dtor_fallback9run_dtors17hcd282bcd558b9648E
FUNC 2efa0 a3 0 _ZN3std10sys_common4util10dumb_print17hb229fc0bebfd8ac3E
FUNC 2f050 63 0 _ZN3std10sys_common4util5abort17h01c8285aab6a63d0E
FUNC 2f0c0 12f 0 _ZN3std10sys_common4util15report_overflow17h331a2a47497b75d4E
FUNC 2f1f0 69 0 _ZN62_$LT$std..ffi..c_str..NulError$u20$as$u20$core..fmt..Debug$GT$3fmt17h340d2a637443eefbE
FUNC 2f260 4e7 0 _ZN3std3sys4unix9backtrace8printing6dladdr15resolve_symname17h3521f9dbd6d759a1E
FUNC 2f750 cc 0 _ZN3std3sys4unix9backtrace8printing6dladdr15resolve_symname17hf0265ce6e7ac7aadE
FUNC 2f820 7 0 _ZN70_$LT$std..sys..unix..fd..FileDesc$u20$as$u20$core..ops..drop..Drop$GT$4drop17h212fecb7da7eb3eaE
FUNC 2f830 8c 0 _ZN49_$LT$alloc..raw_vec..RawVec$LT$T$C$$u20$A$GT$$GT$16reserve_internal17h1e437b246e932530E
FUNC 2f8c0 8d 0 _ZN49_$LT$alloc..raw_vec..RawVec$LT$T$C$$u20$A$GT$$GT$7reserve17h74ee66d0ee031a6cE
FUNC 2f970 1f 0 _ZN4core3ptr13drop_in_place17h068312c558701e31E
FUNC 2f990 1 0 _ZN4core3ptr13drop_in_place17h173c22079734bdfbE
FUNC 2f9a0 10 0 _ZN4core3ptr13drop_in_place17h3b5a706a9e151f81E
FUNC 2f9b0 17 0 _ZN4core3ptr13drop_in_place17h62cb9fa2a5022317E
FUNC 2f9d0 73 0 <name omitted>
FUNC 2fa50 1d 0 <name omitted>
FUNC 2fa70 8 0 <name omitted>
FUNC 2fa80 10 0 <name omitted>
FUNC 2fa90 f 0 _ZN5alloc5alloc8box_free17h2b94fb1dc019fe63E
FUNC 2faa0 16 0 _ZN5alloc5alloc8box_free17h86190e9a836215c0E
FUNC 2fac0 63 0 _ZN3std6thread5local4fast13destroy_value17h293b2d673a5e96ecE
FUNC 2fb30 22 0 _ZN3std6thread5local4fast13destroy_value17ha3a35cfffba7e485E
FUNC 2fb60 22d 0 _ZN3std3env11current_dir17h8f8e5c3327fa07d6E
FUNC 2fd90 310 0 _ZN3std3env7_var_os17h2754ea265d739e36E
FUNC 300a0 1c3 0 _ZN3std2io5Write9write_all17h182d8e4fcb4216f8E
FUNC 30270 109 0 _ZN3std2io5Write9write_fmt17h1683fc34e765bb57E
FUNC 30380 5 0 _ZN3std7process2id17he8c9d52f5f9ca2a8E
FUNC 30390 ee 0 _ZN3std3sys4unix2os12error_string17h57ab21344d24bdf5E
FUNC 30480 d4 0 _ZN3std3sys4unix14stack_overflow3imp14signal_handler17h71800aa3fd1a5023E
FUNC 30560 117 0 _ZN3std3sys4unix14stack_overflow3imp4init17h5002543d23cb8990E
FUNC 3bdd0 80 0 __rust_maybe_catch_panic
FUNC 3be50 99 0 __rust_start_panic
FUNC 3bef0 8 0 _ZN4core3ops8function6FnOnce9call_once17h73048989177df85eE
FUNC 3bf00 8 0 _ZN4core3ops8function6FnOnce9call_once17h819bdf4edf128b3fE
FUNC 3bf10 1 0 _ZN4core3ptr13drop_in_place17h457b1dd260c1aba2E
FUNC 3bf20 56 0 <name omitted>
FUNC 3bf80 f 0 <name omitted>
FUNC 3bf90 16 0 _ZN5alloc5alloc8box_free17h83d3d252791fcaceE
FUNC 3bfb0 6b 0 _ZN12panic_unwind3imp5panic17exception_cleanup17h6d6c5a2f1cbb29c3E
FUNC 3c020 128 0 rust_eh_personality
FUNC 3c150 b 0 _ZN12panic_unwind3imp14find_eh_action28_$u7b$$u7b$closure$u7d$$u7d$17h9ec944106b3372a3E
FUNC 3c160 b 0 _ZN12panic_unwind3imp14find_eh_action28_$u7b$$u7b$closure$u7d$$u7d$17h40607cf95fd756d2E
FUNC 3c170 18d 0 _ZN12panic_unwind5dwarf2eh14find_eh_action17h21592cc8a3867532E
FUNC 3c300 177 0 _ZN12panic_unwind5dwarf2eh20read_encoded_pointer17hb0c06e3e8afbf547E
FUNC 3c480 2d 0 __rde_alloc
FUNC 3c4b0 2d 0 __rde_dealloc
FUNC 3c4e0 36 0 __rde_realloc
FUNC 3c520 33 0 __rde_alloc_zeroed
FUNC 3c560 8 0 je_a0get
FUNC 3c570 c 0 <name omitted>
FUNC 3c580 274 0 a0ialloc
FUNC 3c800 a 0 <name omitted>
FUNC 3c810 120 0 <name omitted>
FUNC 3c930 b 0 je_narenas_total_get
FUNC 3c940 92 0 je_arena_init
FUNC 3c9e0 65 0 je_arena_migrate
FUNC 3ca50 1e3 0 je_arena_tdata_get_hard
FUNC 3cc40 6c2 0 je_arena_choose_hard
FUNC 3d310 1 0 je_thread_allocated_cleanup
FUNC 3d320 1 0 je_thread_deallocated_cleanup
FUNC 3d330 3d 0 je_iarena_cleanup
FUNC 3d370 3a 0 je_arena_cleanup
FUNC 3d3b0 23 0 je_arenas_tdata_cleanup
FUNC 3d3e0 1 0 je_narenas_tdata_cleanup
FUNC 3d3f0 1 0 je_arenas_tdata_bypass_cleanup
FUNC 3d400 c6a 0 malloc
FUNC 3e070 a 0 posix_memalign
FUNC 3e080 769 0 imemalign
FUNC 3e7f0 49 0 aligned_alloc
FUNC 3e840 c71 0 calloc
FUNC 3f4c0 fbc 0 realloc
FUNC 40480 5fe 0 ifree
FUNC 40a80 bd 0 free
FUNC 40b40 38 0 memalign
FUNC 40b80 37 0 valloc
FUNC 40bc0 1eac 0 mallocx
FUNC 42a70 c15 0 rallocx
FUNC 43690 482 0 sdallocx
FUNC 43b20 3cf 0 isfree
FUNC 43ef0 478 0 mallctl
FUNC 44370 455 0 mallctlnametomib
FUNC 447d0 47f 0 mallctlbymib
FUNC 44c50 a5 0 malloc_stats_print
FUNC 44d00 224 0 malloc_usable_size
FUNC 44f30 363 0 jemalloc_constructor
FUNC 452a0 28a 0 je_jemalloc_prefork
FUNC 45530 149 0 je_jemalloc_postfork_parent
FUNC 45680 149 0 je_jemalloc_postfork_child
FUNC 457d0 f44 0 malloc_init_hard_a0_locked
FUNC 46720 17e 0 stats_print_atexit
FUNC 468a0 61 0 je_arena_chunk_cache_maybe_insert
FUNC 46910 4f 0 je_arena_chunk_cache_maybe_remove
FUNC 46960 aa 0 je_arena_node_alloc
FUNC 46a10 63 0 <name omitted>
FUNC 46a80 384 0 je_arena_chunk_alloc_huge
FUNC 46e10 1a8 0 je_arena_chunk_dalloc_huge
FUNC 46fc0 f3 0 je_arena_chunk_ralloc_huge_similar
FUNC 470c0 17f 0 arena_huge_ralloc_stats_update
FUNC 47240 194 0 je_arena_chunk_ralloc_huge_shrink
FUNC 473e0 479 0 je_arena_chunk_ralloc_huge_expand
FUNC 47860 2d 0 je_arena_lg_dirty_mult_get
FUNC 47890 b6 0 je_arena_lg_dirty_mult_set
FUNC 47950 91 0 je_arena_maybe_purge
FUNC 479f0 2d 0 je_arena_decay_time_get
FUNC 47a20 159 0 je_arena_decay_time_set
FUNC 47b80 221 0 arena_maybe_purge_decay
FUNC 47db0 b2 0 <name omitted>
FUNC 47e70 8fe 0 arena_purge_to_limit
FUNC 48770 3eb 0 je_arena_reset
FUNC 48b60 fe 0 arena_chunk_discard
FUNC 48c60 363 0 je_arena_tcache_fill_small
FUNC 48fd0 442 0 arena_bin_malloc_hard
FUNC 49420 4e 0 je_arena_alloc_junk_small
FUNC 49470 138 0 je_arena_dalloc_junk_small
FUNC 495b0 1db 0 je_arena_quarantine_junk_small
FUNC 49790 30e 0 je_arena_malloc_large
FUNC 49aa0 376 0 je_arena_malloc_hard
FUNC 49e20 10d9 0 je_arena_palloc
FUNC 4af00 b 0 je_arena_dalloc_bin_junked_locked
FUNC 4af10 383 0 arena_dalloc_bin_locked_impl
FUNC 4b2a0 15f 0 je_arena_dalloc_small
FUNC 4b400 1d 0 <name omitted>
FUNC 4b420 b 0 je_arena_dalloc_large_junked_locked
FUNC 4b430 186 0 arena_dalloc_large_locked_impl
FUNC 4b5c0 110 0 je_arena_dalloc_large
FUNC 4b6d0 c0e 0 je_arena_ralloc_no_move
FUNC 4c2e0 b88 0 je_arena_ralloc
FUNC 4ce70 2b 0 je_arena_dss_prec_get
FUNC 4cea0 2c 0 je_arena_dss_prec_set
FUNC 4ced0 c 0 <name omitted>
FUNC 4cee0 20 0 <name omitted>
FUNC 4cf00 c 0 <name omitted>
FUNC 4cf10 31 0 <name omitted>
FUNC 4cf50 345 0 je_arena_stats_merge
FUNC 4d2a0 b 0 je_arena_nthreads_get
FUNC 4d2b0 e 0 je_arena_nthreads_inc
FUNC 4d2c0 e 0 je_arena_nthreads_dec
FUNC 4d2d0 f 0 je_arena_extent_sn_next
FUNC 4d2e0 361 0 je_arena_new
FUNC 4d650 1b6b 0 je_arena_boot
FUNC 4f1c0 9 0 je_arena_prefork0
FUNC 4f1d0 c 0 je_arena_prefork1
FUNC 4f1e0 c 0 je_arena_prefork2
FUNC 4f1f0 23c 0 je_arena_prefork3
FUNC 4f430 266 0 je_arena_postfork_parent
FUNC 4f6a0 266 0 je_arena_postfork_child
FUNC 4f910 fb 0 arena_decay_deadline_init
FUNC 4fa10 479 0 arena_chunk_alloc
FUNC 4fe90 190 0 arena_avail_insert
FUNC 50020 2ac 0 arena_run_split_large_helper
FUNC 502d0 34a 0 arena_run_split_remove
FUNC 50620 892 0 arena_run_heap_remove
FUNC 50ec0 a88 0 arena_run_dalloc
FUNC 51950 580 0 arena_bin_nonfull_run_tryget
FUNC 51ed0 224 0 arena_run_split_small
FUNC 52100 482 0 arena_run_first_best_fit
FUNC 52590 25c 0 je_base_alloc
FUNC 527f0 51 0 je_base_stats_get
FUNC 52850 47 0 je_base_boot
FUNC 528a0 c 0 je_base_prefork
FUNC 528b0 c 0 je_base_postfork_parent
FUNC 528c0 c 0 je_base_postfork_child
FUNC 528d0 10 0 je_bitmap_info_init
FUNC 528e0 37 0 je_bitmap_init
FUNC 52920 1aa 0 chunk_alloc_default
FUNC 52ad0 2f 0 chunk_dalloc_default
FUNC 52b00 b 0 chunk_commit_default
FUNC 52b10 b 0 chunk_decommit_default
FUNC 52b20 b 0 chunk_purge_default
FUNC 52b30 3 0 chunk_split_default
FUNC 52b40 d 0 chunk_merge_default
FUNC 52b50 59 0 <name omitted>
FUNC 52bb0 b1 0 je_chunk_hooks_set
FUNC 52c70 5 0 je_chunk_register
FUNC 52c80 179 0 je_rtree_set
FUNC 52e00 7 0 je_chunk_deregister
FUNC 52e10 2b 0 je_chunk_alloc_base
FUNC 52e40 4d 0 je_chunk_alloc_cache
FUNC 52e90 58a 0 chunk_recycle
FUNC 53420 22b 0 je_chunk_alloc_wrapper
FUNC 53650 53 0 je_chunk_dalloc_cache
FUNC 536b0 414 0 chunk_record
FUNC 53ad0 18b 0 je_chunk_dalloc_wrapper
FUNC 53c60 d5 0 je_chunk_purge_wrapper
FUNC 53d40 68 0 je_chunk_boot
FUNC 53db0 f 0 chunks_rtree_node_alloc
FUNC 53dc0 b 0 je_chunk_dss_prec_get
FUNC 53dd0 9 0 je_chunk_dss_prec_set
FUNC 53de0 24e 0 je_chunk_alloc_dss
FUNC 54030 1e 0 je_chunk_in_dss
FUNC 54050 35 0 je_chunk_dss_mergeable
FUNC 54090 27 0 je_chunk_dss_boot
FUNC 540c0 be 0 je_chunk_alloc_mmap
FUNC 54180 3 0 je_chunk_dalloc_mmap
FUNC 54190 af 0 je_ctl_byname
FUNC 54240 1aa 0 ctl_init
FUNC 543f0 221 0 ctl_lookup
FUNC 54620 59 0 je_ctl_nametomib
FUNC 54680 123 0 je_ctl_bymib
FUNC 547b0 2c 0 je_ctl_boot
FUNC 547e0 c 0 je_ctl_prefork
FUNC 547f0 c 0 je_ctl_postfork_parent
FUNC 54800 c 0 je_ctl_postfork_child
FUNC 54810 685 0 ctl_refresh
FUNC 54ea0 55 0 version_ctl
FUNC 54f00 90 0 epoch_ctl
FUNC 54f90 163 0 thread_arena_ctl
FUNC 55100 52 0 thread_allocated_ctl
FUNC 55160 52 0 thread_allocatedp_ctl
FUNC 551c0 52 0 thread_deallocated_ctl
FUNC 55220 52 0 thread_deallocatedp_ctl
FUNC 55280 1f0 0 thread_tcache_enabled_ctl
FUNC 55470 b6 0 thread_tcache_flush_ctl
FUNC 55530 6 0 thread_prof_name_ctl
FUNC 55540 6 0 thread_prof_active_ctl
FUNC 55550 56 0 config_cache_oblivious_ctl
FUNC 555b0 56 0 config_debug_ctl
FUNC 55610 56 0 config_fill_ctl
FUNC 55670 56 0 config_lazy_lock_ctl
FUNC 556d0 55 0 config_malloc_conf_ctl
FUNC 55730 56 0 config_munmap_ctl
FUNC 55790 56 0 config_prof_ctl
FUNC 557f0 56 0 config_prof_libgcc_ctl
FUNC 55850 56 0 config_prof_libunwind_ctl
FUNC 558b0 56 0 config_stats_ctl
FUNC 55910 56 0 config_tcache_ctl
FUNC 55970 56 0 config_thp_ctl
FUNC 559d0 56 0 config_tls_ctl
FUNC 55a30 56 0 config_utrace_ctl
FUNC 55a90 56 0 config_valgrind_ctl
FUNC 55af0 56 0 config_xmalloc_ctl
FUNC 55b50 5d 0 opt_abort_ctl
FUNC 55bb0 58 0 opt_dss_ctl
FUNC 55c10 58 0 opt_lg_chunk_ctl
FUNC 55c70 58 0 opt_narenas_ctl
FUNC 55cd0 62 0 opt_purge_ctl
FUNC 55d40 58 0 opt_lg_dirty_mult_ctl
FUNC 55da0 58 0 opt_decay_time_ctl
FUNC 55e00 5d 0 opt_stats_print_ctl
FUNC 55e60 58 0 opt_junk_ctl
FUNC 55ec0 5d 0 opt_zero_ctl
FUNC 55f20 58 0 opt_quarantine_ctl
FUNC 55f80 5d 0 opt_redzone_ctl
FUNC 55fe0 6 0 opt_utrace_ctl
FUNC 55ff0 6 0 opt_xmalloc_ctl
FUNC 56000 5d 0 opt_tcache_ctl
FUNC 56060 58 0 opt_lg_tcache_max_ctl
FUNC 560c0 6 0 opt_thp_ctl
FUNC 560d0 6 0 opt_prof_ctl
FUNC 560e0 6 0 opt_prof_prefix_ctl
FUNC 560f0 6 0 opt_prof_active_ctl
FUNC 56100 6 0 opt_prof_thread_active_init_ctl
FUNC 56110 6 0 opt_lg_prof_sample_ctl
FUNC 56120 6 0 opt_lg_prof_interval_ctl
FUNC 56130 6 0 opt_prof_gdump_ctl
FUNC 56140 6 0 opt_prof_final_ctl
FUNC 56150 6 0 opt_prof_leak_ctl
FUNC 56160 6 0 opt_prof_accum_ctl
FUNC 56170 7a 0 tcache_create_ctl
FUNC 561f0 3d 0 tcache_flush_ctl
FUNC 56230 3d 0 tcache_destroy_ctl
FUNC 56270 3e 0 arena_i_index
FUNC 562b0 30 0 arena_i_purge_ctl
FUNC 562e0 2f 0 arena_i_decay_ctl
FUNC 56310 5c 0 arena_i_reset_ctl
FUNC 56370 1ab 0 arena_i_dss_ctl
FUNC 56520 cb 0 arena_i_lg_dirty_mult_ctl
FUNC 565f0 cb 0 arena_i_decay_time_ctl
FUNC 566c0 19e 0 arena_i_chunk_hooks_ctl
FUNC 56860 159 0 arena_i_purge
FUNC 569c0 64 0 arenas_narenas_ctl
FUNC 56a30 10f 0 arenas_initialized_ctl
FUNC 56b40 80 0 arenas_lg_dirty_mult_ctl
FUNC 56bc0 80 0 arenas_decay_time_ctl
FUNC 56c40 56 0 arenas_quantum_ctl
FUNC 56ca0 56 0 arenas_page_ctl
FUNC 56d00 58 0 arenas_tcache_max_ctl
FUNC 56d60 57 0 arenas_nbins_ctl
FUNC 56dc0 58 0 arenas_nhbins_ctl
FUNC 56e20 58 0 arenas_nlruns_ctl
FUNC 56e80 58 0 arenas_nhchunks_ctl
FUNC 56ee0 1ff 0 arenas_extend_ctl
FUNC 570e0 12 0 arenas_bin_i_index
FUNC 57100 61 0 arenas_bin_i_size_ctl
FUNC 57170 62 0 arenas_bin_i_nregs_ctl
FUNC 571e0 62 0 arenas_bin_i_run_size_ctl
FUNC 57250 1a 0 arenas_lrun_i_index
FUNC 57270 5f 0 arenas_lrun_i_size_ctl
FUNC 572d0 1a 0 arenas_hchunk_i_index
FUNC 572f0 6b 0 arenas_hchunk_i_size_ctl
FUNC 57360 6 0 prof_thread_active_init_ctl
FUNC 57370 6 0 prof_active_ctl
FUNC 57380 6 0 prof_dump_ctl
FUNC 57390 6 0 prof_gdump_ctl
FUNC 573a0 6 0 prof_reset_ctl
FUNC 573b0 6 0 prof_interval_ctl
FUNC 573c0 6 0 lg_prof_sample_ctl
FUNC 573d0 87 0 stats_cactive_ctl
FUNC 57460 87 0 stats_allocated_ctl
FUNC 574f0 87 0 stats_active_ctl
FUNC 57580 87 0 stats_metadata_ctl
FUNC 57610 87 0 stats_resident_ctl
FUNC 576a0 87 0 stats_mapped_ctl
FUNC 57730 87 0 stats_retained_ctl
FUNC 577c0 4f 0 stats_arenas_i_index
FUNC 57810 a0 0 stats_arenas_i_nthreads_ctl
FUNC 578b0 a2 0 stats_arenas_i_dss_ctl
FUNC 57960 a2 0 stats_arenas_i_lg_dirty_mult_ctl
FUNC 57a10 a2 0 stats_arenas_i_decay_time_ctl
FUNC 57ac0 a2 0 stats_arenas_i_pactive_ctl
FUNC 57b70 a2 0 stats_arenas_i_pdirty_ctl
FUNC 57c20 a2 0 stats_arenas_i_mapped_ctl
FUNC 57cd0 a2 0 stats_arenas_i_retained_ctl
FUNC 57d80 a2 0 stats_arenas_i_npurge_ctl
FUNC 57e30 a2 0 stats_arenas_i_nmadvise_ctl
FUNC 57ee0 a2 0 stats_arenas_i_purged_ctl
FUNC 57f90 a2 0 stats_arenas_i_metadata_mapped_ctl
FUNC 58040 a2 0 stats_arenas_i_metadata_allocated_ctl
FUNC 580f0 a5 0 stats_arenas_i_small_allocated_ctl
FUNC 581a0 a5 0 stats_arenas_i_small_nmalloc_ctl
FUNC 58250 a5 0 stats_arenas_i_small_ndalloc_ctl
FUNC 58300 a5 0 stats_arenas_i_small_nrequests_ctl
FUNC 583b0 a2 0 stats_arenas_i_large_allocated_ctl
FUNC 58460 a2 0 stats_arenas_i_large_nmalloc_ctl
FUNC 58510 a2 0 stats_arenas_i_large_ndalloc_ctl
FUNC 585c0 a5 0 stats_arenas_i_large_nrequests_ctl
FUNC 58670 a5 0 stats_arenas_i_huge_allocated_ctl
FUNC 58720 a5 0 stats_arenas_i_huge_nmalloc_ctl
FUNC 587d0 a5 0 stats_arenas_i_huge_ndalloc_ctl
FUNC 58880 a5 0 stats_arenas_i_huge_nrequests_ctl
FUNC 58930 12 0 stats_arenas_i_bins_j_index
FUNC 58950 b0 0 stats_arenas_i_bins_j_nmalloc_ctl
FUNC 58a00 b0 0 stats_arenas_i_bins_j_ndalloc_ctl
FUNC 58ab0 b0 0 stats_arenas_i_bins_j_nrequests_ctl
FUNC 58b60 b0 0 stats_arenas_i_bins_j_curregs_ctl
FUNC 58c10 b0 0 stats_arenas_i_bins_j_nfills_ctl
FUNC 58cc0 b0 0 stats_arenas_i_bins_j_nflushes_ctl
FUNC 58d70 b0 0 stats_arenas_i_bins_j_nruns_ctl
FUNC 58e20 b0 0 stats_arenas_i_bins_j_nreruns_ctl
FUNC 58ed0 b0 0 stats_arenas_i_bins_j_curruns_ctl
FUNC 58f80 1a 0 stats_arenas_i_lruns_j_index
FUNC 58fa0 b4 0 stats_arenas_i_lruns_j_nmalloc_ctl
FUNC 59060 b5 0 stats_arenas_i_lruns_j_ndalloc_ctl
FUNC 59120 b5 0 stats_arenas_i_lruns_j_nrequests_ctl
FUNC 591e0 b5 0 stats_arenas_i_lruns_j_curruns_ctl
FUNC 592a0 1a 0 stats_arenas_i_hchunks_j_index
FUNC 592c0 b4 0 stats_arenas_i_hchunks_j_nmalloc_ctl
FUNC 59380 b5 0 stats_arenas_i_hchunks_j_ndalloc_ctl
FUNC 59440 b4 0 stats_arenas_i_hchunks_j_nrequests_ctl
FUNC 59500 b5 0 stats_arenas_i_hchunks_j_curhchunks_ctl
FUNC 595c0 142 0 je_extent_size_quantize_ceil
FUNC 59710 8 0 je_extent_tree_szsnad_new
FUNC 59720 174 0 extent_szsnad_comp
FUNC 598a0 6d 0 je_extent_tree_szsnad_nsearch
FUNC 59910 1a3 0 je_extent_tree_szsnad_insert
FUNC 59ac0 5b7 0 je_extent_tree_szsnad_remove
FUNC 5a080 8 0 je_extent_tree_ad_new
FUNC 5a090 5d 0 je_extent_tree_ad_prev
FUNC 5a0f0 4c 0 je_extent_tree_ad_search
FUNC 5a140 57 0 je_extent_tree_ad_nsearch
FUNC 5a1a0 189 0 je_extent_tree_ad_insert
FUNC 5a330 544 0 je_extent_tree_ad_remove
FUNC 5a880 14 0 je_huge_malloc
FUNC 5a8a0 6ed 0 je_huge_palloc
FUNC 5af90 583 0 je_huge_ralloc_no_move
FUNC 5b520 16c 0 huge_ralloc_no_move_expand
FUNC 5b690 b 0 je_huge_aalloc
FUNC 5b6a0 392 0 je_huge_ralloc
FUNC 5ba40 269 0 je_huge_dalloc
FUNC 5bcb0 11e 0 huge_node_get
FUNC 5bdd0 36 0 je_huge_salloc
FUNC 5be10 52 0 <name omitted>
FUNC 5be70 8 0 je_malloc_mutex_prefork
FUNC 5be80 8 0 je_malloc_mutex_postfork_parent
FUNC 5be90 63 0 je_malloc_mutex_postfork_child
FUNC 5bf00 3 0 je_malloc_mutex_boot
FUNC 5bf10 4 0 je_nstime_init
FUNC 5bf20 e 0 <name omitted>
FUNC 5bf30 4 0 je_nstime_ns
FUNC 5bf40 7 0 <name omitted>
FUNC 5bf50 f 0 <name omitted>
FUNC 5bf60 7 0 je_nstime_add
FUNC 5bf70 7 0 je_nstime_subtract
FUNC 5bf80 8 0 je_nstime_imultiply
FUNC 5bf90 c 0 je_nstime_idivide
FUNC 5bfa0 9 0 je_nstime_divide
FUNC 5bfb0 3 0 je_nstime_monotonic
FUNC 5bfc0 43 0 je_nstime_update
FUNC 5c010 b1 0 je_pages_map
FUNC 5c0d0 4e 0 je_pages_unmap
FUNC 5c120 ca 0 je_pages_trim
FUNC 5c1f0 a4 0 je_pages_commit
FUNC 5c2a0 a1 0 je_pages_decommit
FUNC 5c350 12 0 je_pages_purge
FUNC 5c370 88 0 je_pages_boot
FUNC 5c400 1 0 je_prof_tdata_cleanup
FUNC 5c410 80 0 je_prof_prefork0
FUNC 5c490 5b 0 je_prof_prefork1
FUNC 5c4f0 e4 0 je_prof_postfork_parent
FUNC 5c5e0 e4 0 je_prof_postfork_child
FUNC 5c6d0 168 0 je_quarantine_alloc_hook_work
FUNC 5c840 1ca 0 quarantine_init
FUNC 5ca10 415 0 je_quarantine
FUNC 5ce30 156 0 je_quarantine_cleanup
FUNC 5cf90 90 0 quarantine_drain_one
FUNC 5d020 14d 0 je_rtree_new
FUNC 5d170 a3 0 je_rtree_subtree_read_hard
FUNC 5d220 a3 0 je_rtree_child_read_hard
FUNC 5d2d0 1eed 0 je_stats_print
FUNC 5f1c0 7f9 0 stats_print_helper
FUNC 5f9c0 2617 0 stats_arena_print
FUNC 61fe0 c4 0 je_tcache_event_hard
FUNC 620b0 270 0 je_tcache_bin_flush_small
FUNC 62320 23f 0 je_tcache_bin_flush_large
FUNC 62560 6b 0 je_tcache_alloc_small_hard
FUNC 625d0 1e1 0 je_tcache_arena_reassociate
FUNC 627c0 1d3 0 je_tcache_get_hard
FUNC 629a0 428 0 je_tcache_create
FUNC 62dd0 1f 0 je_tcache_cleanup
FUNC 62df0 3bc 0 tcache_destroy
FUNC 631b0 1 0 je_tcache_enabled_cleanup
FUNC 631c0 130 0 je_tcache_stats_merge
FUNC 632f0 125 0 je_tcaches_create
FUNC 63420 47 0 je_tcaches_flush
FUNC 63470 5e 0 je_tcaches_destroy
FUNC 634d0 1e9 0 je_tcache_boot
FUNC 636c0 16 0 je_tcache_prefork
FUNC 636e0 16 0 je_tcache_postfork_parent
FUNC 63700 16 0 je_tcache_postfork_child
FUNC 63720 fd 0 je_tsd_cleanup
FUNC 63820 9e 0 je_malloc_tsd_boot0
FUNC 638c0 63 0 je_malloc_tsd_boot1
FUNC 63930 3b 0 je_malloc_write
FUNC 63970 24 0 wrtmessage
FUNC 639a0 32 0 je_buferror
FUNC 639e0 1e6 0 je_malloc_strtoumax
FUNC 63bd0 184d 0 je_malloc_vsnprintf
FUNC 65420 86 0 je_malloc_snprintf
FUNC 654b0 ce 0 je_malloc_cprintf
FUNC 65580 cb 0 je_malloc_printf
FUNC 65650 1 0 je_witnesses_cleanup
FUNC 65660 1 0 je_witness_fork_cleanup
FUNC 65670 5 0 je_witness_prefork
FUNC 65680 5 0 je_witness_postfork_parent
FUNC 65690 d 0 je_witness_postfork_child
FUNC 656a0 e4 0 _ZN75_$LT$unwind..libunwind.._Unwind_Reason_Code$u20$as$u20$core..fmt..Debug$GT$3fmt17h6ed225a12ed34e70E
FUNC 65790 12 0 _ZN5alloc6string13FromUtf8Error10into_bytes17h78a255071838ba5dE
FUNC 657b0 2c 0 _ZN87_$LT$alloc..string..String$u20$as$u20$core..convert..From$LT$$RF$$u27$a$u20$str$GT$$GT$4from17h7fdc2dc938b39599E
FUNC 657e0 a8 0 _ZN49_$LT$alloc..raw_vec..RawVec$LT$T$C$$u20$A$GT$$GT$16reserve_internal17h5c4a15920a87606bE
FUNC 65890 f 0 _ZN5alloc7raw_vec17capacity_overflow17hc4713e1324d232a0E
FUNC 658a0 8 0 _ZN5alloc5alloc18handle_alloc_error17h81be1d7b77c32979E
FUNC 658b0 17 0 _ZN4core3ptr13drop_in_place17h3ac61dc5ec981ff3E
FUNC 658d0 12 0 _ZN5alloc6string104_$LT$impl$u20$core..convert..From$LT$alloc..string..String$GT$$u20$for$u20$alloc..vec..Vec$LT$u8$GT$$GT$4from17h91be9c718b0c7e35E
FUNC 658f0 db 0 _ZN91_$LT$alloc..vec..Vec$LT$u8$GT$$u20$as$u20$core..convert..From$LT$$RF$$u27$a$u20$str$GT$$GT$4from17h4794ee499bc6e39cE
FUNC 659d0 2c 0 _ZN5alloc3str56_$LT$impl$u20$alloc..borrow..ToOwned$u20$for$u20$str$GT$8to_owned17h65424e4be6b0c272E
FUNC 65a00 113 0 _ZN4core5slice29_$LT$impl$u20$$u5b$T$u5d$$GT$15copy_from_slice17hfdc550393aa0154fE
FUNC 65b20 17 0 _ZN4core3ptr13drop_in_place17h3ac61dc5ec981ff3E
FUNC 65b40 de 0 _ZN5alloc5slice64_$LT$impl$u20$alloc..borrow..ToOwned$u20$for$u20$$u5b$T$u5d$$GT$8to_owned17h5c2fef0556a6f7ddE
FUNC 65c20 4e 0 _ZN53_$LT$$RF$$u27$a$u20$T$u20$as$u20$core..fmt..Debug$GT$3fmt17hadde166f2be84fb3E
FUNC 65c70 91 0 _ZN4core3fmt3num52_$LT$impl$u20$core..fmt..LowerHex$u20$for$u20$i8$GT$3fmt17h3b3dffab3aeb2f03E
FUNC 65d10 91 0 _ZN4core3fmt3num52_$LT$impl$u20$core..fmt..UpperHex$u20$for$u20$i8$GT$3fmt17h49c575619e701cdeE
FUNC 65db0 91 0 _ZN4core3fmt3num53_$LT$impl$u20$core..fmt..LowerHex$u20$for$u20$i32$GT$3fmt17hb9060517db5c5228E
FUNC 65e50 91 0 _ZN4core3fmt3num53_$LT$impl$u20$core..fmt..UpperHex$u20$for$u20$i32$GT$3fmt17h1450340cc0baf6c7E
FUNC 65ef0 92 0 _ZN4core3fmt3num53_$LT$impl$u20$core..fmt..LowerHex$u20$for$u20$i64$GT$3fmt17h2cd818048f3f73a7E
FUNC 65f90 92 0 _ZN4core3fmt3num53_$LT$impl$u20$core..fmt..UpperHex$u20$for$u20$i64$GT$3fmt17ha6a4bbaa8cb6fa78E
FUNC 66030 98 0 _ZN4core3fmt3num51_$LT$impl$u20$core..fmt..Display$u20$for$u20$u8$GT$3fmt17h8e0e4246e21be0d1E
FUNC 660d0 10a 0 _ZN4core3fmt3num52_$LT$impl$u20$core..fmt..Display$u20$for$u20$i32$GT$3fmt17h71f4b51dd1242f22E
FUNC 661e0 fe 0 _ZN4core3fmt3num52_$LT$impl$u20$core..fmt..Display$u20$for$u20$u32$GT$3fmt17h3090818b764f06bcE
FUNC 662e0 12b 0 _ZN4core3fmt3num52_$LT$impl$u20$core..fmt..Display$u20$for$u20$u64$GT$3fmt17he5645da80e97c608E
FUNC 66470 1 0 _ZN4core3ptr13drop_in_place17h0238de942f015c3bE
FUNC 66480 b 0 _ZN36_$LT$T$u20$as$u20$core..any..Any$GT$11get_type_id17hbc58ae29a3506f58E
FUNC 66490 8 0 _ZN4core5panic9PanicInfo7payload17hc12f206ef46ef1d4E
FUNC 664a0 5 0 _ZN4core5panic9PanicInfo7message17h9415c5d78b76c181E
FUNC 664b0 5 0 _ZN4core5panic9PanicInfo8location17hd4705b4bad8e4e35E
FUNC 664c0 12 0 _ZN4core5panic8Location20internal_constructor17h38d1c6f3345c346bE
FUNC 664e0 8 0 _ZN4core5panic8Location4file17h9ed322a8ca816c2cE
FUNC 664f0 4 0 _ZN4core5panic8Location4line17hf7653dbccc55df73E
FUNC 66500 4 0 _ZN4core5panic8Location6column17he08d425769dcde1cE
FUNC 66510 8c 0 _ZN74_$LT$core..panic..Location$LT$$u27$a$GT$$u20$as$u20$core..fmt..Display$GT$3fmt17he9edddbe06f3b2aaE
FUNC 665a0 10 0 _ZN4core7unicode6tables16general_category1N17h5399ee8f70fba73dE
FUNC 665b0 a3 0 _ZN59_$LT$core..alloc..LayoutErr$u20$as$u20$core..fmt..Debug$GT$3fmt17heedaa5ec571fa831E
FUNC 66660 23f 0 _ZN4core5slice6memchr6memchr17he5d926cfbdf7457dE
FUNC 668a0 83 0 _ZN4core5slice20slice_index_len_fail17hfff9488be1fef1dfE
FUNC 66930 83 0 _ZN4core5slice22slice_index_order_fail17h4325942011cee2d3E
FUNC 669c0 f9 0 _ZN4core7unicode9printable5check17h5417d7db762d1f2dE
FUNC 66ac0 c8 0 _ZN4core7unicode9printable12is_printable17h6284ba007414d511E
FUNC 66b90 77 0 _ZN71_$LT$core..ops..range..Range$LT$Idx$GT$$u20$as$u20$core..fmt..Debug$GT$3fmt17he5e226e295cb47f2E
FUNC 66c10 207 0 _ZN4core3fmt3num52_$LT$impl$u20$core..fmt..Debug$u20$for$u20$usize$GT$3fmt17hf4cd87bd4ef0c84cE
FUNC 66e20 1 0 _ZN4core3ptr13drop_in_place17h067d746b72687675E
FUNC 66e30 e5 0 _ZN75_$LT$$RF$$u27$a$u20$mut$u20$I$u20$as$u20$core..iter..iterator..Iterator$GT$4next17hc8be54a42b504c06E
FUNC 66f20 8ef 0 _ZN4core3str7pattern11StrSearcher3new17h65457e0386a9b7dcE
FUNC 67810 83 0 _ZN4core3str9from_utf817h3197378a0ed5f1f3E
FUNC 678a0 203 0 _ZN4core3str19run_utf8_validation17haf46bbb67b4d4017E
FUNC 67ab0 42f 0 _ZN4core3str16slice_error_fail17hac3f133c196b9d10E
FUNC 67ee0 cf 0 _ZN57_$LT$core..str..Utf8Error$u20$as$u20$core..fmt..Debug$GT$3fmt17hb1ef353b65925d06E
FUNC 67fb0 1 0 _ZN4core3ptr13drop_in_place17h44a0f75515e2b807E
FUNC 67fc0 1bf 0 _ZN4core3num14from_str_radix17h2c837970f36d2092E
FUNC 68180 a 0 _ZN4core3num52_$LT$impl$u20$core..str..FromStr$u20$for$u20$i32$GT$8from_str17h9e5ddbb27bb289aeE
FUNC 68190 6b 0 _ZN4core3num52_$LT$impl$u20$core..str..FromStr$u20$for$u20$u64$GT$8from_str17hfa793bab9fe345efE
FUNC 68200 a3 0 _ZN61_$LT$core..num..ParseIntError$u20$as$u20$core..fmt..Debug$GT$3fmt17hd8d4329aec311040E
FUNC 682b0 79 0 _ZN53_$LT$$RF$$u27$a$u20$T$u20$as$u20$core..fmt..Debug$GT$3fmt17hf93a06921710f0f6E
FUNC 68340 1 0 _ZN4core3ptr13drop_in_place17hd885e1d37a98e444E
FUNC 68350 23 0 _ZN4core3str6traits101_$LT$impl$u20$core..slice..SliceIndex$LT$str$GT$$u20$for$u20$core..ops..range..Range$LT$usize$GT$$GT$5index28_$u7b$$u7b$closure$u7d$$u7d$17h72d7d908c288c7d3E
FUNC 68380 8 0 _ZN96_$LT$core..fmt..Write..write_fmt..Adapter$LT$$u27$a$C$$u20$T$GT$$u20$as$u20$core..fmt..Write$GT$9write_str17hccf0e0d1bc45bffbE
FUNC 68390 be 0 _ZN96_$LT$core..fmt..Write..write_fmt..Adapter$LT$$u27$a$C$$u20$T$GT$$u20$as$u20$core..fmt..Write$GT$10write_char17had032bbf52c8b0caE
FUNC 68450 41 0 _ZN96_$LT$core..fmt..Write..write_fmt..Adapter$LT$$u27$a$C$$u20$T$GT$$u20$as$u20$core..fmt..Write$GT$9write_fmt17h9595f14a5de9e88cE
FUNC 684a0 12b 0 _ZN4core3fmt10ArgumentV110show_usize17he5d8265ea821325cE
FUNC 685d0 b 0 _ZN4core3fmt10ArgumentV110from_usize17h7d14b32ac4f12600E
FUNC 685e0 35 0 <name omitted>
FUNC 68620 3a6 0 _ZN4core3fmt5write17hd33605757a4b817cE
FUNC 689d0 3d7 0 _ZN4core3fmt9Formatter12pad_integral17he14eb76da3bd336cE
FUNC 68db0 10d 0 _ZN4core3fmt9Formatter12pad_integral28_$u7b$$u7b$closure$u7d$$u7d$17h815a8dc2908268eaE
FUNC 68ec0 542 0 _ZN4core3fmt9Formatter3pad17hf5bd48f0778589bdE
FUNC 69410 11 0 <name omitted>
FUNC 69430 38 0 <name omitted>
FUNC 69470 9 0 _ZN4core3fmt9Formatter9alternate17h2b52f4fc462b77a2E
FUNC 69480 9 0 <name omitted>
FUNC 69490 9 0 <name omitted>
FUNC 694a0 30 0 _ZN4core3fmt9Formatter12debug_struct17ha97d2906a6361b62E
FUNC 694d0 3d 0 <name omitted>
FUNC 69510 67 0 <name omitted>
FUNC 69580 11 0 <name omitted>
FUNC 695a0 57c 0 _ZN40_$LT$str$u20$as$u20$core..fmt..Debug$GT$3fmt17h3ff8592aef1d0006E
FUNC 69b20 14 0 _ZN42_$LT$str$u20$as$u20$core..fmt..Display$GT$3fmt17hdcb1507d8301c53eE
FUNC 69b40 275 0 _ZN41_$LT$char$u20$as$u20$core..fmt..Debug$GT$3fmt17hdef08f3655aa4971E
FUNC 69dc0 dc 0 _ZN43_$LT$char$u20$as$u20$core..fmt..Display$GT$3fmt17h4247470b38dd42ebE
FUNC 69ea0 217 0 _ZN53_$LT$$RF$$u27$a$u20$T$u20$as$u20$core..fmt..Debug$GT$3fmt17h067b3978e66f0215E
FUNC 6a0c0 17 0 _ZN53_$LT$$RF$$u27$a$u20$T$u20$as$u20$core..fmt..Debug$GT$3fmt17h7ca94ce3c00039a2E
FUNC 6a0e0 15e 0 _ZN53_$LT$$RF$$u27$a$u20$T$u20$as$u20$core..fmt..Debug$GT$3fmt17hfa876bf6cc479f9aE
FUNC 6a240 12 0 <name omitted>
FUNC 6a280 1 0 _ZN4core3ptr13drop_in_place17h36780f0c9312c7b8E
FUNC 6a290 1a 0 _ZN60_$LT$core..cell..BorrowError$u20$as$u20$core..fmt..Debug$GT$3fmt17hbe54929e7f55d470E
FUNC 6a2b0 1a 0 _ZN63_$LT$core..cell..BorrowMutError$u20$as$u20$core..fmt..Debug$GT$3fmt17hc82d4b5ccd421502E
FUNC 6a2d0 7 0 _ZN4core3str5lossy9Utf8Lossy10from_bytes17h636287f781c73be2E
FUNC 6a2e0 7 0 _ZN4core3str5lossy9Utf8Lossy6chunks17h12d82fd093b18c7aE
FUNC 6a2f0 307 0 _ZN102_$LT$core..str..lossy..Utf8LossyChunksIter$LT$$u27$a$GT$$u20$as$u20$core..iter..iterator..Iterator$GT$4next17h07f49416ac9c034eE
FUNC 6a600 23 0 _ZN4core3str6traits101_$LT$impl$u20$core..slice..SliceIndex$LT$str$GT$$u20$for$u20$core..ops..range..Range$LT$usize$GT$$GT$5index28_$u7b$$u7b$closure$u7d$$u7d$17h72d7d908c288c7d3E
FUNC 6a630 1a 0 _ZN4core3str6traits103_$LT$impl$u20$core..slice..SliceIndex$LT$str$GT$$u20$for$u20$core..ops..range..RangeTo$LT$usize$GT$$GT$5index28_$u7b$$u7b$closure$u7d$$u7d$17hee1dc7d17ea891f5E
FUNC 6a650 24e 0 _ZN82_$LT$core..fmt..builders..PadAdapter$LT$$u27$a$GT$$u20$as$u20$core..fmt..Write$GT$9write_str17hedb7808e7b272910E
FUNC 6a8a0 1df 0 _ZN4core3fmt8builders11DebugStruct5field17h8fda024c1560af93E
FUNC 6aa80 47 0 <name omitted>
FUNC 6aad0 183 0 _ZN4core3fmt8builders10DebugTuple5field17hf4475c54f68a73f1E
FUNC 6ac60 95 0 <name omitted>
FUNC 6ad00 10e 0 _ZN4core3fmt8builders10DebugInner5entry17h1715f14cf99ae72bE
FUNC 6ae10 e 0 _ZN4core3fmt8builders8DebugSet5entry17h52bb868a98f42b00E
FUNC 6ae20 79 0 _ZN4core3fmt8builders9DebugList6finish17hb972eb553913ed1eE
FUNC 6aea0 bb 0 _ZN4core3fmt5Write10write_char17h0e2132227c79d91dE
FUNC 6af60 3e 0 _ZN4core3fmt5Write9write_fmt17hd6b793321efe799eE
FUNC 6afb0 17 0 <name omitted>
FUNC 6afd0 a8 0 _ZN74_$LT$core..char..EscapeDebug$u20$as$u20$core..iter..iterator..Iterator$GT$4next17hfbbf4780e3cf1d01E
FUNC 6b080 f2 0 _ZN4core7unicode9bool_trie8BoolTrie6lookup17hb5b771a2bb6df275E
FUNC 6b180 10 0 _ZN4core7unicode6tables16derived_property15Grapheme_Extend17habd07898bf602528E
FUNC 6b190 1 0 _ZN4core3ptr13drop_in_place17h3cd9a3545736a881E
FUNC 6b1a0 5d 0 _ZN4core9panicking5panic17h42456c8f99671ed6E
FUNC 6b200 82 0 _ZN4core9panicking18panic_bounds_check17h0d51c36293aaaa25E
FUNC 6b290 3e 0 _ZN4core9panicking9panic_fmt17h7db78e0cb84e11c5E
FUNC 6b2d0 74 0 _ZN4core6option13expect_failed17hd6dfe43c620cb1aaE
FUNC 6b350 111 0 _ZN53_$LT$$RF$$u27$a$u20$T$u20$as$u20$core..fmt..Debug$GT$3fmt17hfafdddd68989fa0bE
FUNC 6b470 1f 0 __pthread_atfork
PUBLIC 6c78 0 _init
PUBLIC 7000 0 _start
PUBLIC 7030 0 deregister_tm_clones
PUBLIC 7070 0 register_tm_clones
PUBLIC 70c0 0 __do_global_dtors_aux
PUBLIC 7100 0 frame_dummy
PUBLIC 7130 0 core::num::ptr_try_from_impls::_$LT$impl$u20$core..convert..TryFrom$LT$usize$GT$$u20$for$u20$u32$GT$::try_from::hcfccf5ec00041e80
PUBLIC 7190 0 _$LT$$RF$$u27$a$u20$T$u20$as$u20$core..convert..AsRef$LT$U$GT$$GT$::as_ref::h14b995e94232b9da
PUBLIC 71d0 0 core::ops::function::impls::_$LT$impl$u20$core..ops..function..FnOnce$LT$A$GT$$u20$for$u20$$RF$$u27$a$u20$mut$u20$F$GT$::call_once::h1e2ef374958a943c
PUBLIC 7270 0 core::ptr::_$LT$impl$u20$$BP$const$u20$T$GT$::offset::h95bcc338253cf036
PUBLIC 72b0 0 core::ptr::_$LT$impl$u20$$BP$const$u20$T$GT$::is_null::h2e14fdd3938bfd8d
PUBLIC 72f0 0 core::slice::_$LT$impl$u20$$u5b$T$u5d$$GT$::len::h394a286ac0aa5d1c
PUBLIC 7320 0 core::slice::_$LT$impl$u20$$u5b$T$u5d$$GT$::iter::hbca304b6645f0d3c
PUBLIC 7470 0 core::slice::_$LT$impl$u20$$u5b$T$u5d$$GT$::as_ptr::h81e15d99fc610f7b
PUBLIC 7490 0 _$LT$$RF$$u27$a$u20$T$u20$as$u20$core..fmt..Debug$GT$::fmt::hc11d9100a2c640f3
PUBLIC 74d0 0 vignette::lib_linux::thread_iterator::_$u7b$$u7b$closure$u7d$$u7d$::_$u7b$$u7b$closure$u7d$$u7d$::hd58ece684c3a0b7d
PUBLIC 7530 0 vignette::lib_linux::thread_iterator::_$u7b$$u7b$closure$u7d$$u7d$::_$u7b$$u7b$closure$u7d$$u7d$::_$u7b$$u7b$closure$u7d$$u7d$::hf0199a1e95973f26
PUBLIC 7670 0 vignette::lib_linux::Sampler::suspend_and_resume_thread::h2f54bc316b31005f
PUBLIC 79b0 0 _$LT$core..result..Result$LT$T$C$$u20$E$GT$$GT$::map::h477cf990be4c39f0
PUBLIC 7bb0 0 _$LT$core..result..Result$LT$T$C$$u20$E$GT$$GT$::map::hbaaf5ed9be07f440
PUBLIC 7e50 0 _$LT$core..result..Result$LT$T$C$$u20$E$GT$$GT$::map::hd80d9d7f8368c819
PUBLIC 8050 0 _$LT$core..result..Result$LT$T$C$$u20$E$GT$$GT$::is_ok::hddff3417739948a0
PUBLIC 80a0 0 _$LT$core..result..Result$LT$T$C$$u20$E$GT$$GT$::expect::h7cbc211ee6d2cb20
PUBLIC 81e0 0 _$LT$core..result..Result$LT$T$C$$u20$E$GT$$GT$::expect::h887463b66859a8e1
PUBLIC 82b0 0 _$LT$core..result..Result$LT$T$C$$u20$E$GT$$GT$::expect::h8ec2da087a9bcbdf
PUBLIC 8390 0 _$LT$core..result..Result$LT$T$C$$u20$E$GT$$GT$::expect::h9d2633dafefeaed4
PUBLIC 84a0 0 _$LT$core..result..Result$LT$T$C$$u20$E$GT$$GT$::expect::hc2a4bfa9b0465263
PUBLIC 85b0 0 _$LT$core..result..Result$LT$T$C$$u20$E$GT$$GT$::expect::hd776ce84917d529e
PUBLIC 86d0 0 _$LT$core..result..Result$LT$T$C$$u20$E$GT$$GT$::is_err::h173eba342fa6b63d
PUBLIC 8700 0 _$LT$core..result..Result$LT$T$C$$u20$E$GT$$GT$::unwrap::h40bde40fc172cca8
PUBLIC 87f0 0 _$LT$core..result..Result$LT$T$C$$u20$E$GT$$GT$::unwrap::h773939d5504418bb
PUBLIC 8920 0 _$LT$core..result..Result$LT$T$C$$u20$E$GT$$GT$::unwrap::hb04fec709ed2e7e6
PUBLIC 8a00 0 _$LT$core..result..Result$LT$T$C$$u20$E$GT$$GT$::unwrap::hcf14941ee4fab4d6
PUBLIC 8ad0 0 _$LT$core..result..Result$LT$T$C$$u20$E$GT$$GT$::map_err::h16ddb31ea400da7a
PUBLIC 8c50 0 _$LT$core..result..Result$LT$T$C$$u20$E$GT$$GT$::map_err::h1ff7280883ac4e92
PUBLIC 8dd0 0 _$LT$core..result..Result$LT$T$C$$u20$E$GT$$GT$::and_then::h00a0fb930ac6b0e5
PUBLIC 8f60 0 core::result::unwrap_failed::h011d92b0c748a6a4
PUBLIC 90d0 0 core::result::unwrap_failed::h26ab1d375a557535
PUBLIC 9230 0 core::result::unwrap_failed::h6bf14e005e580ea5
PUBLIC 9390 0 core::result::unwrap_failed::h6d5d9d9d9f220e30
PUBLIC 9500 0 core::result::unwrap_failed::h92008176482c301d
PUBLIC 9660 0 core::result::unwrap_failed::ha266ff4cd4632f14
PUBLIC 97d0 0 _$LT$core..result..Result$LT$T$C$$u20$E$GT$$u20$as$u20$core..ops..try..Try$GT$::from_error::hab4f40555d80a1df
PUBLIC 9810 0 _$LT$core..result..Result$LT$T$C$$u20$E$GT$$u20$as$u20$core..ops..try..Try$GT$::into_result::h5484727edc3fcdfa
PUBLIC 9830 0 std::thread::panicking::h5deec2eab9f7cd76
PUBLIC 9850 0 _$LT$std..thread..Thread$u20$as$u20$core..clone..Clone$GT$::clone::h420ed98bd6e9815d
PUBLIC 9890 0 _$LT$alloc..alloc..Global$u20$as$u20$core..alloc..Alloc$GT$::alloc::hd210b8dd398c1b82
PUBLIC 98e0 0 _$LT$alloc..alloc..Global$u20$as$u20$core..alloc..Alloc$GT$::dealloc::h6385ed25db20388c
PUBLIC 9920 0 _$LT$alloc..alloc..Global$u20$as$u20$core..alloc..Alloc$GT$::realloc::h71534ffe1ee9a295
PUBLIC 99a0 0 alloc::alloc::exchange_malloc::hc8d1ce3ab1789773
PUBLIC 9a30 0 alloc::alloc::alloc::h4b9b6c3b36914968
PUBLIC 9a80 0 alloc::alloc::dealloc::h20538a2beb324815
PUBLIC 9ae0 0 alloc::alloc::realloc::ha83383cd8f8fd9de
PUBLIC 9b50 0 std::thread::spawn::h7012e0c8cfb5f3cf
PUBLIC 9c00 0 std::thread::spawn::hc0b18b3ce030fd29
PUBLIC 9cb0 0 std::thread::Builder::spawn::h5636919728691c20
PUBLIC a2c0 0 std::thread::Builder::spawn::hb5e0c0f3977b3b7d
PUBLIC a8d0 0 std::thread::Builder::spawn::_$u7b$$u7b$closure$u7d$$u7d$::h0b9ed8999fba122c
PUBLIC abb0 0 std::thread::Builder::spawn::_$u7b$$u7b$closure$u7d$$u7d$::h9105b3b522bbb030
PUBLIC ae90 0 std::thread::Builder::spawn::_$u7b$$u7b$closure$u7d$$u7d$::_$u7b$$u7b$closure$u7d$$u7d$::h0b19361d01a9fbe0
PUBLIC aea0 0 std::thread::Builder::spawn::_$u7b$$u7b$closure$u7d$$u7d$::_$u7b$$u7b$closure$u7d$$u7d$::hdf867c4eafce7866
PUBLIC aeb0 0 _$LT$std..thread..JoinInner$LT$T$GT$$GT$::join::h907f6f9ea648c0bb
PUBLIC af40 0 _$LT$std..thread..JoinHandle$LT$T$GT$$GT$::join::h894a4ef96e8db712
PUBLIC afa0 0 core::ptr::_$LT$impl$u20$$BP$mut$u20$T$GT$::offset::h86f4444b5cc598be
PUBLIC afe0 0 core::ptr::_$LT$impl$u20$$BP$mut$u20$T$GT$::is_null::h79db55272377581b
PUBLIC b020 0 core::ptr::_$LT$impl$u20$$BP$const$u20$T$GT$::offset::h4c5e021dbd6484e8
PUBLIC b060 0 core::slice::_$LT$impl$u20$$u5b$T$u5d$$GT$::as_mut_ptr::h826c0dd4444f1bea
PUBLIC b080 0 core::slice::_$LT$impl$u20$core..ops..index..IndexMut$LT$I$GT$$u20$for$u20$$u5b$T$u5d$$GT$::index_mut::h7837c1645ea418e9
PUBLIC b0c0 0 _$LT$F$u20$as$u20$alloc..boxed..FnBox$LT$A$GT$$GT$::call_box::h1298c3b88af58c16
PUBLIC b120 0 _$LT$F$u20$as$u20$alloc..boxed..FnBox$LT$A$GT$$GT$::call_box::h9b52f3b0ee817428
PUBLIC b180 0 _$LT$alloc..vec..Vec$LT$T$GT$$GT$::len::h1d8e2b0186284e62
PUBLIC b190 0 _$LT$alloc..vec..Vec$LT$T$GT$$GT$::len::hf35b775c90ac88ee
PUBLIC b1a0 0 _$LT$alloc..vec..Vec$LT$T$GT$$GT$::new::h5c380f8c9a579760
PUBLIC b1f0 0 _$LT$alloc..vec..Vec$LT$T$GT$$GT$::new::h89fde80510313bf8
PUBLIC b240 0 _$LT$alloc..vec..Vec$LT$T$GT$$GT$::push::hbca24ad5b5b21498
PUBLIC b3c0 0 _$LT$alloc..vec..Vec$LT$T$GT$$GT$::reserve::h25c4f1e9e1782ebe
PUBLIC b400 0 _$LT$alloc..vec..Vec$LT$T$GT$$GT$::reserve::h27bf9d7f71264893
PUBLIC b440 0 _$LT$alloc..vec..Vec$LT$T$GT$$GT$::capacity::h667013fa1219a7a9
PUBLIC b490 0 core::iter::iterator::Iterator::by_ref::h0d22f3b1e8f5d184
PUBLIC b4a0 0 _$LT$I$u20$as$u20$core..iter..traits..IntoIterator$GT$::into_iter::h39a5227e116f2929
PUBLIC b4b0 0 _$LT$alloc..vec..Vec$LT$T$GT$$u20$as$u20$core..ops..drop..Drop$GT$::drop::h4903bf81b44cddc4
PUBLIC b4f0 0 _$LT$alloc..vec..Vec$LT$T$GT$$u20$as$u20$core..ops..deref..Deref$GT$::deref::ha62094868b5edcbe
PUBLIC b540 0 _$LT$alloc..vec..IntoIter$LT$T$GT$$u20$as$u20$core..ops..drop..Drop$GT$::drop::h53e4a3e08cb1bf94
PUBLIC b7a0 0 _$LT$alloc..vec..Vec$LT$T$GT$$u20$as$u20$core..ops..deref..DerefMut$GT$::deref_mut::h18a96f8c4cb034e0
PUBLIC b7f0 0 _$LT$$RF$$u27$a$u20$mut$u20$I$u20$as$u20$core..iter..iterator..Iterator$GT$::next::h5c86987b40c8d99c
PUBLIC b820 0 _$LT$alloc..vec..Vec$LT$T$GT$$u20$as$u20$core..iter..traits..IntoIterator$GT$::into_iter::haf0a7b0bd5e40172
PUBLIC ba70 0 _$LT$alloc..vec..Vec$LT$T$GT$$u20$as$u20$core..ops..index..Index$LT$I$GT$$GT$::index::h51f7aab1867fe9c1
PUBLIC bb00 0 _$LT$alloc..vec..IntoIter$LT$T$GT$$u20$as$u20$core..iter..iterator..Iterator$GT$::next::h514fa8ce745b8928
PUBLIC bc40 0 _$LT$alloc..vec..Vec$LT$T$GT$$u20$as$u20$core..ops..index..IndexMut$LT$I$GT$$GT$::index_mut::h07615fe96572ae1b
PUBLIC bcd0 0 _$LT$alloc..vec..Vec$LT$T$GT$$u20$as$u20$core..ops..index..IndexMut$LT$I$GT$$GT$::index_mut::he44be8d30c76d96e
PUBLIC bd60 0 std::fs::OpenOptions::open::ha3ce895b43099d16
PUBLIC bdf0 0 std::fs::File::open::h51c0f8ffa78842d0
PUBLIC be90 0 std::io::Read::read_to_string::hc2836148bb336d3b
PUBLIC bed0 0 std::io::impls::_$LT$impl$u20$std..io..Read$u20$for$u20$$RF$$u27$a$u20$mut$u20$R$GT$::initializer::h07b9dcc4fa529409
PUBLIC bf00 0 _$LT$std..sync..rwlock..RwLockWriteGuard$LT$$u27$a$C$$u20$T$GT$$u20$as$u20$core..ops..drop..Drop$GT$::drop::he8ffea7c4462ade9
PUBLIC bf40 0 _$LT$std..sync..rwlock..RwLockReadGuard$LT$$u27$rwlock$C$$u20$T$GT$$u20$as$u20$core..ops..deref..Deref$GT$::deref::h1510c02d0fcc4597
PUBLIC bf70 0 _$LT$std..sync..rwlock..RwLockWriteGuard$LT$$u27$rwlock$C$$u20$T$GT$$u20$as$u20$core..ops..deref..DerefMut$GT$::deref_mut::h8123198f0cc0d706
PUBLIC bfa0 0 _$LT$std..sync..rwlock..RwLock$LT$T$GT$$GT$::new::hcb46105b7ac99fc1
PUBLIC c090 0 _$LT$std..sync..rwlock..RwLock$LT$T$GT$$GT$::read::ha5c90063a8c647c8
PUBLIC c0d0 0 _$LT$std..sync..rwlock..RwLock$LT$T$GT$$GT$::write::hf1739ec8361ea1ac
PUBLIC c110 0 _$LT$std..sync..rwlock..RwLockReadGuard$LT$$u27$rwlock$C$$u20$T$GT$$GT$::new::h5c7ff3987336b8a8
PUBLIC c180 0 _$LT$std..sync..rwlock..RwLockReadGuard$LT$$u27$rwlock$C$$u20$T$GT$$GT$::new::_$u7b$$u7b$closure$u7d$$u7d$::h9046db6942f3dd2a
PUBLIC c1b0 0 _$LT$std..sync..rwlock..RwLockWriteGuard$LT$$u27$rwlock$C$$u20$T$GT$$GT$::new::hbffacddbad1987ea
PUBLIC c220 0 _$LT$std..sync..rwlock..RwLockWriteGuard$LT$$u27$rwlock$C$$u20$T$GT$$GT$::new::_$u7b$$u7b$closure$u7d$$u7d$::h66d76b6ded3a12e8
PUBLIC c260 0 _$LT$std..sync..rwlock..RwLock$LT$T$GT$$u20$as$u20$core..ops..drop..Drop$GT$::drop::h3c3cca2b2ebecee2
PUBLIC c280 0 _$LT$std..sync..rwlock..RwLockReadGuard$LT$$u27$a$C$$u20$T$GT$$u20$as$u20$core..ops..drop..Drop$GT$::drop::h420a065e4aea6490
PUBLIC c2a0 0 std::io::error::Error::new::hf8d084b417d82779
PUBLIC c310 0 _$LT$T$u20$as$u20$core..convert..From$LT$T$GT$$GT$::from::h57979b466b00d824
PUBLIC c330 0 core::ops::function::FnOnce::call_once::h0f4e8fa3294b1796
PUBLIC c350 0 core::ops::function::FnOnce::call_once::hf40e5f2347b9aca2
PUBLIC c390 0 core::ptr::drop_in_place::h02b683c813564a2c
PUBLIC c3a0 0 core::ptr::drop_in_place::h03315188bfb0c194
PUBLIC c3e0 0 core::ptr::drop_in_place::h0cf065494e3292ae
PUBLIC c410 0 core::ptr::drop_in_place::h13d63d93fd6bc2f1
PUBLIC c460 0 core::ptr::drop_in_place::h167745a1bc015b81
PUBLIC c470 0 core::ptr::drop_in_place::h19bc113e96580605
PUBLIC c480 0 core::ptr::drop_in_place::h1af709382f50a923
PUBLIC c490 0 core::ptr::drop_in_place::h1cebb0ac79ebfa92
PUBLIC c4a0 0 core::ptr::drop_in_place::h20d08df718ecc540
PUBLIC c4f0 0 core::ptr::drop_in_place::h23b3da54eb19961a
PUBLIC c520 0 core::ptr::drop_in_place::h26284bd2574eafbd
PUBLIC c530 0 core::ptr::drop_in_place::h284a113d2635c7df
PUBLIC c570 0 core::ptr::drop_in_place::h288091a1cb9e3f5e
PUBLIC c5b0 0 core::ptr::drop_in_place::h2a704af6c1b417f1
PUBLIC c5c0 0 core::ptr::drop_in_place::h2f51378d98269547
PUBLIC c5d0 0 core::ptr::drop_in_place::h2f8c345575c2fda5
PUBLIC c660 0 core::ptr::drop_in_place::h3015caa22663d81f
PUBLIC c6a0 0 core::ptr::drop_in_place::h33be3e8f0f9790a9
PUBLIC c6c0 0 core::ptr::drop_in_place::h3678322136053fe7
PUBLIC c6d0 0 core::ptr::drop_in_place::h37f9412accb7ab16
PUBLIC c6e0 0 core::ptr::drop_in_place::h3c80b2e58b3675c1
PUBLIC c6f0 0 core::ptr::drop_in_place::h3cca5005cfa1b8d0
PUBLIC c700 0 core::ptr::drop_in_place::h415b8078d4366900
PUBLIC c710 0 core::ptr::drop_in_place::h41cee7ffea688b51
PUBLIC c780 0 core::ptr::drop_in_place::h4a99f15aacddbe92
PUBLIC c790 0 core::ptr::drop_in_place::h4b892c235a3d43d7
PUBLIC c7c0 0 core::ptr::drop_in_place::h4d6d9586bda29835
PUBLIC c7d0 0 core::ptr::drop_in_place::h50c170c293c40a23
PUBLIC c7e0 0 core::ptr::drop_in_place::h557151ec7fa2ecd2
PUBLIC c800 0 core::ptr::drop_in_place::h57a00c7d4892bfb7
PUBLIC c820 0 core::ptr::drop_in_place::h5932635a824594a4
PUBLIC c870 0 core::ptr::drop_in_place::h62b61cc8966cc86e
PUBLIC c890 0 core::ptr::drop_in_place::h64476e696eb96af8
PUBLIC c8a0 0 core::ptr::drop_in_place::h6996b200d92aa6b5
PUBLIC c930 0 core::ptr::drop_in_place::h6bc35338df6b53f8
PUBLIC c960 0 core::ptr::drop_in_place::h6c49937819718a64
PUBLIC c970 0 core::ptr::drop_in_place::h70596c98c441b704
PUBLIC c980 0 core::ptr::drop_in_place::h76cf2b5384605a47
PUBLIC c9d0 0 core::ptr::drop_in_place::h800bccee6d4f1cad
PUBLIC c9e0 0 core::ptr::drop_in_place::h8cce405a8cf82c73
PUBLIC ca30 0 core::ptr::drop_in_place::h923b2569043910e2
PUBLIC ca80 0 core::ptr::drop_in_place::h92d2b30761f157e6
PUBLIC ca90 0 core::ptr::drop_in_place::h93052ca43acc0d56
PUBLIC cb20 0 core::ptr::drop_in_place::h938114a153252fb4
PUBLIC cb60 0 core::ptr::drop_in_place::h98eb20e688610e6c
PUBLIC cb70 0 core::ptr::drop_in_place::h9c189574826964af
PUBLIC ccc0 0 core::ptr::drop_in_place::h9cbeea60c6b662a0
PUBLIC ccd0 0 core::ptr::drop_in_place::h9d90d93f94d78833
PUBLIC cce0 0 core::ptr::drop_in_place::h9e7b4b9ea31d5d0b
PUBLIC ccf0 0 core::ptr::drop_in_place::ha2db6808b28d037e
PUBLIC cd80 0 core::ptr::drop_in_place::ha35160ff1877a890
PUBLIC cd90 0 core::ptr::drop_in_place::ha7a839feb5e8e552
PUBLIC ce00 0 core::ptr::drop_in_place::hb1e9dba62d81c8ba
PUBLIC ce30 0 core::ptr::drop_in_place::hba11ac4097fd21b7
PUBLIC ce80 0 core::ptr::drop_in_place::hbbc0291673933ce8
PUBLIC cec0 0 core::ptr::drop_in_place::hbe1f47360e1616dd
PUBLIC ced0 0 core::ptr::drop_in_place::hbf11ca71c05fab55
PUBLIC cee0 0 core::ptr::drop_in_place::hc0080867942287a8
PUBLIC cf20 0 core::ptr::drop_in_place::hc232b2f135799000
PUBLIC cf30 0 core::ptr::drop_in_place::hc5ffb53cb92d4278
PUBLIC cf40 0 core::ptr::drop_in_place::hc8a983a3041370e4
PUBLIC cf50 0 core::ptr::drop_in_place::hcb3f0fbb3381d41d
PUBLIC cf60 0 core::ptr::drop_in_place::hd637807138166f70
PUBLIC cfb0 0 core::ptr::drop_in_place::hd8e2cc9a736d286d
PUBLIC cff0 0 core::ptr::drop_in_place::he83ec336dc17fc15
PUBLIC d000 0 core::ptr::drop_in_place::hec280f20e6eb26c1
PUBLIC d030 0 core::ptr::drop_in_place::hf31c902df0100a17
PUBLIC d040 0 core::ptr::drop_in_place::hf43fcda97fb4ec2b
PUBLIC d050 0 core::ptr::drop_in_place::hfd11499491727a00
PUBLIC d060 0 alloc::raw_vec::alloc_guard::h6121a3888d76e961
PUBLIC d0d0 0 std::sys::unix::rwlock::RWLock::raw_unlock::h2121887d22d04149
PUBLIC d100 0 std::sys::unix::rwlock::RWLock::read_unlock::h54c4901a2b217913
PUBLIC d140 0 std::sys::unix::rwlock::RWLock::write_unlock::hd19ea68806bcb0b3
PUBLIC d180 0 std::sys::unix::rwlock::RWLock::new::h4e43e026fa75d2bb
PUBLIC d230 0 std::sys::unix::rwlock::RWLock::read::hb1987ba4d847750e
PUBLIC d320 0 std::sys::unix::rwlock::RWLock::write::h1b40d433f8d04359
PUBLIC d430 0 std::sys::unix::rwlock::RWLock::destroy::hab0c5a913bd54f2d
PUBLIC d460 0 _$LT$alloc..collections..CollectionAllocErr$u20$as$u20$core..convert..From$LT$core..alloc..AllocErr$GT$$GT$::from::h4b54878510233072
PUBLIC d480 0 _$LT$core..ops..range..RangeFrom$LT$usize$GT$$u20$as$u20$core..slice..SliceIndex$LT$$u5b$T$u5d$$GT$$GT$::index_mut::h919abca7840cd16e
PUBLIC d500 0 core::iter::range::_$LT$impl$u20$core..iter..iterator..Iterator$u20$for$u20$core..ops..range..Range$LT$A$GT$$GT$::next::h5fe9e17bbe672787
PUBLIC d610 0 _$LT$I$u20$as$u20$core..iter..traits..IntoIterator$GT$::into_iter::hfd816e367f5c9f4a
PUBLIC d630 0 _$LT$core..ops..range..RangeFull$u20$as$u20$core..slice..SliceIndex$LT$$u5b$T$u5d$$GT$$GT$::index_mut::ha3be7569825f451b
PUBLIC d650 0 _$LT$core..ops..range..Range$LT$usize$GT$$u20$as$u20$core..slice..SliceIndex$LT$$u5b$T$u5d$$GT$$GT$::get_unchecked_mut::hd748d3c34751fe01
PUBLIC d6c0 0 _$LT$core..ops..range..Range$LT$usize$GT$$u20$as$u20$core..slice..SliceIndex$LT$$u5b$T$u5d$$GT$$GT$::index_mut::h31ef8a5c1d77d806
PUBLIC d790 0 core::num::NonZeroUsize::new_unchecked::h7c3e90e7d21a609b
PUBLIC d7c0 0 core::num::NonZeroUsize::get::h84dcb50aa9f9b352
PUBLIC d7d0 0 core::num::_$LT$impl$u20$u32$GT$::wrapping_add::h50e8650f8aa31ae3
PUBLIC d800 0 core::num::_$LT$impl$u20$u32$GT$::max_value::h88c141404064ed62
PUBLIC d810 0 core::num::_$LT$impl$u20$usize$GT$::checked_add::h6ab3decd4397ae62
PUBLIC d880 0 core::num::_$LT$impl$u20$usize$GT$::checked_mul::hb160fdc1ad444752
PUBLIC d8f0 0 core::num::_$LT$impl$u20$usize$GT$::wrapping_add::h22f8a857b1989496
PUBLIC d920 0 core::num::_$LT$impl$u20$usize$GT$::wrapping_sub::h3262af94de6452fb
PUBLIC d950 0 core::num::_$LT$impl$u20$usize$GT$::overflowing_add::he8f1f82c1bd28194
PUBLIC d9c0 0 core::num::_$LT$impl$u20$usize$GT$::overflowing_mul::h3ca10f0b51652973
PUBLIC da40 0 _$LT$std..io..error..ErrorKind$u20$as$u20$core..cmp..PartialEq$GT$::eq::ha577708f27f63296
PUBLIC dae0 0 std::panicking::try::hae834ec33ac31c89
PUBLIC dbc0 0 std::panicking::try::hb7779540d3ab0d43
PUBLIC dca0 0 std::panicking::try::do_call::h68b665a99076e8a0
PUBLIC dcf0 0 std::panicking::try::do_call::hc1ca6e25aeaa5a61
PUBLIC dd40 0 _$LT$alloc..raw_vec..RawVec$LT$T$GT$$GT$::from_raw_parts::hb304d282f4ef6aaa
PUBLIC dd80 0 _$LT$alloc..raw_vec..RawVec$LT$T$GT$$GT$::new::h9f25a6adc1fbd96f
PUBLIC dda0 0 _$LT$alloc..raw_vec..RawVec$LT$T$GT$$GT$::new::heef0697744e999fe
PUBLIC ddc0 0 _$LT$alloc..raw_vec..RawVec$LT$T$C$$u20$A$GT$$GT$::current_layout::hdf8f83e9f2609d1c
PUBLIC de50 0 _$LT$alloc..raw_vec..RawVec$LT$T$C$$u20$A$GT$$GT$::dealloc_buffer::h39f2e1aadfb8d944
PUBLIC df00 0 _$LT$alloc..raw_vec..RawVec$LT$T$C$$u20$A$GT$$GT$::reserve_internal::h28f0125eaa7f3e21
PUBLIC e650 0 _$LT$alloc..raw_vec..RawVec$LT$T$C$$u20$A$GT$$GT$::reserve_internal::h86c3482846e90b60
PUBLIC eda0 0 _$LT$alloc..raw_vec..RawVec$LT$T$C$$u20$A$GT$$GT$::reserve_internal::_$u7b$$u7b$closure$u7d$$u7d$::hbdff34f3fcb858df
PUBLIC edc0 0 _$LT$alloc..raw_vec..RawVec$LT$T$C$$u20$A$GT$$GT$::reserve_internal::_$u7b$$u7b$closure$u7d$$u7d$::hf1da83e7232f2030
PUBLIC ede0 0 _$LT$alloc..raw_vec..RawVec$LT$T$C$$u20$A$GT$$GT$::amortized_new_size::h596786384972ecfd
PUBLIC ef30 0 _$LT$alloc..raw_vec..RawVec$LT$T$C$$u20$A$GT$$GT$::amortized_new_size::h5bf479b8396dd954
PUBLIC f080 0 _$LT$alloc..raw_vec..RawVec$LT$T$C$$u20$A$GT$$GT$::ptr::h113a2d731593f367
PUBLIC f0b0 0 _$LT$alloc..raw_vec..RawVec$LT$T$C$$u20$A$GT$$GT$::new_in::h5957a4af739ce162
PUBLIC f170 0 _$LT$alloc..raw_vec..RawVec$LT$T$C$$u20$A$GT$$GT$::new_in::hd005d9353ae2b530
PUBLIC f230 0 _$LT$alloc..raw_vec..RawVec$LT$T$C$$u20$A$GT$$GT$::reserve::h085f6ae5f19579e6
PUBLIC f300 0 _$LT$alloc..raw_vec..RawVec$LT$T$C$$u20$A$GT$$GT$::reserve::h417e86ebede2d3fb
PUBLIC f3d0 0 _$LT$alloc..raw_vec..RawVec$LT$T$C$$u20$A$GT$$u20$as$u20$core..ops..drop..Drop$GT$::drop::h1a8b4052be5db900
PUBLIC f3e0 0 std::sys_common::rwlock::RWLock::read_unlock::hf74134b34fa7175e
PUBLIC f3f0 0 std::sys_common::rwlock::RWLock::write_unlock::h7fa978529d6fc1cf
PUBLIC f400 0 std::sys_common::rwlock::RWLock::new::h9225e12e83ccb827
PUBLIC f440 0 std::sys_common::rwlock::RWLock::read::h1f6936004b5ac23d
PUBLIC f450 0 std::sys_common::rwlock::RWLock::write::h6f544ca3e293e14c
PUBLIC f460 0 std::sys_common::rwlock::RWLock::destroy::h288a785355c54917
PUBLIC f470 0 core::time::Duration::from_millis::h3cd1468849627822
PUBLIC f500 0 core::sync::atomic::atomic_add::hb95742d0549fd5a1
PUBLIC f630 0 core::sync::atomic::atomic_load::h61b5695fb720d1ef
PUBLIC f6e0 0 core::sync::atomic::atomic_load::he56772d8e327c4d1
PUBLIC f790 0 core::sync::atomic::atomic_store::hc33cc5d8a9112bd8
PUBLIC f890 0 core::str::_$LT$impl$u20$str$GT$::parse::hdaba2676b9f6a000
PUBLIC f8d0 0 _$LT$alloc..boxed..Box$LT$T$GT$$GT$::into_unique::h0f9fa5fa81e40c5a
PUBLIC f900 0 _$LT$alloc..boxed..Box$LT$T$GT$$GT$::into_unique::h7cbec014b0a788fb
PUBLIC f930 0 _$LT$alloc..boxed..Box$LT$T$GT$$GT$::into_raw_non_null::h6ed00b042b6008e3
PUBLIC f960 0 _$LT$alloc..boxed..Box$LT$T$GT$$GT$::into_raw_non_null::h8ba03e98635c0572
PUBLIC f990 0 _$LT$alloc..boxed..Box$LT$T$GT$$u20$as$u20$core..fmt..Debug$GT$::fmt::h560075279fe89465
PUBLIC f9d0 0 std::rt::lang_start::h5f945d92026732b9
PUBLIC fa30 0 std::rt::lang_start::_$u7b$$u7b$closure$u7d$$u7d$::h48df748a84bf3f17
PUBLIC fa60 0 alloc::alloc::box_free::h2edf0b24bdae2e3c
PUBLIC fae0 0 alloc::alloc::box_free::h3288d1ca6386075e
PUBLIC fb50 0 alloc::alloc::box_free::h3c516b9a50d67493
PUBLIC fbc0 0 alloc::alloc::box_free::h509297748defc006
PUBLIC fc30 0 alloc::alloc::box_free::h87dac3332095a073
PUBLIC fca0 0 alloc::alloc::box_free::h8a547aab744a6e08
PUBLIC fd10 0 alloc::alloc::box_free::he43ea8b0f83bef98
PUBLIC fd80 0 alloc::alloc::box_free::heb148cd0fc265b92
PUBLIC fdf0 0 core::ptr::swap_nonoverlapping_bytes::heb37a324b7f09ffd
PUBLIC ffd0 0 _$LT$I$u20$as$u20$core..iter..traits..IntoIterator$GT$::into_iter::h18dec19763a806f1
PUBLIC fff0 0 _$LT$core..iter..Map$LT$I$C$$u20$F$GT$$u20$as$u20$core..iter..iterator..Iterator$GT$::next::h6ca0f5f3d0489fdd
PUBLIC 10040 0 _$LT$core..cell..UnsafeCell$LT$T$GT$$GT$::get::h0e4494b6cb09c61a
PUBLIC 10050 0 _$LT$core..cell..UnsafeCell$LT$T$GT$$GT$::get::hbde9ed786ab62af9
PUBLIC 10060 0 _$LT$core..cell..UnsafeCell$LT$T$GT$$GT$::get::hcff4fc58a01b3e9a
PUBLIC 10070 0 _$LT$core..cell..UnsafeCell$LT$T$GT$$GT$::get::hda9ec1df0f02dcce
PUBLIC 10080 0 _$LT$core..cell..UnsafeCell$LT$T$GT$$GT$::get::hdae7ad04274fe251
PUBLIC 10090 0 _$LT$core..cell..UnsafeCell$LT$T$GT$$GT$::new::h018a957039ff4992
PUBLIC 100d0 0 _$LT$core..cell..UnsafeCell$LT$T$GT$$GT$::new::h06031471395bbc14
PUBLIC 10100 0 _$LT$core..cell..UnsafeCell$LT$T$GT$$GT$::new::h54008c5bc8629878
PUBLIC 10120 0 _$LT$core..cell..UnsafeCell$LT$T$GT$$GT$::new::h646a6bce249f01b0
PUBLIC 10140 0 _$LT$core..cell..UnsafeCell$LT$T$GT$$GT$::new::h64dbd8b3ff74c9d5
PUBLIC 101a0 0 core::cmp::impls::_$LT$impl$u20$core..cmp..PartialOrd$u20$for$u20$i32$GT$::lt::h56b98f7f4f0e39c5
PUBLIC 101d0 0 core::slice::size_from_ptr::hdfafafed9d109f0e
PUBLIC 101f0 0 core::slice::from_raw_parts::h5894dbe0bc51bf7c
PUBLIC 10240 0 core::slice::from_raw_parts_mut::ha961b97294b2aeba
PUBLIC 10290 0 core::slice::_$LT$impl$u20$$u5b$T$u5d$$GT$::get_unchecked_mut::h9f732fe6486b7ec7
PUBLIC 102d0 0 core::slice::_$LT$impl$u20$core..ops..index..IndexMut$LT$I$GT$$u20$for$u20$$u5b$T$u5d$$GT$::index_mut::hdf32925285c0d118
PUBLIC 10310 0 _$LT$I$u20$as$u20$core..iter..traits..IntoIterator$GT$::into_iter::h5a1da8274f8fcbf3
PUBLIC 10330 0 _$LT$usize$u20$as$u20$core..slice..SliceIndex$LT$$u5b$T$u5d$$GT$$GT$::get_unchecked_mut::h7307196e771b6e29
PUBLIC 10380 0 _$LT$core..slice..Iter$LT$$u27$a$C$$u20$T$GT$$u20$as$u20$core..iter..iterator..Iterator$GT$::next::hd0fe6580801079a2
PUBLIC 104c0 0 _$LT$T$u20$as$u20$core..convert..Into$LT$U$GT$$GT$::into::h3b1726318a2c1e7a
PUBLIC 10500 0 std::sys_common::mutex::Mutex::destroy::ha028e7afd2712936
PUBLIC 10510 0 _$LT$std..panic..AssertUnwindSafe$LT$F$GT$$u20$as$u20$core..ops..function..FnOnce$LT$$LP$$RP$$GT$$GT$::call_once::h0cca624e737415ce
PUBLIC 10530 0 _$LT$std..panic..AssertUnwindSafe$LT$F$GT$$u20$as$u20$core..ops..function..FnOnce$LT$$LP$$RP$$GT$$GT$::call_once::ha2e5a2f412ab8ded
PUBLIC 10550 0 std::panic::catch_unwind::h2dd76530f98ccdf9
PUBLIC 10580 0 std::panic::catch_unwind::h4d86efd7ef4dab6d
PUBLIC 105b0 0 core::hint::unreachable_unchecked::hbf821a4f05cceb63
PUBLIC 105c0 0 _$LT$$LP$$RP$$u20$as$u20$std..process..Termination$GT$::report::h38748f4a5ae1b938
PUBLIC 105e0 0 _$LT$std..process..ExitCode$u20$as$u20$std..process..Termination$GT$::report::hd7632236072cb16e
PUBLIC 10600 0 std::sys_common::poison::map_result::h35b50fb9d8ff9e3d
PUBLIC 107c0 0 std::sys_common::poison::map_result::h646aa614633fc749
PUBLIC 10950 0 _$LT$std..sys_common..poison..PoisonError$LT$T$GT$$GT$::new::h1a9a1512227def70
PUBLIC 10980 0 _$LT$std..sys_common..poison..PoisonError$LT$T$GT$$GT$::new::hac287e35b15be9f8
PUBLIC 109a0 0 _$LT$std..sys_common..poison..PoisonError$LT$T$GT$$GT$::new::hca166b315ef57e93
PUBLIC 109d0 0 _$LT$std..sys_common..poison..PoisonError$LT$T$GT$$u20$as$u20$core..fmt..Debug$GT$::fmt::h6ea3cfd275e76bc1
PUBLIC 10a20 0 _$LT$std..sys_common..poison..PoisonError$LT$T$GT$$u20$as$u20$core..fmt..Debug$GT$::fmt::hf358fcbd57c21768
PUBLIC 10a70 0 std::io::read_to_end::h24efbb71ef6bd007
PUBLIC 10f20 0 std::io::append_to_string::h16040fb1c8eb2e9b
PUBLIC 11160 0 std::io::append_to_string::_$u7b$$u7b$closure$u7d$$u7d$::h3cc67167b3e780ca
PUBLIC 111d0 0 std::io::Read::read_to_string::_$u7b$$u7b$closure$u7d$$u7d$::hc8410ae51268f2e3
PUBLIC 11200 0 core::fmt::Arguments::new_v1_formatted::hf10704ff82808ade
PUBLIC 11280 0 core::fmt::Arguments::new_v1::h3e1c840fd3521d53
PUBLIC 112e0 0 _$LT$core..mem..ManuallyDrop$LT$T$GT$$GT$::new::h3a7832ee4d222f08
PUBLIC 11320 0 _$LT$core..mem..ManuallyDrop$LT$T$GT$$GT$::new::h67af439a168ec50c
PUBLIC 11340 0 _$LT$core..mem..ManuallyDrop$LT$T$GT$$GT$::new::h992abc583f7325fc
PUBLIC 11360 0 core::mem::size_of_val::h551b752e80d2fdfb
PUBLIC 11390 0 core::mem::size_of_val::h59f7c80d2bb197b9
PUBLIC 113c0 0 core::mem::size_of_val::h85ae1223115ab685
PUBLIC 113f0 0 core::mem::align_of_val::h7220dd46b27aa625
PUBLIC 11420 0 core::mem::align_of_val::h7b855005a8cb27b9
PUBLIC 11450 0 core::mem::align_of_val::hd5587155e03cb62a
PUBLIC 11480 0 core::mem::uninitialized::h45e16db41bb99f8e
PUBLIC 11490 0 core::mem::uninitialized::h62a20f58d103856b
PUBLIC 114c0 0 core::mem::uninitialized::h76a8e3c9e8a4443d
PUBLIC 114e0 0 core::mem::uninitialized::h77ef59402643e1b1
PUBLIC 114f0 0 core::mem::uninitialized::h93afb7a5d0c9c191
PUBLIC 11510 0 core::mem::swap::h3c7b76f1fe0adbbc
PUBLIC 11540 0 core::mem::swap::ha77399c8ea96a947
PUBLIC 11570 0 core::mem::swap::hd2d04f2e63f3f8c7
PUBLIC 115a0 0 core::mem::forget::h96ca5e91f18019c8
PUBLIC 115c0 0 core::mem::forget::h97faec6b6e5730ec
PUBLIC 11600 0 core::mem::forget::hfb11eab76b0c3e5c
PUBLIC 11620 0 core::mem::replace::h53ce906ce50c98eb
PUBLIC 116a0 0 core::mem::replace::h65ed3cd7d3ee7561
PUBLIC 11700 0 core::mem::size_of::h3f609b829fcd7444
PUBLIC 11720 0 core::mem::size_of::ha1f6fe6cb4c29fe4
PUBLIC 11740 0 core::mem::size_of::hcdc2d8415af57f06
PUBLIC 11760 0 core::mem::align_of::he267f74fc8ae9d1b
PUBLIC 11780 0 _$LT$core..option..Option$LT$T$GT$$GT$::get_or_insert::h8cb98861171e0f5e
PUBLIC 11910 0 _$LT$core..option..Option$LT$T$GT$$GT$::unwrap_or_else::hde284a16ec41c68b
PUBLIC 119f0 0 _$LT$core..option..Option$LT$T$GT$$GT$::map::h000e0e5798a31c6c
PUBLIC 11c30 0 _$LT$core..option..Option$LT$T$GT$$GT$::take::h7bd55f518be4bebb
PUBLIC 11c70 0 _$LT$core..option..Option$LT$T$GT$$GT$::take::hfd5f5122551323aa
PUBLIC 11cb0 0 _$LT$core..option..Option$LT$T$GT$$GT$::expect::hb19fb795e09d046b
PUBLIC 11d90 0 _$LT$core..option..Option$LT$T$GT$$GT$::unwrap::h1bda9706bf739ea9
PUBLIC 11e50 0 _$LT$core..option..Option$LT$T$GT$$GT$::unwrap::h2e85b9b23fefd2dd
PUBLIC 11ef0 0 _$LT$core..option..Option$LT$T$GT$$GT$::unwrap::hf853897840405fa1
PUBLIC 11fe0 0 _$LT$alloc..sync..Arc$LT$T$GT$$GT$::new::h2a08e7cf70fb6875
PUBLIC 12110 0 _$LT$alloc..sync..Arc$LT$T$GT$$GT$::new::h7e0d46574c7e6017
PUBLIC 12230 0 _$LT$alloc..sync..Arc$LT$T$GT$$GT$::inner::h2b6d98284b99c1ed
PUBLIC 12260 0 _$LT$alloc..sync..Arc$LT$T$GT$$GT$::inner::hadc4264cf64524e4
PUBLIC 12290 0 _$LT$alloc..sync..Arc$LT$T$GT$$GT$::inner::hec6964f377d4b9b9
PUBLIC 122c0 0 _$LT$alloc..sync..Arc$LT$T$GT$$GT$::drop_slow::h0f585760fc94af8d
PUBLIC 12390 0 _$LT$alloc..sync..Arc$LT$T$GT$$GT$::drop_slow::h3da9f7cc94b20aa4
PUBLIC 12460 0 _$LT$alloc..sync..Arc$LT$T$GT$$GT$::drop_slow::hd96037fa566931b8
PUBLIC 12530 0 _$LT$alloc..sync..Arc$LT$T$GT$$u20$as$u20$core..clone..Clone$GT$::clone::h3878ca98cabc95c0
PUBLIC 125a0 0 _$LT$alloc..sync..Arc$LT$T$GT$$u20$as$u20$core..clone..Clone$GT$::clone::h6030d21edbbe356f
PUBLIC 12610 0 _$LT$alloc..sync..Arc$LT$T$GT$$u20$as$u20$core..clone..Clone$GT$::clone::h867bd43b56dc7925
PUBLIC 12680 0 _$LT$alloc..sync..Arc$LT$T$GT$$u20$as$u20$core..ops..drop..Drop$GT$::drop::h4d4cd95c2962ba0f
PUBLIC 126f0 0 _$LT$alloc..sync..Arc$LT$T$GT$$u20$as$u20$core..ops..drop..Drop$GT$::drop::ha7c54b319ee87cc2
PUBLIC 12760 0 _$LT$alloc..sync..Arc$LT$T$GT$$u20$as$u20$core..ops..drop..Drop$GT$::drop::hb7bb90b0b5292cf8
PUBLIC 127d0 0 _$LT$alloc..sync..Arc$LT$T$GT$$u20$as$u20$core..ops..deref..Deref$GT$::deref::h0b834238a4a1a780
PUBLIC 12800 0 _$LT$alloc..sync..Arc$LT$T$GT$$u20$as$u20$core..ops..deref..Deref$GT$::deref::h8717d7b281fe25b6
PUBLIC 12830 0 core::fmt::num::_$LT$impl$u20$core..fmt..Debug$u20$for$u20$i32$GT$::fmt::h7d36af124e0749cc
PUBLIC 128d0 0 _$LT$std..sync..mutex..Mutex$LT$T$GT$$u20$as$u20$core..ops..drop..Drop$GT$::drop::h1f0e8c42762f025d
PUBLIC 128f0 0 sample_once::fun_one::h8c9babd3e33fc828
PUBLIC 12bf0 0 sample_once::boring_one::hb55354352c9d49bd
PUBLIC 12dd0 0 sample_once::sample_once::h01b894fbf7120e06
PUBLIC 131b0 0 sample_once::main::he6c1974d51a143f9
PUBLIC 13fc0 0 main
PUBLIC 14000 0 core::sync::atomic::AtomicBool::new::hef55182126927b0e
PUBLIC 14030 0 core::sync::atomic::AtomicBool::load::hfdf8a7a865100ba5
PUBLIC 14080 0 core::sync::atomic::AtomicBool::store::hac0cc64461645625
PUBLIC 140d0 0 core::sync::atomic::AtomicUsize::new::h47b86a0052079e20
PUBLIC 14100 0 core::sync::atomic::AtomicUsize::load::hd78b7df14d24470b
PUBLIC 14140 0 core::sync::atomic::AtomicUsize::fetch_add::hb51571e27e64916b
PUBLIC 14190 0 core::sync::atomic::AtomicUsize::fetch_sub::hbcdb0f0cf3e46190
PUBLIC 141e0 0 core::sync::atomic::fence::hf6901aff7c89cfde
PUBLIC 14250 0 std::io::Initializer::initialize::h7d2cf991a0e6621d
PUBLIC 142d0 0 std::io::Initializer::should_initialize::h4f48492bbb2c04e7
PUBLIC 142f0 0 std::io::Initializer::nop::hac1ada05c5c3fd11
PUBLIC 14310 0 sample_once::sample_once::_$u7b$$u7b$closure$u7d$$u7d$::ha711d1d9c9371b29
PUBLIC 14380 0 sample_once::main::_$u7b$$u7b$closure$u7d$$u7d$::hcc2f0b80c4287b20
PUBLIC 14390 0 sample_once::main::_$u7b$$u7b$closure$u7d$$u7d$::h0f5a17e99e877b30
PUBLIC 143a0 0 std::sys_common::backtrace::__rust_begin_short_backtrace::he981f5a1b884f16c
PUBLIC 143c0 0 std::sys_common::backtrace::__rust_begin_short_backtrace::he9d0b831e03bdb3a
PUBLIC 143e0 0 _$LT$std..ffi..c_str..CString$u20$as$u20$core..ops..drop..Drop$GT$::drop::hffd21ed2cf6102d2
PUBLIC 14420 0 _$LT$i32$u20$as$u20$core..iter..range..Step$GT$::add_usize::h07233cf88e030301
PUBLIC 144d0 0 core::fmt::ArgumentV1::new::h04c660b2962bee1f
PUBLIC 14530 0 core::fmt::ArgumentV1::new::h2ec47e91ee3a22e8
PUBLIC 14590 0 core::fmt::ArgumentV1::new::hb4f7fe1f99181c52
PUBLIC 145f0 0 core::fmt::ArgumentV1::new::hbbe9d385b40ba485
PUBLIC 14650 0 core::fmt::ArgumentV1::new::hc244724ed206af42
PUBLIC 146b0 0 core::fmt::ArgumentV1::new::hc255c141f1256977
PUBLIC 14710 0 core::fmt::ArgumentV1::new::hca97158c699b3817
PUBLIC 14770 0 core::fmt::ArgumentV1::new::he6502ff8f535b2e4
PUBLIC 147d0 0 core::fmt::ArgumentV1::new::hf7afd7556bef06f1
PUBLIC 14830 0 core::fmt::ArgumentV1::new::hfac9ae22704d2857
PUBLIC 14890 0 core::str::from_utf8_unchecked::he82c1e87d25c3ebb
PUBLIC 148b0 0 _$LT$core..ptr..NonNull$LT$T$GT$$u20$as$u20$core..convert..From$LT$core..ptr..Unique$LT$T$GT$$GT$$GT$::from::h18f0bb0370ce5e8e
PUBLIC 148d0 0 _$LT$core..ptr..NonNull$LT$T$GT$$u20$as$u20$core..convert..From$LT$core..ptr..Unique$LT$T$GT$$GT$$GT$::from::hdfc5c2d3efca6c1b
PUBLIC 148f0 0 _$LT$core..ptr..NonNull$LT$T$GT$$u20$as$u20$core..convert..From$LT$core..ptr..Unique$LT$T$GT$$GT$$GT$::from::hf0d66f6f2d748bae
PUBLIC 14910 0 _$LT$core..ptr..Unique$LT$T$GT$$u20$as$u20$core..convert..From$LT$core..ptr..NonNull$LT$T$GT$$GT$$GT$::from::h3fc8c60d0a4b96b1
PUBLIC 14930 0 _$LT$core..ptr..Unique$LT$T$GT$$GT$::new_unchecked::h2de7bd4378247bda
PUBLIC 14960 0 _$LT$core..ptr..Unique$LT$T$GT$$GT$::new_unchecked::hb8e2bb486437160c
PUBLIC 14990 0 _$LT$core..ptr..Unique$LT$T$GT$$GT$::empty::h2f13456466d3d6d8
PUBLIC 149c0 0 _$LT$core..ptr..Unique$LT$T$GT$$GT$::empty::he80b4a522731409b
PUBLIC 149f0 0 _$LT$core..ptr..Unique$LT$T$GT$$GT$::as_ptr::h0719dd0435d89d39
PUBLIC 14a00 0 _$LT$core..ptr..Unique$LT$T$GT$$GT$::as_ptr::h1f6004d06986f887
PUBLIC 14a10 0 _$LT$core..ptr..Unique$LT$T$GT$$GT$::as_ptr::h3b1b46c98619b706
PUBLIC 14a20 0 _$LT$core..ptr..Unique$LT$T$GT$$GT$::as_ptr::h42e9aad120302af3
PUBLIC 14a30 0 _$LT$core..ptr..Unique$LT$T$GT$$GT$::as_ptr::h613395e872134b9c
PUBLIC 14a40 0 _$LT$core..ptr..Unique$LT$T$GT$$GT$::as_ptr::h6d1b737ccb4aae42
PUBLIC 14a50 0 _$LT$core..ptr..Unique$LT$T$GT$$GT$::as_ptr::had3f6b04933eecfe
PUBLIC 14a70 0 _$LT$core..ptr..Unique$LT$T$GT$$GT$::as_ptr::he979f6dbb7ae4318
PUBLIC 14a80 0 _$LT$core..ptr..Unique$LT$T$GT$$GT$::as_ptr::hfc5bb44cf9d93ed0
PUBLIC 14a90 0 _$LT$core..ptr..NonNull$LT$T$GT$$GT$::new_unchecked::h6d6663a7e60d1935
PUBLIC 14ac0 0 _$LT$core..ptr..NonNull$LT$T$GT$$GT$::cast::h01e6d2cfef587026
PUBLIC 14b00 0 _$LT$core..ptr..NonNull$LT$T$GT$$GT$::cast::h88e3e44084a2179e
PUBLIC 14b40 0 _$LT$core..ptr..NonNull$LT$T$GT$$GT$::cast::hc0ec05f97476c086
PUBLIC 14b80 0 _$LT$core..ptr..NonNull$LT$T$GT$$GT$::cast::he75f006721ba21a0
PUBLIC 14bc0 0 _$LT$core..ptr..NonNull$LT$T$GT$$GT$::cast::hf684d810f0b37048
PUBLIC 14c00 0 _$LT$core..ptr..NonNull$LT$T$GT$$GT$::as_mut::h5a29d7dc5b8daeba
PUBLIC 14c30 0 _$LT$core..ptr..NonNull$LT$T$GT$$GT$::as_mut::ha5d7bd3315c33f12
PUBLIC 14c60 0 _$LT$core..ptr..NonNull$LT$T$GT$$GT$::as_mut::hb5e1c4d00924a582
PUBLIC 14c90 0 _$LT$core..ptr..NonNull$LT$T$GT$$GT$::as_ptr::h04493f9275924d51
PUBLIC 14ca0 0 _$LT$core..ptr..NonNull$LT$T$GT$$GT$::as_ptr::h92b0c2775c837f4d
PUBLIC 14cb0 0 _$LT$core..ptr..NonNull$LT$T$GT$$GT$::as_ptr::hd4e239b25c00ca19
PUBLIC 14cc0 0 _$LT$core..ptr..NonNull$LT$T$GT$$GT$::as_ptr::he7b333d7b3bc6159
PUBLIC 14cd0 0 _$LT$core..ptr..NonNull$LT$T$GT$$GT$::as_ref::h3b60383e54876cb6
PUBLIC 14d00 0 _$LT$core..ptr..NonNull$LT$T$GT$$GT$::as_ref::hbac10aaaf47764d1
PUBLIC 14d30 0 _$LT$core..ptr..NonNull$LT$T$GT$$GT$::as_ref::hf08979a47fcf912c
PUBLIC 14d60 0 core::ptr::swap_nonoverlapping::h3c9eb56313863a6e
PUBLIC 14dc0 0 core::ptr::swap_nonoverlapping::h5f6c9fca2c10e615
PUBLIC 14e20 0 core::ptr::swap_nonoverlapping::h7908c40d05a6c01b
PUBLIC 14e80 0 core::ptr::swap_nonoverlapping_one::h346cccbe831ce303
PUBLIC 14f60 0 core::ptr::swap_nonoverlapping_one::h51f5a2e030feaae4
PUBLIC 15020 0 core::ptr::swap_nonoverlapping_one::h531f39a0bbd5db2e
PUBLIC 15110 0 core::ptr::read::h00c1e25239244062
PUBLIC 15150 0 core::ptr::read::h0312a3e1d437856c
PUBLIC 15180 0 core::ptr::read::h3539ec840dc39d7e
PUBLIC 151f0 0 core::ptr::read::h4635951abda46a28
PUBLIC 15270 0 core::ptr::read::h674a182e3135134e
PUBLIC 152a0 0 core::ptr::read::hed82699c9470eeba
PUBLIC 152d0 0 core::ptr::write::h0a99fd3f9d3c9c23
PUBLIC 15300 0 core::ptr::write::h4c70d8d6d6b12ced
PUBLIC 15310 0 core::ptr::write::h8f34f95a2a3d5997
PUBLIC 15340 0 core::ptr::write::h929a64a6d2b072a4
PUBLIC 15360 0 core::ptr::write::hdb2d29e244ed57a0
PUBLIC 15390 0 _$LT$T$u20$as$u20$core..convert..Into$LT$U$GT$$GT$::into::h6842f7e59e726b05
PUBLIC 153c0 0 _$LT$T$u20$as$u20$core..convert..Into$LT$U$GT$$GT$::into::hc6145d096594f53b
PUBLIC 153f0 0 _$LT$T$u20$as$u20$core..convert..Into$LT$U$GT$$GT$::into::hd999dab40490ac2d
PUBLIC 15420 0 alloc::string::String::as_mut_vec::h02578fc44890755c
PUBLIC 15430 0 alloc::string::String::len::hf77f8d14263b6699
PUBLIC 15460 0 alloc::string::String::new::hf0b45749b75e768d
PUBLIC 154b0 0 _$LT$alloc..string..String$u20$as$u20$core..fmt..Display$GT$::fmt::hd99253dc5ab8e1d3
PUBLIC 15500 0 _$LT$alloc..string..String$u20$as$u20$core..ops..deref..Deref$GT$::deref::h8514d3f7818a12c5
PUBLIC 15550 0 std::sys::unix::mutex::Mutex::destroy::hee76f8dda43c59d8
PUBLIC 15580 0 std::sys_common::poison::Flag::get::hd0d216e4ded15989
PUBLIC 155b0 0 std::sys_common::poison::Flag::new::h01e303fc750277f0
PUBLIC 155d0 0 std::sys_common::poison::Flag::done::h1186ba8b90f54785
PUBLIC 15640 0 std::sys_common::poison::Flag::borrow::h3b067d9a974ecaa9
PUBLIC 156c0 0 std::sys::unix::process::process_common::ExitCode::as_i32::h4daa5cf390a7d43f
PUBLIC 156d0 0 _$LT$std..fs..File$u20$as$u20$std..io..Read$GT$::initializer::h3290e34d942771f2
PUBLIC 156f0 0 core::alloc::Layout::padding_needed_for::he94e452a0dad12eb
PUBLIC 15790 0 core::alloc::Layout::from_size_align_unchecked::h1b32fd1025dd5cf9
PUBLIC 157e0 0 core::alloc::Layout::size::he30569347065154e
PUBLIC 157f0 0 core::alloc::Layout::align::hfd8a46ff69231e5d
PUBLIC 15820 0 core::alloc::Layout::repeat::h944df5001823cf73
PUBLIC 15ac0 0 core::alloc::size_align::h3e8cb1ebfe8e1e3c
PUBLIC 15b00 0 core::alloc::size_align::hd7902f4ded57bffe
PUBLIC 15b40 0 core::alloc::Layout::new::h1bbca1199e4c7103
PUBLIC 15b90 0 core::alloc::Layout::new::h21adaee382863f95
PUBLIC 15be0 0 core::alloc::Layout::array::hade88ab03d9adf30
PUBLIC 15c30 0 core::alloc::Layout::array::hbfcec35a0f97fa00
PUBLIC 15c80 0 core::alloc::Layout::array::_$u7b$$u7b$closure$u7d$$u7d$::h744976d5639e2681
PUBLIC 15cb0 0 core::alloc::Layout::array::_$u7b$$u7b$closure$u7d$$u7d$::h8ac87a0bc6bb4dcb
PUBLIC 15ce0 0 core::alloc::Layout::for_value::h16e0ef7d5ee91221
PUBLIC 15d60 0 core::alloc::Layout::for_value::h394128d22c883948
PUBLIC 15de0 0 core::alloc::Layout::for_value::h60ca68ec9bdc3f02
PUBLIC 15e60 0 __rust_alloc
PUBLIC 15e70 0 __rust_dealloc
PUBLIC 15e80 0 __rust_realloc
PUBLIC 15e90 0 __rust_alloc_zeroed
PUBLIC 15ea0 0 core::ptr::_$LT$impl$u20$$BP$mut$u20$T$GT$::offset::h73dc924866c5d29e
PUBLIC 15ee0 0 core::ptr::_$LT$impl$u20$$BP$mut$u20$T$GT$::is_null::h7d3d8f0780676d5f
PUBLIC 15f20 0 core::slice::_$LT$impl$u20$$u5b$T$u5d$$GT$::as_mut_ptr::hff778b159a97833c
PUBLIC 15f40 0 core::slice::_$LT$impl$u20$core..ops..index..IndexMut$LT$I$GT$$u20$for$u20$$u5b$T$u5d$$GT$::index_mut::h79acf44ff3fc5f8c
PUBLIC 15f80 0 vignette::lib_linux::thread_iterator::_$u7b$$u7b$closure$u7d$$u7d$::ha104509a781b2d91
PUBLIC 15fd0 0 _$LT$core..result..Result$LT$T$C$$u20$E$GT$$GT$::unwrap_or_else::hacee3a3b6c73e571
PUBLIC 16100 0 _$LT$core..result..Result$LT$T$C$$u20$E$GT$$GT$::map::hceeb608f2a4a459b
PUBLIC 16340 0 _$LT$core..result..Result$LT$T$C$$u20$E$GT$$GT$::map::he302e3ee9375fee9
PUBLIC 16580 0 _$LT$core..result..Result$LT$T$C$$u20$E$GT$$GT$::map::heb95977669ed2df2
PUBLIC 16780 0 _$LT$core..result..Result$LT$T$C$$u20$E$GT$$GT$::expect::h2bc7764e1f5c47e5
PUBLIC 168a0 0 _$LT$core..result..Result$LT$T$C$$u20$E$GT$$GT$::expect::h88eae60eeb9a4b65
PUBLIC 169e0 0 _$LT$core..result..Result$LT$T$C$$u20$E$GT$$GT$::expect::hf0eac3fe862dd7dd
PUBLIC 16ac0 0 _$LT$core..result..Result$LT$T$C$$u20$E$GT$$GT$::map_err::h93768b56943504f4
PUBLIC 16c40 0 core::result::unwrap_failed::h15e6bd0ef8279557
PUBLIC 16da0 0 vignette::lib_linux::gettid::h59df0c2d8f50b05c
PUBLIC 16dc0 0 vignette::lib_linux::get_current_thread::h71bda9f14e3bd4fe
PUBLIC 16de0 0 vignette::lib_linux::is_current_thread::hfe47978998e645d9
PUBLIC 16e10 0 vignette::lib_linux::PosixSemaphore::new::hcd961ef9f4c41d67
PUBLIC 16f40 0 vignette::lib_linux::PosixSemaphore::post::ha26d8c3ba5dd1dae
PUBLIC 16fc0 0 vignette::lib_linux::PosixSemaphore::wait::h4f3df7e4d79057b7
PUBLIC 17040 0 vignette::lib_linux::PosixSemaphore::wait_through_intr::ha31a8ebd4c5bc909
PUBLIC 17220 0 _$LT$vignette..lib_linux..PosixSemaphore$u20$as$u20$core..ops..drop..Drop$GT$::drop::hb423c3911d9ee780
PUBLIC 17250 0 vignette::lib_linux::thread_iterator::hed9337db67e39aa1
PUBLIC 172a0 0 vignette::lib_linux::clear_shared_state::hfebf4a9b652f883f
PUBLIC 17420 0 vignette::lib_linux::reset_shared_state::hae47639af69b179c
PUBLIC 176d0 0 vignette::lib_linux::Sampler::new::h7bba81fbf45de3fc
PUBLIC 17800 0 _$LT$vignette..lib_linux..Sampler$u20$as$u20$core..ops..drop..Drop$GT$::drop::h377216bb57672827
PUBLIC 17870 0 vignette::lib_linux::sigprof_handler::h181797dcd4f4895d
PUBLIC 17bd0 0 vignette::lib_linux::send_sigprof::h54c6d5f47c44c06f
PUBLIC 17c10 0 vignette::lib_linux::Sample::new::h4768f5cdc6f82d5f
PUBLIC 17c70 0 vignette::lib_linux::Sample::collect::h63263a549790490b
PUBLIC 17e90 0 _$LT$vignette..lib_linux..ThreadId$u20$as$u20$core..fmt..Debug$GT$::fmt::h97ce6f1572c82c43
PUBLIC 17f10 0 _$LT$nix..sys..signal..SaFlags$u20$as$u20$core..ops..bit..BitOr$GT$::bitor::h414302a7a6933e63
PUBLIC 17f30 0 _$LT$alloc..vec..Vec$LT$T$GT$$GT$::with_capacity::h7d1565889e81f634
PUBLIC 17f90 0 _$LT$alloc..vec..Vec$LT$T$GT$$GT$::len::hc3915739c0db8365
PUBLIC 17fa0 0 _$LT$alloc..vec..Vec$LT$T$GT$$GT$::push::ha86a12fb39d6cc15
PUBLIC 180e0 0 _$LT$alloc..vec..Vec$LT$T$GT$$GT$::reserve::h5920a21b7c1c293f
PUBLIC 18120 0 _$LT$alloc..vec..Vec$LT$T$GT$$GT$::capacity::h2df8ea4f94ad25cb
PUBLIC 18170 0 _$LT$alloc..vec..Vec$LT$T$GT$$u20$as$u20$core..ops..drop..Drop$GT$::drop::h7a828c286ca995ce
PUBLIC 181a0 0 _$LT$alloc..vec..Vec$LT$T$GT$$u20$as$u20$core..ops..deref..DerefMut$GT$::deref_mut::h978f82fe957102b8
PUBLIC 181f0 0 _$LT$alloc..vec..Vec$LT$T$GT$$u20$as$u20$core..ops..index..IndexMut$LT$I$GT$$GT$::index_mut::hd9c55ddaf7533054
PUBLIC 18280 0 std::fs::read_dir::h93a8ff05d04c9518
PUBLIC 18300 0 core::iter::iterator::Iterator::map::h1d42a88769a62571
PUBLIC 18330 0 core::ops::function::FnOnce::call_once::hcf0d29ceb7c45703
PUBLIC 18380 0 core::ptr::drop_in_place::h016585d04d292709
PUBLIC 183c0 0 core::ptr::drop_in_place::h1b6bda6a5b5ff54d
PUBLIC 183d0 0 core::ptr::drop_in_place::h1daa63d13a423815
PUBLIC 183e0 0 core::ptr::drop_in_place::h28b740008466cfde
PUBLIC 18430 0 core::ptr::drop_in_place::h32d7022e93c25448
PUBLIC 18480 0 core::ptr::drop_in_place::h3b5fadb78ac18705
PUBLIC 18490 0 core::ptr::drop_in_place::h3bb678107da908e7
PUBLIC 184d0 0 core::ptr::drop_in_place::h426f6bce635c5cc2
PUBLIC 18500 0 core::ptr::drop_in_place::h49f16afc3f925cab
PUBLIC 18510 0 core::ptr::drop_in_place::h555abc934c02cca9
PUBLIC 18520 0 core::ptr::drop_in_place::h5667978cfd3a3f04
PUBLIC 18530 0 core::ptr::drop_in_place::h7c769ce5ef5f0fa4
PUBLIC 18540 0 core::ptr::drop_in_place::h8d51a7f57a5c2aa1
PUBLIC 18550 0 core::ptr::drop_in_place::ha1fceb6d810f2777
PUBLIC 18560 0 core::ptr::drop_in_place::ha231b5ed5fdb9987
PUBLIC 185b0 0 core::ptr::drop_in_place::hb90bf5499ae0aedc
PUBLIC 185c0 0 core::ptr::drop_in_place::hbc928ce8ba9c6ce5
PUBLIC 18620 0 core::ptr::drop_in_place::hcdc522f1b5dde7d5
PUBLIC 18690 0 core::ptr::drop_in_place::hda4719e4feb91d6e
PUBLIC 186a0 0 core::ptr::drop_in_place::hf822ddce498260a9
PUBLIC 186b0 0 core::ptr::drop_in_place::hfb50a8da3384de86
PUBLIC 186c0 0 core::ptr::drop_in_place::hff464718a20099a1
PUBLIC 186d0 0 _$LT$core..ops..range..RangeFull$u20$as$u20$core..slice..SliceIndex$LT$$u5b$T$u5d$$GT$$GT$::index_mut::h37c84344485f6fff
PUBLIC 186f0 0 _$LT$alloc..raw_vec..RawVec$LT$T$GT$$GT$::with_capacity::h800783806f5677a9
PUBLIC 18720 0 _$LT$alloc..raw_vec..RawVec$LT$T$C$$u20$A$GT$$GT$::allocate_in::h2ce6f4f6fb22ac52
PUBLIC 189c0 0 _$LT$alloc..raw_vec..RawVec$LT$T$C$$u20$A$GT$$GT$::allocate_in::_$u7b$$u7b$closure$u7d$$u7d$::h012a9f7b7d62932f
PUBLIC 189e0 0 _$LT$alloc..raw_vec..RawVec$LT$T$C$$u20$A$GT$$GT$::allocate_in::_$u7b$$u7b$closure$u7d$$u7d$::habfd2adbf09d5a62
PUBLIC 189f0 0 _$LT$alloc..raw_vec..RawVec$LT$T$C$$u20$A$GT$$GT$::current_layout::hd1b22c32136f43bd
PUBLIC 18a80 0 _$LT$alloc..raw_vec..RawVec$LT$T$C$$u20$A$GT$$GT$::dealloc_buffer::h458fd9ff26bc29db
PUBLIC 18b30 0 _$LT$alloc..raw_vec..RawVec$LT$T$C$$u20$A$GT$$GT$::reserve_internal::hf22152f903c675c0
PUBLIC 19280 0 _$LT$alloc..raw_vec..RawVec$LT$T$C$$u20$A$GT$$GT$::reserve_internal::_$u7b$$u7b$closure$u7d$$u7d$::h4e9c199c25d91aab
PUBLIC 192a0 0 _$LT$alloc..raw_vec..RawVec$LT$T$C$$u20$A$GT$$GT$::amortized_new_size::h743a5375dcb613b5
PUBLIC 193f0 0 _$LT$alloc..raw_vec..RawVec$LT$T$C$$u20$A$GT$$GT$::ptr::hf6f08a53ab4bef1e
PUBLIC 19420 0 _$LT$alloc..raw_vec..RawVec$LT$T$C$$u20$A$GT$$GT$::reserve::haaa84239690db88e
PUBLIC 194f0 0 _$LT$alloc..raw_vec..RawVec$LT$T$C$$u20$A$GT$$u20$as$u20$core..ops..drop..Drop$GT$::drop::hc32ac0c68a464331
PUBLIC 19500 0 core::sync::atomic::atomic_sub::h00a9180e3a7e4055
PUBLIC 19640 0 alloc::alloc::box_free::h129e18ce8d0cc4fa
PUBLIC 196b0 0 alloc::alloc::box_free::h675f93afc113ca14
PUBLIC 19740 0 _$LT$core..cell..UnsafeCell$LT$T$GT$$GT$::get::hbe6ec27fd8dc04ab
PUBLIC 19750 0 _$LT$core..cell..UnsafeCell$LT$T$GT$$GT$::get::hdbcdf165f976665f
PUBLIC 19760 0 _$LT$core..cell..UnsafeCell$LT$T$GT$$GT$::new::h5bc6d390a896f792
PUBLIC 197b0 0 core::slice::from_raw_parts_mut::h02dbce7b4d147baa
PUBLIC 19800 0 _$LT$$RF$$u27$a$u20$T$u20$as$u20$core..convert..AsRef$LT$U$GT$$GT$::as_ref::h1fa9b4578d77be76
PUBLIC 19840 0 core::fmt::Arguments::new_v1_formatted::he7dc43bfd5d75fba
PUBLIC 198c0 0 core::mem::size_of_val::h7afd33fba23d2790
PUBLIC 198f0 0 core::mem::align_of_val::h345f4fba9920768b
PUBLIC 19920 0 core::mem::uninitialized::h17ceb4532ad94571
PUBLIC 19930 0 core::mem::uninitialized::ha0326c5ce61aeae7
PUBLIC 19940 0 core::mem::size_of::h0cec52beacf273f7
PUBLIC 19960 0 core::mem::align_of::hf1cc787b6193ba98
PUBLIC 19980 0 _$LT$core..option..Option$LT$T$GT$$GT$::unwrap_or_else::h69deaf225a378d3c
PUBLIC 19a60 0 _$LT$core..option..Option$LT$T$GT$$GT$::as_ref::h688d7ba9af3279cf
PUBLIC 19ac0 0 _$LT$core..option..Option$LT$T$GT$$GT$::expect::hda690a0f7e2bf9b9
PUBLIC 19b60 0 _$LT$core..option..Option$LT$T$GT$$GT$::unwrap::h40630e33c44485cb
PUBLIC 19c00 0 _$LT$alloc..sync..Arc$LT$T$GT$$GT$::inner::h44be2c00de89e4b9
PUBLIC 19c30 0 _$LT$alloc..sync..Arc$LT$T$GT$$GT$::drop_slow::h6089d4dc77cc195b
PUBLIC 19d00 0 _$LT$alloc..sync..Arc$LT$T$GT$$u20$as$u20$core..ops..drop..Drop$GT$::drop::hc2c2df08581f4c5d
PUBLIC 19d70 0 core::sync::atomic::AtomicUsize::fetch_sub::h8ebf70c90783458e
PUBLIC 19dc0 0 core::sync::atomic::fence::h39da54c92650d772
PUBLIC 19e30 0 core::fmt::ArgumentV1::new::h84f2891a85a65746
PUBLIC 19e90 0 _$LT$core..ptr..NonNull$LT$T$GT$$u20$as$u20$core..convert..From$LT$core..ptr..Unique$LT$T$GT$$GT$$GT$::from::ha5a185ff74d20593
PUBLIC 19eb0 0 _$LT$core..ptr..Unique$LT$T$GT$$u20$as$u20$core..convert..From$LT$core..ptr..NonNull$LT$T$GT$$GT$$GT$::from::h50ae371eaeecd75b
PUBLIC 19ed0 0 _$LT$core..ptr..Unique$LT$T$GT$$GT$::as_ptr::h0a57ec86055bcee9
PUBLIC 19ee0 0 _$LT$core..ptr..Unique$LT$T$GT$$GT$::as_ptr::h294b24a08ab1fab0
PUBLIC 19ef0 0 _$LT$core..ptr..Unique$LT$T$GT$$GT$::as_ptr::heacb9ba20530dba1
PUBLIC 19f10 0 _$LT$core..ptr..NonNull$LT$T$GT$$GT$::new_unchecked::h35f36560ee3c1904
PUBLIC 19f40 0 _$LT$core..ptr..NonNull$LT$T$GT$$GT$::cast::h63b9c3ff1beae6e9
PUBLIC 19f80 0 _$LT$core..ptr..NonNull$LT$T$GT$$GT$::cast::ha5587eaf70dc10be
PUBLIC 19fc0 0 _$LT$core..ptr..NonNull$LT$T$GT$$GT$::cast::haab36b7ad4ad1258
PUBLIC 1a000 0 _$LT$core..ptr..NonNull$LT$T$GT$$GT$::as_mut::h01da7e264b3f011d
PUBLIC 1a030 0 _$LT$core..ptr..NonNull$LT$T$GT$$GT$::as_ptr::h17a8fe27bd81dd80
PUBLIC 1a040 0 _$LT$core..ptr..NonNull$LT$T$GT$$GT$::as_ptr::haf810d8128895d82
PUBLIC 1a050 0 _$LT$core..ptr..NonNull$LT$T$GT$$GT$::as_ref::h4d46fd3d0709b6ba
PUBLIC 1a080 0 _$LT$core..ptr..NonNull$LT$T$GT$$GT$::dangling::h5862517ac319a463
PUBLIC 1a0b0 0 core::ptr::write::h606a2a2e48ec16b9
PUBLIC 1a0d0 0 _$LT$T$u20$as$u20$core..convert..Into$LT$U$GT$$GT$::into::hff3afc8db08d9cac
PUBLIC 1a100 0 std::fs::ReadDir::h76fd972dd726b809
PUBLIC 1a130 0 core::alloc::Layout::from_size_align::h585280b10425f539
PUBLIC 1a1d0 0 core::alloc::Layout::padding_needed_for::h5ee5dbac80c321c9
PUBLIC 1a270 0 core::alloc::Layout::from_size_align_unchecked::hcf053c36f0797fb7
PUBLIC 1a2c0 0 core::alloc::Layout::size::hfa9109f497d00db5
PUBLIC 1a2d0 0 core::alloc::Layout::align::h669b775014bebe90
PUBLIC 1a300 0 core::alloc::Layout::repeat::haa892f14638f744f
PUBLIC 1a5a0 0 core::alloc::size_align::h0ade4642c3f410af
PUBLIC 1a5e0 0 core::alloc::Layout::new::h15369cf0e1feaf3d
PUBLIC 1a630 0 core::alloc::Layout::array::hc3620efd8854fd75
PUBLIC 1a680 0 core::alloc::Layout::array::_$u7b$$u7b$closure$u7d$$u7d$::hb4dfdc78b55f79db
PUBLIC 1a6b0 0 core::alloc::Layout::for_value::h0fa687340199e61d
PUBLIC 1a730 0 _$LT$alloc..alloc..Global$u20$as$u20$core..alloc..Alloc$GT$::alloc_zeroed::h4accb1027a1acb88
PUBLIC 1a780 0 _$LT$alloc..alloc..Global$u20$as$u20$core..alloc..Alloc$GT$::alloc::h91f6432717e28077
PUBLIC 1a7d0 0 _$LT$alloc..alloc..Global$u20$as$u20$core..alloc..Alloc$GT$::dealloc::h2199c0665dd3f9e3
PUBLIC 1a810 0 _$LT$alloc..alloc..Global$u20$as$u20$core..alloc..Alloc$GT$::realloc::h47a75de4d607163b
PUBLIC 1a890 0 alloc::alloc::alloc_zeroed::h83eb75e142291a12
PUBLIC 1a8e0 0 alloc::alloc::alloc::h5eedb0e67bd5b349
PUBLIC 1a930 0 alloc::alloc::dealloc::hf006e87804b10125
PUBLIC 1a990 0 alloc::alloc::realloc::hadc08252c6215665
PUBLIC 1aa00 0 alloc::raw_vec::alloc_guard::h225e67c926bb29d9
PUBLIC 1aa70 0 _$LT$alloc..collections..CollectionAllocErr$u20$as$u20$core..convert..From$LT$core..alloc..AllocErr$GT$$GT$::from::h5eb986af0d660d3c
PUBLIC 1aa90 0 core::num::NonZeroUsize::new_unchecked::h46f06cbe7e511157
PUBLIC 1aac0 0 core::num::NonZeroUsize::get::hb05c08c01787bdb0
PUBLIC 1aad0 0 core::num::_$LT$impl$u20$usize$GT$::checked_add::h28feae1e0e840e3f
PUBLIC 1ab40 0 core::num::_$LT$impl$u20$usize$GT$::checked_mul::h85aa555413e1af0c
PUBLIC 1abb0 0 core::num::_$LT$impl$u20$usize$GT$::wrapping_add::h58ffc2f85f89e5f2
PUBLIC 1abe0 0 core::num::_$LT$impl$u20$usize$GT$::wrapping_sub::hbc4f4b3529b24eba
PUBLIC 1ac10 0 core::num::_$LT$impl$u20$usize$GT$::is_power_of_two::h610c7dae5a98747e
PUBLIC 1ac70 0 core::num::_$LT$impl$u20$usize$GT$::overflowing_add::h61d00ea390f2f0b8
PUBLIC 1ace0 0 core::num::_$LT$impl$u20$usize$GT$::overflowing_mul::h1845a70c1ec253fd
PUBLIC 1ad60 0 _$LT$core..result..Result$LT$T$C$$u20$E$GT$$GT$::map::h82093323ebf921a2
PUBLIC 1af20 0 _$LT$core..result..Result$LT$T$C$$u20$E$GT$$GT$::unwrap::he8236dd1bbbfccf7
PUBLIC 1b010 0 core::result::unwrap_failed::h1492c689f5ac0de5
PUBLIC 1b170 0 core::result::unwrap_failed::h27cffadad280b542
PUBLIC 1b2d0 0 _$LT$core..result..Result$LT$T$C$$u20$E$GT$$u20$as$u20$core..ops..try..Try$GT$::from_error::h530940ee027c55a9
PUBLIC 1b2f0 0 _$LT$core..result..Result$LT$T$C$$u20$E$GT$$u20$as$u20$core..ops..try..Try$GT$::from_error::hb4c357667ca4124b
PUBLIC 1b320 0 _$LT$core..result..Result$LT$T$C$$u20$E$GT$$u20$as$u20$core..ops..try..Try$GT$::from_error::hb59d655453d98837
PUBLIC 1b330 0 _$LT$core..result..Result$LT$T$C$$u20$E$GT$$u20$as$u20$core..ops..try..Try$GT$::into_result::h0736c3faa5eb2005
PUBLIC 1b340 0 _$LT$core..result..Result$LT$T$C$$u20$E$GT$$u20$as$u20$core..ops..try..Try$GT$::into_result::h66035ed5bc24631e
PUBLIC 1b360 0 _$LT$core..result..Result$LT$T$C$$u20$E$GT$$u20$as$u20$core..ops..try..Try$GT$::into_result::h8061757f1a5bcd9b
PUBLIC 1b380 0 _$LT$core..result..Result$LT$T$C$$u20$E$GT$$u20$as$u20$core..ops..try..Try$GT$::into_result::h85298221c2fbe533
PUBLIC 1b3a0 0 _$LT$core..result..Result$LT$T$C$$u20$E$GT$$u20$as$u20$core..ops..try..Try$GT$::into_result::hf2c25fb23493fba0
PUBLIC 1b3c0 0 _$LT$$RF$$u27$a$u20$T$u20$as$u20$core..fmt..Debug$GT$::fmt::h557a31bbd2f52807
PUBLIC 1b400 0 nix::errno::_$LT$impl$u20$nix..errno..consts..Errno$GT$::last::hd7cfe2ab7e008937
PUBLIC 1b410 0 nix::errno::_$LT$impl$u20$nix..errno..consts..Errno$GT$::from_i32::h3a6eab3912647880
PUBLIC 1b430 0 nix::errno::_$LT$impl$u20$nix..errno..consts..Errno$GT$::result::he10ced45349ee0e4
PUBLIC 1b500 0 nix::errno::consts::from_i32::hbbfe6b8a2998093f
PUBLIC 1bbd0 0 _$LT$nix..errno..consts..Errno$u20$as$u20$core..fmt..Debug$GT$::fmt::h25c6179793995c54
PUBLIC 1dc10 0 _$LT$core..ops..range..RangeFrom$LT$usize$GT$$u20$as$u20$core..slice..SliceIndex$LT$$u5b$T$u5d$$GT$$GT$::index::hf5e8e0f2e9ed01f2
PUBLIC 1dc90 0 _$LT$alloc..boxed..Box$LT$T$GT$$GT$::into_unique::h0195f8a632e4a4cb
PUBLIC 1dcd0 0 _$LT$alloc..boxed..Box$LT$T$GT$$GT$::into_raw_non_null::h1bc7828c8d4db57a
PUBLIC 1dd20 0 _$LT$alloc..boxed..Box$LT$T$GT$$GT$::into_raw::h44597c69405b6c28
PUBLIC 1dd70 0 _$LT$core..mem..ManuallyDrop$LT$T$GT$$GT$::new::h76985f9fd0d066a4
PUBLIC 1dda0 0 _$LT$alloc..raw_vec..RawVec$LT$T$C$$u20$A$GT$$GT$::current_layout::ha216e717ae6e2646
PUBLIC 1de30 0 _$LT$alloc..raw_vec..RawVec$LT$T$C$$u20$A$GT$$GT$::dealloc_buffer::he8190a8934361eab
PUBLIC 1dee0 0 _$LT$alloc..raw_vec..RawVec$LT$T$C$$u20$A$GT$$GT$::ptr::h072fad7121d88b6d
PUBLIC 1df10 0 core::mem::uninitialized::h270a2e32c9b52e9f
PUBLIC 1df20 0 core::mem::uninitialized::h321e06d2c51768e6
PUBLIC 1df30 0 core::mem::uninitialized::h4fb33d54594e4351
PUBLIC 1df60 0 core::mem::uninitialized::h74608e3c0f7c5368
PUBLIC 1df70 0 core::mem::uninitialized::ha868133468cf78bf
PUBLIC 1df80 0 core::mem::uninitialized::hee312d78922958f4
PUBLIC 1df90 0 core::mem::swap::he2aeee4dd7c04805
PUBLIC 1dfc0 0 core::mem::forget::h02a4cf608dab5e28
PUBLIC 1dff0 0 core::mem::replace::h060ae6cbfb7e880e
PUBLIC 1e040 0 core::mem::size_of::h11dce010bb556b06
PUBLIC 1e060 0 core::mem::size_of::h6856b27881f47544
PUBLIC 1e080 0 core::mem::size_of::h8e2dcf6db0123346
PUBLIC 1e0a0 0 core::mem::size_of::ha31ef6f63f573f8c
PUBLIC 1e0c0 0 core::mem::size_of::hd5f0fcd13d4cb533
PUBLIC 1e0e0 0 core::mem::align_of::h2c91b76d68260bd0
PUBLIC 1e100 0 _$LT$alloc..raw_vec..RawVec$LT$T$C$$u20$A$GT$$u20$as$u20$core..ops..drop..Drop$GT$::drop::hfb8afd2b823afa7a
PUBLIC 1e110 0 _$LT$core..ops..range..RangeFull$u20$as$u20$core..slice..SliceIndex$LT$$u5b$T$u5d$$GT$$GT$::index_mut::h0b7093364a20d349
PUBLIC 1e130 0 _$LT$core..ops..range..Range$LT$usize$GT$$u20$as$u20$core..slice..SliceIndex$LT$$u5b$T$u5d$$GT$$GT$::get_unchecked::hd9058dee290c4a8c
PUBLIC 1e1a0 0 _$LT$core..ops..range..Range$LT$usize$GT$$u20$as$u20$core..slice..SliceIndex$LT$$u5b$T$u5d$$GT$$GT$::index::hbce88211fc4afdd1
PUBLIC 1e270 0 _$LT$T$u20$as$u20$core..any..Any$GT$::get_type_id::h686d931e96130014
PUBLIC 1e290 0 _$LT$T$u20$as$u20$core..any..Any$GT$::get_type_id::hc40674db8eb22b2c
PUBLIC 1e2b0 0 std::panicking::begin_panic::hee7bf69231aad994
PUBLIC 1e330 0 core::any::TypeId::of::h4ccdfc7d79562d3a
PUBLIC 1e360 0 core::any::TypeId::of::hcb64ed2c2b6d6c8e
PUBLIC 1e390 0 core::cmp::Ord::max::hdc4d696075561bd2
PUBLIC 1e450 0 core::cmp::max::hd1a6bc59e6d9be07
PUBLIC 1e480 0 core::fmt::ArgumentV1::new::h0aed225296431cbd
PUBLIC 1e4e0 0 core::fmt::ArgumentV1::new::h25078f4685b24515
PUBLIC 1e540 0 core::fmt::ArgumentV1::new::h3ae1d8d83b28d4ca
PUBLIC 1e5a0 0 core::fmt::ArgumentV1::new::h749bfef0e9da9af7
PUBLIC 1e600 0 core::fmt::ArgumentV1::new::h7844f54f35b137f8
PUBLIC 1e660 0 core::fmt::Arguments::new_v1_formatted::h3f6874d08ccef11a
PUBLIC 1e6e0 0 _$LT$T$u20$as$u20$core..convert..From$LT$T$GT$$GT$::from::h5f2796cdb0cea295
PUBLIC 1e700 0 _$LT$$RF$$u27$a$u20$T$u20$as$u20$core..fmt..Debug$GT$::fmt::hd2c5ea686e7d8935
PUBLIC 1e740 0 _$LT$$RF$$u27$a$u20$T$u20$as$u20$core..fmt..Display$GT$::fmt::h56d141a83475f70a
PUBLIC 1e780 0 _$LT$std..panicking..begin_panic..PanicPayload$LT$A$GT$$GT$::new::h79414061a31fb69a
PUBLIC 1e7d0 0 _$LT$std..panicking..begin_panic..PanicPayload$LT$A$GT$$u20$as$u20$core..panic..BoxMeUp$GT$::get::h5d9475bcd2ed33da
PUBLIC 1e860 0 _$LT$std..panicking..begin_panic..PanicPayload$LT$A$GT$$u20$as$u20$core..panic..BoxMeUp$GT$::box_me_up::h0d2ae5d1e26014c6
PUBLIC 1eaf0 0 _$LT$core..option..Option$LT$T$GT$$GT$::take::h98f9785e8d9b1dda
PUBLIC 1eb30 0 _$LT$core..option..Option$LT$T$GT$$GT$::ok_or::h04f882d8f366d785
PUBLIC 1ebf0 0 _$LT$core..option..Option$LT$T$GT$$GT$::ok_or::hc4bda1e48f165034
PUBLIC 1eca0 0 _$LT$core..option..Option$LT$T$GT$$GT$::ok_or::hca25f8767880495a
PUBLIC 1ed70 0 core::cmp::impls::_$LT$impl$u20$core..cmp..PartialEq$u20$for$u20$i32$GT$::eq::hfb026a8ec60cf31a
PUBLIC 1eda0 0 core::cmp::impls::_$LT$impl$u20$core..cmp..PartialOrd$u20$for$u20$usize$GT$::ge::h9c102e4c3cd919bb
PUBLIC 1edd0 0 core::fmt::num::_$LT$impl$u20$core..fmt..Debug$u20$for$u20$i32$GT$::fmt::head1ffe9f6e2d5fb
PUBLIC 1ee70 0 core::ptr::drop_in_place::h02900366c0bacee6
PUBLIC 1ee80 0 core::ptr::drop_in_place::h1b6fb68e121f9d36
PUBLIC 1ee90 0 core::ptr::drop_in_place::h776dae29807a9761
PUBLIC 1eea0 0 core::ptr::drop_in_place::hb936e5b751114f2b
PUBLIC 1ef10 0 core::ptr::drop_in_place::hee571fe4c020a3cd
PUBLIC 1ef20 0 core::alloc::Layout::from_size_align_unchecked::hf14f2889cdcac72c
PUBLIC 1ef70 0 core::alloc::Layout::size::h79f7d3ba6849c346
PUBLIC 1ef80 0 core::alloc::Layout::align::hc92b59956a1f5d6c
PUBLIC 1efb0 0 _$LT$T$u20$as$u20$core..convert..From$LT$T$GT$$GT$::from::h8ed3bef57df1df10
PUBLIC 1efc0 0 nix::sys::signal::SigSet::empty::h3bd2af3fe4f20c30
PUBLIC 1f040 0 nix::sys::signal::SigAction::new::hd56e565d48c7ce2c
PUBLIC 1f230 0 nix::sys::signal::sigaction::h1a6942ecb3cd0dfc
PUBLIC 1f2c0 0 nix::sys::signal::sigaction::_$u7b$$u7b$closure$u7d$$u7d$::h6fd03e4c817855ee
PUBLIC 1f330 0 nix::sys::signal::SaFlags::bits::hb442a8ba4a4aa1be
PUBLIC 1f340 0 _$LT$nix..sys..signal..SaFlags$u20$as$u20$core..ops..bit..BitOr$GT$::bitor::hccc8018f623a8adb
PUBLIC 1f360 0 _$LT$nix..sys..signal..SaFlags$u20$as$u20$core..ops..arith..Sub$GT$::sub::h9d4cc606ed8c244d
PUBLIC 1f390 0 _$LT$nix..Error$u20$as$u20$core..fmt..Debug$GT$::fmt::hfc499bf2bc0b6541
PUBLIC 1f520 0 _$LT$core..ptr..NonNull$LT$T$GT$$u20$as$u20$core..convert..From$LT$core..ptr..Unique$LT$T$GT$$GT$$GT$::from::h105113991c2d7d28
PUBLIC 1f550 0 _$LT$core..ptr..NonNull$LT$T$GT$$u20$as$u20$core..convert..From$LT$core..ptr..Unique$LT$T$GT$$GT$$GT$::from::h9d28d92beab41fd9
PUBLIC 1f570 0 _$LT$core..ptr..Unique$LT$T$GT$$u20$as$u20$core..convert..From$LT$core..ptr..NonNull$LT$T$GT$$GT$$GT$::from::h3fdd60c3f34c9a6f
PUBLIC 1f590 0 _$LT$core..ptr..Unique$LT$T$GT$$GT$::as_ptr::h61cd107d17da3222
PUBLIC 1f5a0 0 _$LT$core..ptr..Unique$LT$T$GT$$GT$::as_ptr::hcf8f8aea6b558f18
PUBLIC 1f5c0 0 _$LT$core..ptr..NonNull$LT$T$GT$$GT$::new_unchecked::h97c1b9402d487b50
PUBLIC 1f5f0 0 _$LT$core..ptr..NonNull$LT$T$GT$$GT$::new::h159fd089b8169ecb
PUBLIC 1f650 0 _$LT$core..ptr..NonNull$LT$T$GT$$GT$::cast::hd536c0c1f786dfce
PUBLIC 1f680 0 _$LT$core..ptr..NonNull$LT$T$GT$$GT$::as_ptr::h4464a2e3ca780b34
PUBLIC 1f690 0 _$LT$core..ptr..NonNull$LT$T$GT$$GT$::as_ptr::h52a05d392a5feddf
PUBLIC 1f6b0 0 core::num::NonZeroUsize::new_unchecked::h9e79dce45fc112de
PUBLIC 1f6e0 0 core::num::NonZeroUsize::get::he7fe0a4dce457662
PUBLIC 1f6f0 0 core::ptr::swap_nonoverlapping::h50a28eccc96cf363
PUBLIC 1f750 0 core::ptr::swap_nonoverlapping_one::h80a2229b8d787cf2
PUBLIC 1f820 0 core::ptr::swap_nonoverlapping_bytes::hb62bf7c9585f53eb
PUBLIC 1fa00 0 core::ptr::_$LT$impl$u20$$BP$mut$u20$T$GT$::wrapping_offset::hc0e7dfa12710f7a2
PUBLIC 1fa30 0 core::ptr::_$LT$impl$u20$$BP$mut$u20$T$GT$::offset::h8595898c5c6f4feb
PUBLIC 1fa60 0 core::ptr::_$LT$impl$u20$$BP$mut$u20$T$GT$::is_null::ha6cd4b09533fd83d
PUBLIC 1faa0 0 core::ptr::_$LT$impl$u20$$BP$const$u20$T$GT$::offset::h80f3a65ee7bbce09
PUBLIC 1fad0 0 core::ptr::null::h3a21eceda47c7fbd
PUBLIC 1fae0 0 core::ptr::read::hb5e1778de57f9934
PUBLIC 1fb20 0 core::ptr::write::ha1de3c374ce11b5d
PUBLIC 1fb50 0 core::ptr::null_mut::h1516288c64603358
PUBLIC 1fb60 0 _$LT$T$u20$as$u20$core..convert..Into$LT$U$GT$$GT$::into::h018200c6c0a4f3f4
PUBLIC 1fba0 0 _$LT$T$u20$as$u20$core..convert..Into$LT$U$GT$$GT$::into::h7c367239841d4cff
PUBLIC 1fbd0 0 _$LT$alloc..alloc..Global$u20$as$u20$core..alloc..Alloc$GT$::dealloc::h06a996b2984b6435
PUBLIC 1fc10 0 alloc::alloc::exchange_malloc::h94ed7fbaf6948d0d
PUBLIC 1fca0 0 alloc::alloc::alloc::hf00b1c16f79c5d38
PUBLIC 1fcf0 0 alloc::alloc::dealloc::h1c38da2686d46dd6
PUBLIC 1fd50 0 alloc::alloc::box_free::h39ec43cb13e3ef08
PUBLIC 1fde0 0 nix::errno::errno::h288ae685deaeacb7
PUBLIC 1fe00 0 _$LT$i32$u20$as$u20$nix..errno..ErrnoSentinel$GT$::sentinel::h6cbe43b70b396c3c
PUBLIC 1fe10 0 nix::errno::last::h638b6b3809814942
PUBLIC 1fe30 0 nix::errno::errno_location::hea16eeecc9cf931c
PUBLIC 1fe40 0 _$LT$alloc..vec..Vec$LT$T$GT$$GT$::set_len::he53b65b3cb864c25
PUBLIC 1fe60 0 core::slice::from_raw_parts::h8b213afa35a03e7f
PUBLIC 1feb0 0 core::slice::from_raw_parts_mut::hc2a128ce4cb12c3e
PUBLIC 1ff00 0 core::slice::_$LT$impl$u20$$u5b$T$u5d$$GT$::as_mut_ptr::h1ce2de543fe58225
PUBLIC 1ff20 0 core::slice::_$LT$impl$u20$$u5b$T$u5d$$GT$::len::h32b50283a1c39f7f
PUBLIC 1ff50 0 core::slice::_$LT$impl$u20$$u5b$T$u5d$$GT$::as_ptr::hdac406c2c41e276b
PUBLIC 1ff70 0 core::slice::_$LT$impl$u20$core..ops..index..Index$LT$I$GT$$u20$for$u20$$u5b$T$u5d$$GT$::index::h549e660f7c079b25
PUBLIC 1ffb0 0 core::slice::_$LT$impl$u20$core..ops..index..IndexMut$LT$I$GT$$u20$for$u20$$u5b$T$u5d$$GT$::index_mut::h57dbed9feb469c55
PUBLIC 1fff0 0 _$LT$alloc..vec..Vec$LT$T$GT$$u20$as$u20$core..ops..drop..Drop$GT$::drop::ha84fefe6f2a1c638
PUBLIC 20020 0 _$LT$alloc..vec..Vec$LT$T$GT$$u20$as$u20$core..ops..deref..Deref$GT$::deref::hbee87bec1a8b09c7
PUBLIC 20070 0 _$LT$alloc..vec..Vec$LT$T$GT$$u20$as$u20$core..ops..deref..DerefMut$GT$::deref_mut::hcb2c0945d6f9e72d
PUBLIC 200c0 0 _$LT$alloc..vec..Vec$LT$T$GT$$u20$as$u20$core..ops..index..IndexMut$LT$I$GT$$GT$::index_mut::hdb3a53dcc7f5441b
PUBLIC 20150 0 core::ptr::drop_in_place::h3b9c2e00557f954a
PUBLIC 20170 0 _ZN4core3ptr13drop_in_place17h44ee5ab9dbcbb161E.llvm.1568830238013513416
PUBLIC 20190 0 core::ptr::drop_in_place::h6945c05d8b33beb2
PUBLIC 201a0 0 _ZN4core3ptr13drop_in_place17h8d969eb534e89d39E.llvm.1568830238013513416
PUBLIC 201c0 0 _$LT$std..sys..unix..fs..ReadDir$u20$as$u20$core..iter..iterator..Iterator$GT$::next::h961b070b00c1c83b
PUBLIC 20380 0 _$LT$std..sys..unix..fs..Dir$u20$as$u20$core..ops..drop..Drop$GT$::drop::hb637639ab8951dca
PUBLIC 20390 0 std::sys::unix::fs::File::open::hda4c19dab21582f6
PUBLIC 20490 0 std::sys::unix::fs::File::open_c::he6c9d2ef5dcdd61a
PUBLIC 20780 0 std::sys::unix::fs::readdir::hb3d7c3e76e0cdf3c
PUBLIC 20930 0 _$LT$alloc..vec..Vec$LT$T$GT$$GT$::into_boxed_slice::h0e8c393a0fd7ba14
PUBLIC 209d0 0 core::ptr::drop_in_place::h09607a7789d27460
PUBLIC 20a30 0 core::ptr::drop_in_place::h12dd72322af33110
PUBLIC 20aa0 0 core::ptr::drop_in_place::h3ac544e89b5c2b75
PUBLIC 20ab0 0 core::ptr::drop_in_place::h4205af600cf499a6
PUBLIC 20ad0 0 _ZN4core3ptr13drop_in_place17h62cb9fa2a5022317E.llvm.14172660891200391747
PUBLIC 20af0 0 core::ptr::drop_in_place::h788d1d028745d85d
PUBLIC 20b70 0 core::ptr::drop_in_place::hd0d22d944ce62cee
PUBLIC 20b90 0 core::ptr::drop_in_place::hddfd6251ae98da7c
PUBLIC 20bf0 0 core::ptr::drop_in_place::hdf202be98e12fd9c
PUBLIC 20c10 0 _$LT$$RF$$u27$a$u20$T$u20$as$u20$core..fmt..Debug$GT$::fmt::hc25c43ce4536c2d1
PUBLIC 20c90 0 alloc::alloc::box_free::h2b94fb1dc019fe63
PUBLIC 20ca0 0 _ZN5alloc5alloc8box_free17h2cd9ddd8ed440c5dE.llvm.14172660891200391747
PUBLIC 20cc0 0 alloc::alloc::box_free::h86190e9a836215c0
PUBLIC 20ce0 0 alloc::alloc::box_free::hac697b9db4199dd8
PUBLIC 20cf0 0 _$LT$alloc..vec..Vec$LT$T$GT$$u20$as$u20$core..convert..From$LT$$RF$$u27$a$u20$$u5b$T$u5d$$GT$$GT$::from::hec718b9b3c77cc36
PUBLIC 20dd0 0 std::io::impls::_$LT$impl$u20$std..io..Write$u20$for$u20$$RF$$u27$a$u20$mut$u20$W$GT$::write::h4424dcf9ff36e62f
PUBLIC 20e40 0 std::io::impls::_$LT$impl$u20$std..io..Write$u20$for$u20$$RF$$u27$a$u20$mut$u20$W$GT$::flush::h8593f7e03d01e73a
PUBLIC 20e50 0 std::io::impls::_$LT$impl$u20$std..io..Write$u20$for$u20$$RF$$u27$a$u20$mut$u20$W$GT$::write_all::h5c8ea4213a3a11f6
PUBLIC 20e70 0 std::io::impls::_$LT$impl$u20$std..io..Write$u20$for$u20$$RF$$u27$a$u20$mut$u20$W$GT$::write_fmt::hb74566380e2033c3
PUBLIC 20eb0 0 std::panicking::default_hook::h0900ca64d90a7435
PUBLIC 211f0 0 std::panicking::default_hook::_$u7b$$u7b$closure$u7d$$u7d$::h9473310f6dfe171b
PUBLIC 213f0 0 std::panicking::update_panic_count::hddb6e1752c0807a7
PUBLIC 21450 0 _ZN3std9panicking3try7do_call17hf3ed35c55df52b1cE.llvm.14172660891200391747
PUBLIC 21470 0 std::panicking::panicking::hb2a88596e3a7c0de
PUBLIC 214c0 0 rust_begin_unwind
PUBLIC 214d0 0 std::panicking::begin_panic_fmt::h4e0336ae5201e4ee
PUBLIC 21530 0 std::panicking::continue_panic_fmt::h266d21e74d67b706
PUBLIC 215f0 0 _$LT$std..panicking..continue_panic_fmt..PanicPayload$LT$$u27$a$GT$$u20$as$u20$core..panic..BoxMeUp$GT$::box_me_up::h2f598b10941d511f
PUBLIC 216f0 0 _$LT$std..panicking..continue_panic_fmt..PanicPayload$LT$$u27$a$GT$$u20$as$u20$core..panic..BoxMeUp$GT$::get::hbee37ac50515ad7d
PUBLIC 217a0 0 std::panicking::begin_panic::hf0abeecdad926ea0
PUBLIC 217d0 0 _$LT$std..panicking..begin_panic..PanicPayload$LT$A$GT$$u20$as$u20$core..panic..BoxMeUp$GT$::box_me_up::hdef525dfcc556cd1
PUBLIC 21830 0 _$LT$std..panicking..begin_panic..PanicPayload$LT$A$GT$$u20$as$u20$core..panic..BoxMeUp$GT$::get::h6a197779039bb294
PUBLIC 21860 0 std::panicking::rust_panic_with_hook::h3c8b159e8ee10628
PUBLIC 21a80 0 rust_panic.llvm.14172660891200391747
PUBLIC 21b00 0 std::sys::unix::thread::Thread::new::h9ce2c834addb8fd4
PUBLIC 21f30 0 std::sys::unix::thread::Thread::new::thread_start::hf3ef36013f37e61b
PUBLIC 21f40 0 std::sys::unix::thread::Thread::set_name::hc4e1137a9d291cbb
PUBLIC 21f60 0 std::sys::unix::thread::Thread::sleep::hca10fb7f4b25364d
PUBLIC 22090 0 std::sys::unix::thread::Thread::join::hfc29ea591a18f384
PUBLIC 22130 0 _$LT$std..sys..unix..thread..Thread$u20$as$u20$core..ops..drop..Drop$GT$::drop::h4ac68f60da546355
PUBLIC 22140 0 std::panicking::LOCAL_STDERR::__init::hddd0e18c6f4971c7
PUBLIC 22150 0 std::panicking::LOCAL_STDERR::__getit::h80d6914a5656fb23
PUBLIC 221d0 0 std::panicking::update_panic_count::PANIC_COUNT::__init::hb660b9ade2e554ec
PUBLIC 221e0 0 std::panicking::update_panic_count::PANIC_COUNT::__getit::h2b7e0ae71c7997d3
PUBLIC 22200 0 _ZN5alloc5alloc8box_free17hfc30f279f061ff77E.llvm.14172660891200391747
PUBLIC 22210 0 core::ptr::drop_in_place::h21eb23d05ce64cf6
PUBLIC 22230 0 core::ptr::drop_in_place::h297088333d18650a
PUBLIC 22240 0 _ZN4core3ptr13drop_in_place17h2a95b5ff1bd78ebdE.llvm.10938317930059681519
PUBLIC 22290 0 core::ptr::drop_in_place::h5ce3d69da3cf59a3
PUBLIC 222b0 0 _ZN4core3ptr13drop_in_place17h62cb9fa2a5022317E.llvm.10938317930059681519
PUBLIC 222d0 0 _ZN4core3ptr13drop_in_place17hd82e138c0cffdcb4E.llvm.10938317930059681519
PUBLIC 222e0 0 core::ptr::drop_in_place::hfe8ce0035c24c227
PUBLIC 22340 0 _$LT$F$u20$as$u20$alloc..boxed..FnBox$LT$A$GT$$GT$::call_box::haeb3530a20158988
PUBLIC 223d0 0 _$LT$$RF$$u27$a$u20$T$u20$as$u20$core..fmt..Debug$GT$::fmt::hb3460cba4905dd57
PUBLIC 223e0 0 alloc::alloc::box_free::h0be82c4d055d1554
PUBLIC 223f0 0 alloc::alloc::box_free::h2cd9ddd8ed440c5d
PUBLIC 22410 0 _ZN5alloc5alloc8box_free17hac697b9db4199dd8E.llvm.10938317930059681519
PUBLIC 22420 0 std::error::Error::cause::hee84ad8cd1888de1
PUBLIC 22430 0 std::error::Error::type_id::h3996ae3f884c1277
PUBLIC 22440 0 _$LT$std..error..$LT$impl$u20$core..convert..From$LT$alloc..string..String$GT$$u20$for$u20$alloc..boxed..Box$LT$$LP$dyn$u20$std..error..Error$u20$$u2b$$u20$core..marker..Send$u20$$u2b$$u20$core..marker..Sync$u20$$u2b$$u20$$u27$static$RP$$GT$$GT$..from..StringError$u20$as$u20$std..error..Error$GT$::description::hdedb354b7227514a
PUBLIC 22450 0 _$LT$std..error..$LT$impl$u20$core..convert..From$LT$alloc..string..String$GT$$u20$for$u20$alloc..boxed..Box$LT$$LP$dyn$u20$std..error..Error$u20$$u2b$$u20$core..marker..Send$u20$$u2b$$u20$core..marker..Sync$u20$$u2b$$u20$$u27$static$RP$$GT$$GT$..from..StringError$u20$as$u20$core..fmt..Display$GT$::fmt::hd9aedc45e121930e
PUBLIC 22470 0 std::error::_$LT$impl$u20$core..convert..From$LT$$RF$$u27$a$u20$str$GT$$u20$for$u20$alloc..boxed..Box$LT$$LP$dyn$u20$std..error..Error$u20$$u2b$$u20$$u27$static$RP$$GT$$GT$::from::ha3d518e38d090c7d
PUBLIC 224e0 0 _$LT$std..fs..File$u20$as$u20$std..io..Read$GT$::read::h143a21ea78bac48b
PUBLIC 22550 0 std::fs::OpenOptions::new::h3958d7b52a100ac1
PUBLIC 22570 0 std::fs::OpenOptions::read::hb8742f614e5ef11c
PUBLIC 22580 0 std::fs::OpenOptions::_open::h60f36446bd8bc060
PUBLIC 225e0 0 _$LT$std..fs..ReadDir$u20$as$u20$core..iter..iterator..Iterator$GT$::next::ha380f50b0123223f
PUBLIC 22680 0 std::fs::DirEntry::file_name::hf4b7df607b81e48f
PUBLIC 226d0 0 _$LT$std..io..lazy..Lazy$LT$T$GT$$GT$::get::hfa68d10d5b87ded4
PUBLIC 227b0 0 std::sys_common::thread::start_thread::h3acda9c82bdde7f1
PUBLIC 228d0 0 std::sys_common::thread::min_stack::h6a164b095ad92107
PUBLIC 22a80 0 std::alloc::default_alloc_error_hook::ha7bc80569e37a080
PUBLIC 22af0 0 rust_oom
PUBLIC 22b10 0 std::rt::lang_start_internal::hf71fda63f858a2be
PUBLIC 22d80 0 _$LT$std..error..$LT$impl$u20$core..convert..From$LT$alloc..string..String$GT$$u20$for$u20$alloc..boxed..Box$LT$$LP$dyn$u20$std..error..Error$u20$$u2b$$u20$core..marker..Send$u20$$u2b$$u20$core..marker..Sync$u20$$u2b$$u20$$u27$static$RP$$GT$$GT$..from..StringError$u20$as$u20$core..fmt..Debug$GT$::fmt::hbf90711d77ab9063
PUBLIC 22dd0 0 std::error::_$LT$impl$u20$core..convert..From$LT$$RF$$u27$b$u20$str$GT$$u20$for$u20$alloc..boxed..Box$LT$$LP$dyn$u20$std..error..Error$u20$$u2b$$u20$core..marker..Send$u20$$u2b$$u20$core..marker..Sync$u20$$u2b$$u20$$u27$a$RP$$GT$$GT$::from::h4a81d5583ffc4312
PUBLIC 22de0 0 core::ptr::drop_in_place::h44ee5ab9dbcbb161
PUBLIC 22e00 0 core::str::traits::_$LT$impl$u20$core..slice..SliceIndex$LT$str$GT$$u20$for$u20$core..ops..range..Range$LT$usize$GT$$GT$::index::_$u7b$$u7b$closure$u7d$$u7d$::haff0ab2845af70cc
PUBLIC 22e30 0 core::str::traits::_$LT$impl$u20$core..slice..SliceIndex$LT$str$GT$$u20$for$u20$core..ops..range..RangeTo$LT$usize$GT$$GT$::index::_$u7b$$u7b$closure$u7d$$u7d$::hca976427d18a4048
PUBLIC 22e50 0 core::str::pattern::TwoWaySearcher::next_back::h79ed4ec10e0cd74b
PUBLIC 23020 0 _$LT$core..str..SplitInternal$LT$$u27$a$C$$u20$P$GT$$GT$::next_back::h846684cce44b9cad
PUBLIC 232c0 0 alloc::alloc::box_free::h2b94fb1dc019fe63
PUBLIC 232d0 0 alloc::alloc::box_free::h86190e9a836215c0
PUBLIC 232f0 0 std::sys_common::backtrace::print::h329a53789d3fcb87
PUBLIC 243a0 0 std::sys_common::backtrace::__rust_begin_short_backtrace::ha2f3dc23ef45d616
PUBLIC 243b0 0 std::sys_common::backtrace::log_enabled::hddedec36360f8b4f
PUBLIC 24490 0 std::sys_common::backtrace::output::h08c44c816718eeb4
PUBLIC 26840 0 std::sys_common::backtrace::output_fileline::h5e485771394c8fe4
PUBLIC 26df0 0 core::fmt::num::_$LT$impl$u20$core..fmt..Debug$u20$for$u20$i32$GT$::fmt::h29d44e8fd331417e
PUBLIC 26e40 0 _ZN4core3ptr13drop_in_place17h31a6148024efb1f5E.llvm.242494946844705369
PUBLIC 26e60 0 core::ptr::drop_in_place::h7ddea1ab4e5ec96d
PUBLIC 26e70 0 core::ptr::drop_in_place::hdf202be98e12fd9c
PUBLIC 26e90 0 core::slice::_$LT$impl$u20$$u5b$T$u5d$$GT$::copy_from_slice::h1635117fff7a6eb5
PUBLIC 26fb0 0 _$LT$$RF$$u27$a$u20$T$u20$as$u20$core..fmt..Debug$GT$::fmt::h4e08c7b3dcc72a48
PUBLIC 26fc0 0 _$LT$alloc..string..String$u20$as$u20$core..fmt..Debug$GT$::fmt::h05b765560556cdbd
PUBLIC 26fe0 0 _$LT$alloc..string..String$u20$as$u20$core..fmt..Display$GT$::fmt::h7d068bcb6ee13292
PUBLIC 27000 0 std::ffi::c_str::_$LT$impl$u20$core..convert..From$LT$std..ffi..c_str..NulError$GT$$u20$for$u20$std..io..error..Error$GT$::from::hf5f725fe9c7c89b8
PUBLIC 27110 0 _$LT$std..io..error..Error$u20$as$u20$core..fmt..Debug$GT$::fmt::h75148db54f599a50
PUBLIC 27120 0 std::io::error::Error::new::ha6cabfbabdb729ca
PUBLIC 271f0 0 std::io::error::Error::_new::h841e2cf5702eeac6
PUBLIC 27280 0 std::io::error::Error::last_os_error::h507773a48991e6f1
PUBLIC 272a0 0 std::io::error::Error::raw_os_error::h38da4187102f6c83
PUBLIC 272b0 0 std::io::error::Error::kind::h65be843dd299ba48
PUBLIC 272d0 0 _$LT$std..io..error..Repr$u20$as$u20$core..fmt..Debug$GT$::fmt::hd711a693c116fb4b
PUBLIC 27490 0 _$LT$std..io..error..Error$u20$as$u20$core..fmt..Display$GT$::fmt::hf594b56cbaa79e39
PUBLIC 27740 0 _$LT$std..io..error..ErrorKind$u20$as$u20$core..fmt..Debug$GT$::fmt::he428e93630f6a98a
PUBLIC 278a0 0 _ZN3std4path10iter_after17h31c49e026c12e004E.llvm.6414758037374173354
PUBLIC 27ac0 0 _$LT$std..path..PrefixComponent$LT$$u27$a$GT$$u20$as$u20$core..cmp..PartialEq$GT$::eq::hc2863c57d8507d86
PUBLIC 27b80 0 std::path::Components::as_path::hdf354810f90944af
PUBLIC 27df0 0 std::path::Components::include_cur_dir::hdd4b5225b0ad29cf
PUBLIC 27ef0 0 std::path::Components::parse_next_component::h78eead72f972e047
PUBLIC 28090 0 std::path::Components::parse_next_component_back::h9d192ad54b742278
PUBLIC 28300 0 _$LT$std..path..Components$LT$$u27$a$GT$$u20$as$u20$core..iter..iterator..Iterator$GT$::next::hea8cca12e7f5790c
PUBLIC 28730 0 std::path::Path::new::h2791b3cea4aa96bb
PUBLIC 28740 0 std::path::Path::components::h815aa877fc2d63e3
PUBLIC 28780 0 _$LT$std..path..Path$u20$as$u20$core..convert..AsRef$LT$std..path..Path$GT$$GT$::as_ref::ha745c153803f1811
PUBLIC 28790 0 std::path::_$LT$impl$u20$core..convert..AsRef$LT$std..path..Path$GT$$u20$for$u20$str$GT$::as_ref::hd464edce461956c2
PUBLIC 287a0 0 core::fmt::Write::write_char::h6b1b045104c0e560
PUBLIC 288c0 0 core::fmt::Write::write_char::hc3da507c3abae181
PUBLIC 289e0 0 core::fmt::Write::write_fmt::h241acfa0249bbdd6
PUBLIC 28a20 0 core::fmt::Write::write_fmt::hab38211c6bdad3a2
PUBLIC 28a60 0 _ZN4core3ptr13drop_in_place17h01f69269b1b5430eE.llvm.3682525461960199280
PUBLIC 28a80 0 core::ptr::drop_in_place::h09231c5fda19b2a4
PUBLIC 28a90 0 _ZN4core3ptr13drop_in_place17h788d1d028745d85dE.llvm.3682525461960199280
PUBLIC 28b10 0 _$LT$$BP$const$u20$T$u20$as$u20$core..fmt..Debug$GT$::fmt::hb00f3a0619b69be3
PUBLIC 28b90 0 _$LT$$RF$$u27$a$u20$T$u20$as$u20$core..fmt..Debug$GT$::fmt::h9f3e7600e0cae53d
PUBLIC 28be0 0 _$LT$$RF$$u27$a$u20$T$u20$as$u20$core..fmt..Debug$GT$::fmt::hb7617d435a810103
PUBLIC 28c30 0 _$LT$$RF$$u27$a$u20$T$u20$as$u20$core..fmt..Debug$GT$::fmt::he13294790dccf452
PUBLIC 28c80 0 _$LT$$RF$$u27$a$u20$T$u20$as$u20$core..fmt..Display$GT$::fmt::h1aa201f9fe038f3e
PUBLIC 28ca0 0 _$LT$$RF$$u27$a$u20$T$u20$as$u20$core..fmt..UpperHex$GT$::fmt::hae14fce41081ddda
PUBLIC 28cb0 0 _ZN5alloc5alloc8box_free17h2b94fb1dc019fe63E.llvm.3682525461960199280
PUBLIC 28cc0 0 _ZN5alloc5alloc8box_free17h86190e9a836215c0E.llvm.3682525461960199280
PUBLIC 28ce0 0 _$LT$core..fmt..Write..write_fmt..Adapter$LT$$u27$a$C$$u20$T$GT$$u20$as$u20$core..fmt..Write$GT$::write_char::h667ca0aa20d05dc4
PUBLIC 28cf0 0 _$LT$core..fmt..Write..write_fmt..Adapter$LT$$u27$a$C$$u20$T$GT$$u20$as$u20$core..fmt..Write$GT$::write_char::hbaf3c36ba9c3088a
PUBLIC 28e30 0 _$LT$core..fmt..Write..write_fmt..Adapter$LT$$u27$a$C$$u20$T$GT$$u20$as$u20$core..fmt..Write$GT$::write_char::he0e2fb977b4c41af
PUBLIC 28e40 0 _$LT$core..fmt..Write..write_fmt..Adapter$LT$$u27$a$C$$u20$T$GT$$u20$as$u20$core..fmt..Write$GT$::write_fmt::h3bb99f9b11519215
PUBLIC 28e90 0 _$LT$core..fmt..Write..write_fmt..Adapter$LT$$u27$a$C$$u20$T$GT$$u20$as$u20$core..fmt..Write$GT$::write_fmt::h78adac39541a3b68
PUBLIC 28ee0 0 _$LT$core..fmt..Write..write_fmt..Adapter$LT$$u27$a$C$$u20$T$GT$$u20$as$u20$core..fmt..Write$GT$::write_fmt::hcdf21df7edfeb14d
PUBLIC 28f30 0 _$LT$core..fmt..Write..write_fmt..Adapter$LT$$u27$a$C$$u20$T$GT$$u20$as$u20$core..fmt..Write$GT$::write_str::h08c103ff5810fc31
PUBLIC 28fa0 0 _$LT$core..fmt..Write..write_fmt..Adapter$LT$$u27$a$C$$u20$T$GT$$u20$as$u20$core..fmt..Write$GT$::write_str::h3216645b71bf4642
PUBLIC 29010 0 _$LT$core..fmt..Write..write_fmt..Adapter$LT$$u27$a$C$$u20$T$GT$$u20$as$u20$core..fmt..Write$GT$::write_str::ha8269dadf9e23215
PUBLIC 29080 0 _$LT$std..io..Guard$LT$$u27$a$GT$$u20$as$u20$core..ops..drop..Drop$GT$::drop::h33813b04c07dc8a7
PUBLIC 29090 0 _$LT$std..io..Write..write_fmt..Adaptor$LT$$u27$a$C$$u20$T$GT$$u20$as$u20$core..fmt..Write$GT$::write_str::h17efaba89fbe9cd6
PUBLIC 29100 0 _$LT$std..io..Write..write_fmt..Adaptor$LT$$u27$a$C$$u20$T$GT$$u20$as$u20$core..fmt..Write$GT$::write_str::h58f12cee915e04cc
PUBLIC 29170 0 _$LT$std..sync..mutex..Mutex$LT$T$GT$$GT$::new::h837ed1a8a74efbb7
PUBLIC 29210 0 std::sys_common::thread_info::set::h62fafedf7adf5a27
PUBLIC 29280 0 std::sys_common::thread_info::THREAD_INFO::__init::he6e7a0e776c98e7c
PUBLIC 292a0 0 std::sys_common::thread_info::THREAD_INFO::__getit::hcd50cabc2a514697
PUBLIC 29320 0 core::ptr::drop_in_place::h1272a69dc056e39f
PUBLIC 29330 0 core::ptr::drop_in_place::h1547a42a7e9dbc1b
PUBLIC 293d0 0 _ZN4core3ptr13drop_in_place17h788d1d028745d85dE.llvm.547069172520129380
PUBLIC 29450 0 _ZN4core3ptr13drop_in_place17hbc8516897d3b6932E.llvm.547069172520129380
PUBLIC 294b0 0 _ZN4core3ptr13drop_in_place17hd82e138c0cffdcb4E.llvm.547069172520129380
PUBLIC 294c0 0 _ZN4core3ptr13drop_in_place17hfd12f4a97d3e8633E.llvm.547069172520129380
PUBLIC 294d0 0 _ZN5alloc5alloc8box_free17h2b94fb1dc019fe63E.llvm.547069172520129380
PUBLIC 294e0 0 _ZN5alloc5alloc8box_free17h86190e9a836215c0E.llvm.547069172520129380
PUBLIC 29500 0 _ZN5alloc5alloc8box_free17hfc30f279f061ff77E.llvm.547069172520129380
PUBLIC 29520 0 _ZN46_$LT$std..io..buffered..BufWriter$LT$W$GT$$GT$9flush_buf17h93949a5ca88459edE.llvm.547069172520129380
PUBLIC 29720 0 _$LT$std..io..buffered..BufWriter$LT$W$GT$$u20$as$u20$std..io..Write$GT$::write::hc7366fd6b21ce29a
PUBLIC 29880 0 _$LT$std..io..buffered..BufWriter$LT$W$GT$$u20$as$u20$core..ops..drop..Drop$GT$::drop::h8192d7aabf2937ef
PUBLIC 29920 0 _$LT$std..io..buffered..LineWriter$LT$W$GT$$u20$as$u20$std..io..Write$GT$::write::hceda8a4fc0e24e24
PUBLIC 29bf0 0 std::sys_common::at_exit_imp::cleanup::h373d18d9f183e4ef
PUBLIC 29d60 0 std::sys_common::at_exit_imp::push::h277e9db3c55ad6c8
PUBLIC 29e90 0 _$LT$alloc..sync..Arc$LT$T$GT$$GT$::drop_slow::h29058eac17eaed1a
PUBLIC 29f30 0 _$LT$alloc..sync..Arc$LT$T$GT$$GT$::drop_slow::h54cee049546aa1d5
PUBLIC 29f90 0 _$LT$alloc..sync..Arc$LT$T$GT$$GT$::drop_slow::h7c4cacf88a5e1daf
PUBLIC 2a020 0 _ZN4core3ptr13drop_in_place17h1272a69dc056e39fE.llvm.2826610254208905839
PUBLIC 2a030 0 _ZN4core3ptr13drop_in_place17h57e9183b4a63143bE.llvm.2826610254208905839
PUBLIC 2a040 0 core::ptr::drop_in_place::h62cb9fa2a5022317
PUBLIC 2a060 0 core::ptr::drop_in_place::h6bfaec2af5e29da3
PUBLIC 2a080 0 core::ptr::drop_in_place::h6f13534c66b6eee6
PUBLIC 2a0a0 0 _ZN4core3ptr13drop_in_place17h788d1d028745d85dE.llvm.2826610254208905839
PUBLIC 2a120 0 core::ptr::drop_in_place::h78d3920e17551e9c
PUBLIC 2a140 0 core::ptr::drop_in_place::h869711006e9b2e96
PUBLIC 2a1a0 0 core::ptr::drop_in_place::h93c999618d6bd701
PUBLIC 2a1b0 0 core::ptr::drop_in_place::hd5f1576857658426
PUBLIC 2a230 0 core::ptr::drop_in_place::hee008d26d17153b3
PUBLIC 2a250 0 _ZN4core3ptr13drop_in_place17hfd12f4a97d3e8633E.llvm.2826610254208905839
PUBLIC 2a260 0 _ZN5alloc5alloc8box_free17h2b94fb1dc019fe63E.llvm.2826610254208905839
PUBLIC 2a270 0 _ZN5alloc5alloc8box_free17h86190e9a836215c0E.llvm.2826610254208905839
PUBLIC 2a290 0 _$LT$std..thread..local..AccessError$u20$as$u20$core..fmt..Debug$GT$::fmt::h8b0a996045e8feaa
PUBLIC 2a2c0 0 _$LT$std..thread..local..LocalKey$LT$T$GT$$GT$::with::h0a3e674f14296c0a
PUBLIC 2a470 0 _$LT$std..thread..local..LocalKey$LT$T$GT$$GT$::with::h1f6840958de67b4f
PUBLIC 2a610 0 _$LT$std..thread..local..LocalKey$LT$T$GT$$GT$::with::h3ca4be2711531580
PUBLIC 2a720 0 _$LT$std..thread..local..LocalKey$LT$T$GT$$GT$::with::hdd515014b7591b8f
PUBLIC 2a830 0 _$LT$std..thread..local..LocalKey$LT$T$GT$$GT$::try_with::h4ea79f3a8c785783
PUBLIC 2aa60 0 _$LT$std..thread..local..LocalKey$LT$T$GT$$GT$::try_with::h686cd73c32db32c0
PUBLIC 2ac70 0 std::io::stdio::stdout::stdout_init::h381333921b838bbe
PUBLIC 2ae20 0 _$LT$std..io..stdio..Stdout$u20$as$u20$std..io..Write$GT$::write_fmt::hfe4b42292dd5f4fd
PUBLIC 2b030 0 std::io::stdio::_print::h3fe914eb1e85ffa7
PUBLIC 2b4f0 0 std::io::Write::write_all::hc5aa410948819e58
PUBLIC 2b6e0 0 std::sys_common::bytestring::debug_fmt_bytestring::h3d99de3ad89fecd8
PUBLIC 2ba30 0 std::sys::unix::condvar::Condvar::init::ha2d53d6144a1359a
PUBLIC 2bca0 0 std::sys::unix::decode_error_kind::h061f5da470b4709f
PUBLIC 2bcf0 0 std::sys::unix::cvt_r::h07e44f8e2d880b1d
PUBLIC 2bd90 0 std::sys::unix::abort_internal::hc9d6a4c8937bda67
PUBLIC 2bda0 0 _$LT$T$u20$as$u20$core..any..Any$GT$::get_type_id::h981bce83a407c474
PUBLIC 2bdb0 0 core::ptr::drop_in_place::h01f69269b1b5430e
PUBLIC 2bdd0 0 core::ptr::drop_in_place::h1de0fb9a4e796575
PUBLIC 2bde0 0 _ZN4core3ptr13drop_in_place17h204e52e9b2ed5fb2E.llvm.16106347356587330352
PUBLIC 2be60 0 core::ptr::drop_in_place::h31a6148024efb1f5
PUBLIC 2be80 0 _ZN4core3ptr13drop_in_place17h4205af600cf499a6E.llvm.16106347356587330352
PUBLIC 2bea0 0 core::ptr::drop_in_place::h8cee867e3543b8ac
PUBLIC 2bed0 0 _ZN4core3ptr13drop_in_place17hbd794fb3d0d1242dE.llvm.16106347356587330352
PUBLIC 2bef0 0 core::ptr::drop_in_place::hd82e138c0cffdcb4
PUBLIC 2bf00 0 core::ptr::drop_in_place::hd93b6d325bb6ab96
PUBLIC 2bf20 0 _ZN4core3str6traits103_$LT$impl$u20$core..slice..SliceIndex$LT$str$GT$$u20$for$u20$core..ops..range..RangeTo$LT$usize$GT$$GT$5index28_$u7b$$u7b$closure$u7d$$u7d$17hca976427d18a4048E.llvm.16106347356587330352
PUBLIC 2bf40 0 _ZN4core3str6traits105_$LT$impl$u20$core..slice..SliceIndex$LT$str$GT$$u20$for$u20$core..ops..range..RangeFrom$LT$usize$GT$$GT$5index28_$u7b$$u7b$closure$u7d$$u7d$17h73feb80fdbae5163E.llvm.16106347356587330352
PUBLIC 2bf70 0 core::result::unwrap_failed::h149107a2ae6a5180
PUBLIC 2c000 0 core::result::unwrap_failed::h1d6e307d9e44431a
PUBLIC 2c090 0 core::result::unwrap_failed::h1eb3605e64adbb6b
PUBLIC 2c120 0 _ZN4core6result13unwrap_failed17h3fde888169a4a4d5E.llvm.16106347356587330352
PUBLIC 2c1e0 0 core::result::unwrap_failed::h43823b81383a459f
PUBLIC 2c280 0 core::result::unwrap_failed::hc455da29629981f0
PUBLIC 2c310 0 core::result::unwrap_failed::hf11ebf823405b501
PUBLIC 2c3a0 0 _$LT$$RF$$u27$a$u20$T$u20$as$u20$core..fmt..Debug$GT$::fmt::hfc1a5733681786c9
PUBLIC 2c3c0 0 alloc::alloc::box_free::h2b94fb1dc019fe63
PUBLIC 2c3d0 0 alloc::alloc::box_free::h86190e9a836215c0
PUBLIC 2c3f0 0 std::thread::Builder::new::h4f5cacb2d96f6427
PUBLIC 2c410 0 std::thread::sleep::h3e96316e7ceccaa2
PUBLIC 2c420 0 std::thread::park::h723d007d30a7c2da
PUBLIC 2c6d0 0 std::thread::Thread::new::hd46849f8ee262f48
PUBLIC 2c8f0 0 std::thread::Thread::unpark::h0ce3dd534973d1b1
PUBLIC 2cb20 0 std::thread::Thread::cname::h59c6dad0fc04ef21
PUBLIC 2cb40 0 _$LT$std..sync..condvar..Condvar$u20$as$u20$core..ops..drop..Drop$GT$::drop::h9edd636a14272b5a
PUBLIC 2cb50 0 _$LT$std..sys_common..poison..PoisonError$LT$T$GT$$u20$as$u20$core..fmt..Debug$GT$::fmt::h1c395d681ef2f562
PUBLIC 2cb70 0 std::sys_common::gnu::libbacktrace::foreach_symbol_fileline::h5d646b03802a372a
PUBLIC 2d080 0 std::sys_common::gnu::libbacktrace::resolve_symname::h62de047683f59a29
PUBLIC 2d290 0 std::sys_common::gnu::libbacktrace::resolve_symname::h69b9a482f89e364b
PUBLIC 2d8c0 0 std::sys_common::gnu::libbacktrace::error_cb::he4030b159262139d
PUBLIC 2d8d0 0 std::sys_common::gnu::libbacktrace::syminfo_cb::h0aaca7a5135806a0
PUBLIC 2d8e0 0 std::sys_common::gnu::libbacktrace::pcinfo_cb::h376d9dd16765373b
PUBLIC 2d910 0 core::ptr::drop_in_place::h6e9d0634b89a2b2c
PUBLIC 2d920 0 std::error::Error::cause::h222cab34677a274b
PUBLIC 2d930 0 std::error::Error::type_id::h4d1644c7789c26e1
PUBLIC 2d940 0 _ZN3std3sys4unix4weak5fetch17h8f5e5246f1898adcE.llvm.9204702606830170030
PUBLIC 2da10 0 _$LT$std..sys..unix..backtrace..tracing..imp..UnwindError$u20$as$u20$std..error..Error$GT$::description::hd98b93537263e195
PUBLIC 2da20 0 _$LT$std..sys..unix..backtrace..tracing..imp..UnwindError$u20$as$u20$core..fmt..Display$GT$::fmt::h9d91afd7af7e1dca
PUBLIC 2dac0 0 std::sys::unix::backtrace::tracing::imp::unwind_backtrace::ha47dfa322c35d949
PUBLIC 2dbf0 0 std::sys::unix::backtrace::tracing::imp::trace_fn::ha58ce71f2ac0bfc3
PUBLIC 2dc70 0 std::sys::unix::thread::guard::init::hc2d2caf12680db49
PUBLIC 2df60 0 std::sys::unix::thread::guard::current::h438fda832e4b08aa
PUBLIC 2e2a0 0 _$LT$std..sys..unix..backtrace..tracing..imp..UnwindError$u20$as$u20$core..fmt..Debug$GT$::fmt::h7e899e1de78dba81
PUBLIC 2e2f0 0 _$LT$T$u20$as$u20$core..any..Any$GT$::get_type_id::h63ca26ca60a9ec70
PUBLIC 2e300 0 _$LT$T$u20$as$u20$core..any..Any$GT$::get_type_id::h876b7214240c0d07
PUBLIC 2e310 0 _$LT$T$u20$as$u20$core..any..Any$GT$::get_type_id::hdcc4a745b9707c5a
PUBLIC 2e320 0 core::ops::function::FnOnce::call_once::h8453d3c1d7908ef8
PUBLIC 2e3c0 0 _ZN4core3ptr13drop_in_place17h01f69269b1b5430eE.llvm.600956651094221804
PUBLIC 2e3e0 0 core::ptr::drop_in_place::h0f644b067787f4d5
PUBLIC 2e3f0 0 core::ptr::drop_in_place::h28b2abeb59c36f74
PUBLIC 2e410 0 core::ptr::drop_in_place::h4205af600cf499a6
PUBLIC 2e430 0 core::ptr::drop_in_place::h4ac2cbd98f8341d1
PUBLIC 2e450 0 core::ptr::drop_in_place::h51b151268782acc0
PUBLIC 2e460 0 core::ptr::drop_in_place::hbdc8279263175a7e
PUBLIC 2e4a0 0 core::str::traits::_$LT$impl$u20$core..slice..SliceIndex$LT$str$GT$$u20$for$u20$core..ops..range..RangeFrom$LT$usize$GT$$GT$::index::_$u7b$$u7b$closure$u7d$$u7d$::h73feb80fdbae5163
PUBLIC 2e4d0 0 _$LT$$RF$$u27$a$u20$T$u20$as$u20$core..fmt..Debug$GT$::fmt::h3d47f4d9ed071935
PUBLIC 2e4e0 0 _$LT$$RF$$u27$a$u20$T$u20$as$u20$core..fmt..Debug$GT$::fmt::h48c55a4446f096ca
PUBLIC 2e500 0 _$LT$$RF$$u27$a$u20$T$u20$as$u20$core..fmt..Display$GT$::fmt::h7dbc1ebb9b7e9ea3
PUBLIC 2e510 0 _ZN5alloc5alloc8box_free17h2b94fb1dc019fe63E.llvm.600956651094221804
PUBLIC 2e520 0 _ZN5alloc5alloc8box_free17h86190e9a836215c0E.llvm.600956651094221804
PUBLIC 2e540 0 std::ffi::c_str::CString::from_vec_unchecked::hebe72aa27f817222
PUBLIC 2e600 0 std::ffi::os_str::OsString::into_string::h538137d20da975af
PUBLIC 2e740 0 _$LT$std..ffi..os_str..OsString$u20$as$u20$core..fmt..Debug$GT$::fmt::hb6a20d6c5a99424a
PUBLIC 2e760 0 std::ffi::os_str::OsStr::to_os_string::hdaec55c48aae6244
PUBLIC 2e840 0 std::sync::once::Once::call_once::_$u7b$$u7b$closure$u7d$$u7d$::h1fded3e58d6b48f4
PUBLIC 2e8e0 0 std::sync::once::Once::call_inner::h516ee891fa53427e
PUBLIC 2eac0 0 _$LT$std..sync..once..Finish$LT$$u27$a$GT$$u20$as$u20$core..ops..drop..Drop$GT$::drop::hb2abfd420f250fcb
PUBLIC 2ec00 0 std::sys_common::thread_local::StaticKey::lazy_init::h01ac021b0e1ce71e
PUBLIC 2ed60 0 std::sys_common::thread_local::register_dtor_fallback::h214a96685f5619a9
PUBLIC 2ee50 0 std::sys_common::thread_local::register_dtor_fallback::run_dtors::hcd282bcd558b9648
PUBLIC 2efa0 0 std::sys_common::util::dumb_print::hb229fc0bebfd8ac3
PUBLIC 2f050 0 std::sys_common::util::abort::h01c8285aab6a63d0
PUBLIC 2f0c0 0 std::sys_common::util::report_overflow::h331a2a47497b75d4
PUBLIC 2f1f0 0 _$LT$std..ffi..c_str..NulError$u20$as$u20$core..fmt..Debug$GT$::fmt::h340d2a637443eefb
PUBLIC 2f260 0 std::sys::unix::backtrace::printing::dladdr::resolve_symname::h3521f9dbd6d759a1
PUBLIC 2f750 0 std::sys::unix::backtrace::printing::dladdr::resolve_symname::hf0265ce6e7ac7aad
PUBLIC 2f820 0 _$LT$std..sys..unix..fd..FileDesc$u20$as$u20$core..ops..drop..Drop$GT$::drop::h212fecb7da7eb3ea
PUBLIC 2f830 0 _ZN49_$LT$alloc..raw_vec..RawVec$LT$T$C$$u20$A$GT$$GT$16reserve_internal17h1e437b246e932530E.llvm.13018828975656347403
PUBLIC 2f8c0 0 _$LT$alloc..raw_vec..RawVec$LT$T$C$$u20$A$GT$$GT$::reserve::h74ee66d0ee031a6c
PUBLIC 2f950 0 _$LT$alloc..raw_vec..RawVec$LT$T$C$$u20$A$GT$$GT$::reserve::h7bac19c11f193aa3
PUBLIC 2f960 0 _$LT$alloc..raw_vec..RawVec$LT$T$C$$u20$A$GT$$GT$::reserve::hdf960e801b83e07b
PUBLIC 2f970 0 _ZN4core3ptr13drop_in_place17h068312c558701e31E.llvm.8532868559677759530
PUBLIC 2f990 0 core::ptr::drop_in_place::h173c22079734bdfb
PUBLIC 2f9a0 0 _ZN4core3ptr13drop_in_place17h3b5a706a9e151f81E.llvm.8532868559677759530
PUBLIC 2f9b0 0 core::ptr::drop_in_place::h62cb9fa2a5022317
PUBLIC 2f9d0 0 _ZN4core3ptr13drop_in_place17h788d1d028745d85dE.llvm.8532868559677759530
PUBLIC 2fa50 0 core::ptr::drop_in_place::h8d969eb534e89d39
PUBLIC 2fa70 0 core::ptr::drop_in_place::hd82e138c0cffdcb4
PUBLIC 2fa80 0 _ZN4core3ptr13drop_in_place17hfd12f4a97d3e8633E.llvm.8532868559677759530
PUBLIC 2fa90 0 _ZN5alloc5alloc8box_free17h2b94fb1dc019fe63E.llvm.8532868559677759530
PUBLIC 2faa0 0 _ZN5alloc5alloc8box_free17h86190e9a836215c0E.llvm.8532868559677759530
PUBLIC 2fac0 0 _ZN3std6thread5local4fast13destroy_value17h293b2d673a5e96ecE.llvm.8532868559677759530
PUBLIC 2fb30 0 _ZN3std6thread5local4fast13destroy_value17ha3a35cfffba7e485E.llvm.8532868559677759530
PUBLIC 2fb60 0 std::env::current_dir::h8f8e5c3327fa07d6
PUBLIC 2fd90 0 std::env::_var_os::h2754ea265d739e36
PUBLIC 300a0 0 std::io::Write::write_all::h182d8e4fcb4216f8
PUBLIC 30270 0 std::io::Write::write_fmt::h1683fc34e765bb57
PUBLIC 30380 0 std::process::id::he8c9d52f5f9ca2a8
PUBLIC 30390 0 std::sys::unix::os::error_string::h57ab21344d24bdf5
PUBLIC 30480 0 _ZN3std3sys4unix14stack_overflow3imp14signal_handler17h71800aa3fd1a5023E.llvm.8532868559677759530
PUBLIC 30560 0 std::sys::unix::stack_overflow::imp::init::h5002543d23cb8990
PUBLIC 30680 0 backtrace_pcinfo
PUBLIC 306e0 0 fileline_initialize
PUBLIC 308e0 0 backtrace_syminfo
PUBLIC 30940 0 backtrace_open
PUBLIC 309b0 0 backtrace_close
PUBLIC 309f0 0 backtrace_create_state
PUBLIC 30a90 0 elf_uncompress_zdebug
PUBLIC 30b90 0 backtrace_initialize
PUBLIC 30cc0 0 elf_nodebug
PUBLIC 30ce0 0 elf_add
PUBLIC 32790 0 phdr_callback
PUBLIC 32860 0 elf_syminfo
PUBLIC 32900 0 elf_nosyms
PUBLIC 32920 0 elf_zlib_inflate_and_verify
PUBLIC 33850 0 elf_zlib_inflate_table
PUBLIC 33c80 0 elf_symbol_compare
PUBLIC 33ca0 0 elf_symbol_search
PUBLIC 33cc0 0 backtrace_alloc
PUBLIC 33d00 0 backtrace_free
PUBLIC 33d10 0 backtrace_vector_grow
PUBLIC 33dc0 0 backtrace_vector_finish
PUBLIC 33e10 0 backtrace_vector_release
PUBLIC 33e60 0 backtrace_dwarf_add
PUBLIC 35990 0 dwarf_fileline
PUBLIC 35a20 0 unit_addrs_compare
PUBLIC 35a70 0 read_uint64
PUBLIC 35b10 0 find_address_ranges
PUBLIC 36140 0 abbrev_compare
PUBLIC 36160 0 read_attribute
PUBLIC 36fb0 0 add_unit_ranges
PUBLIC 37620 0 dwarf_lookup_pc
PUBLIC 37ca0 0 unit_addrs_search
PUBLIC 37cc0 0 read_line_info
PUBLIC 39f90 0 line_search
PUBLIC 39fb0 0 function_addrs_search
PUBLIC 39fd0 0 report_inlined_functions
PUBLIC 3a0f0 0 line_compare
PUBLIC 3a120 0 read_function_entry
PUBLIC 3aac0 0 function_addrs_compare
PUBLIC 3ab00 0 read_referenced_name
PUBLIC 3ae80 0 add_function_ranges
PUBLIC 3b540 0 backtrace_get_view
PUBLIC 3b610 0 backtrace_release_view
PUBLIC 3b640 0 backtrace_qsort
PUBLIC 3bdd0 0 __rust_maybe_catch_panic
PUBLIC 3be50 0 __rust_start_panic
PUBLIC 3bef0 0 core::ops::function::FnOnce::call_once::h73048989177df85e
PUBLIC 3bf00 0 core::ops::function::FnOnce::call_once::h819bdf4edf128b3f
PUBLIC 3bf10 0 core::ptr::drop_in_place::h457b1dd260c1aba2
PUBLIC 3bf20 0 _ZN4core3ptr13drop_in_place17h6a4330042f3ed9caE.llvm.17863715736214317514
PUBLIC 3bf80 0 alloc::alloc::box_free::h76d8916747cda72b
PUBLIC 3bf90 0 _ZN5alloc5alloc8box_free17h83d3d252791fcaceE.llvm.17863715736214317514
PUBLIC 3bfb0 0 _ZN12panic_unwind3imp5panic17exception_cleanup17h6d6c5a2f1cbb29c3E.llvm.17863715736214317514
PUBLIC 3c020 0 rust_eh_personality
PUBLIC 3c150 0 panic_unwind::imp::find_eh_action::_$u7b$$u7b$closure$u7d$$u7d$::h9ec944106b3372a3
PUBLIC 3c160 0 panic_unwind::imp::find_eh_action::_$u7b$$u7b$closure$u7d$$u7d$::h40607cf95fd756d2
PUBLIC 3c170 0 panic_unwind::dwarf::eh::find_eh_action::h21592cc8a3867532
PUBLIC 3c300 0 panic_unwind::dwarf::eh::read_encoded_pointer::hb0c06e3e8afbf547
PUBLIC 3c480 0 __rde_alloc
PUBLIC 3c4b0 0 __rde_dealloc
PUBLIC 3c4e0 0 __rde_realloc
PUBLIC 3c520 0 __rde_alloc_zeroed
PUBLIC 3c560 0 je_a0get
PUBLIC 3c570 0 je_a0malloc
PUBLIC 3c580 0 a0ialloc
PUBLIC 3c800 0 je_a0dalloc
PUBLIC 3c810 0 a0idalloc
PUBLIC 3c930 0 je_narenas_total_get
PUBLIC 3c940 0 je_arena_init
PUBLIC 3c9e0 0 je_arena_migrate
PUBLIC 3ca50 0 je_arena_tdata_get_hard
PUBLIC 3cc40 0 je_arena_choose_hard
PUBLIC 3d310 0 je_thread_allocated_cleanup
PUBLIC 3d320 0 je_thread_deallocated_cleanup
PUBLIC 3d330 0 je_iarena_cleanup
PUBLIC 3d370 0 je_arena_cleanup
PUBLIC 3d3b0 0 je_arenas_tdata_cleanup
PUBLIC 3d3e0 0 je_narenas_tdata_cleanup
PUBLIC 3d3f0 0 je_arenas_tdata_bypass_cleanup
PUBLIC 3d400 0 malloc
PUBLIC 3e070 0 posix_memalign
PUBLIC 3e080 0 imemalign
PUBLIC 3e7f0 0 aligned_alloc
PUBLIC 3e840 0 calloc
PUBLIC 3f4c0 0 realloc
PUBLIC 40480 0 ifree
PUBLIC 40a80 0 free
PUBLIC 40b40 0 memalign
PUBLIC 40b80 0 valloc
PUBLIC 40bc0 0 mallocx
PUBLIC 42a70 0 rallocx
PUBLIC 43690 0 sdallocx
PUBLIC 43b20 0 isfree
PUBLIC 43ef0 0 mallctl
PUBLIC 44370 0 mallctlnametomib
PUBLIC 447d0 0 mallctlbymib
PUBLIC 44c50 0 malloc_stats_print
PUBLIC 44d00 0 malloc_usable_size
PUBLIC 44f30 0 jemalloc_constructor
PUBLIC 452a0 0 je_jemalloc_prefork
PUBLIC 45530 0 je_jemalloc_postfork_parent
PUBLIC 45680 0 je_jemalloc_postfork_child
PUBLIC 457d0 0 malloc_init_hard_a0_locked
PUBLIC 46720 0 stats_print_atexit
PUBLIC 468a0 0 je_arena_chunk_cache_maybe_insert
PUBLIC 46910 0 je_arena_chunk_cache_maybe_remove
PUBLIC 46960 0 je_arena_node_alloc
PUBLIC 46a10 0 je_arena_node_dalloc
PUBLIC 46a80 0 je_arena_chunk_alloc_huge
PUBLIC 46e10 0 je_arena_chunk_dalloc_huge
PUBLIC 46fc0 0 je_arena_chunk_ralloc_huge_similar
PUBLIC 470c0 0 arena_huge_ralloc_stats_update
PUBLIC 47240 0 je_arena_chunk_ralloc_huge_shrink
PUBLIC 473e0 0 je_arena_chunk_ralloc_huge_expand
PUBLIC 47860 0 je_arena_lg_dirty_mult_get
PUBLIC 47890 0 je_arena_lg_dirty_mult_set
PUBLIC 47950 0 je_arena_maybe_purge
PUBLIC 479f0 0 je_arena_decay_time_get
PUBLIC 47a20 0 je_arena_decay_time_set
PUBLIC 47b80 0 arena_maybe_purge_decay
PUBLIC 47db0 0 je_arena_purge
PUBLIC 47e70 0 arena_purge_to_limit
PUBLIC 48770 0 je_arena_reset
PUBLIC 48b60 0 arena_chunk_discard
PUBLIC 48c60 0 je_arena_tcache_fill_small
PUBLIC 48fd0 0 arena_bin_malloc_hard
PUBLIC 49420 0 je_arena_alloc_junk_small
PUBLIC 49470 0 je_arena_dalloc_junk_small
PUBLIC 495b0 0 je_arena_quarantine_junk_small
PUBLIC 49790 0 je_arena_malloc_large
PUBLIC 49aa0 0 je_arena_malloc_hard
PUBLIC 49e20 0 je_arena_palloc
PUBLIC 4af00 0 je_arena_dalloc_bin_junked_locked
PUBLIC 4af10 0 arena_dalloc_bin_locked_impl
PUBLIC 4b2a0 0 je_arena_dalloc_small
PUBLIC 4b400 0 je_arena_dalloc_junk_large
PUBLIC 4b420 0 je_arena_dalloc_large_junked_locked
PUBLIC 4b430 0 arena_dalloc_large_locked_impl
PUBLIC 4b5c0 0 je_arena_dalloc_large
PUBLIC 4b6d0 0 je_arena_ralloc_no_move
PUBLIC 4c2e0 0 je_arena_ralloc
PUBLIC 4ce70 0 je_arena_dss_prec_get
PUBLIC 4cea0 0 je_arena_dss_prec_set
PUBLIC 4ced0 0 je_arena_lg_dirty_mult_default_get
PUBLIC 4cee0 0 je_arena_lg_dirty_mult_default_set
PUBLIC 4cf00 0 je_arena_decay_time_default_get
PUBLIC 4cf10 0 je_arena_decay_time_default_set
PUBLIC 4cf50 0 je_arena_stats_merge
PUBLIC 4d2a0 0 je_arena_nthreads_get
PUBLIC 4d2b0 0 je_arena_nthreads_inc
PUBLIC 4d2c0 0 je_arena_nthreads_dec
PUBLIC 4d2d0 0 je_arena_extent_sn_next
PUBLIC 4d2e0 0 je_arena_new
PUBLIC 4d650 0 je_arena_boot
PUBLIC 4f1c0 0 je_arena_prefork0
PUBLIC 4f1d0 0 je_arena_prefork1
PUBLIC 4f1e0 0 je_arena_prefork2
PUBLIC 4f1f0 0 je_arena_prefork3
PUBLIC 4f430 0 je_arena_postfork_parent
PUBLIC 4f6a0 0 je_arena_postfork_child
PUBLIC 4f910 0 arena_decay_deadline_init
PUBLIC 4fa10 0 arena_chunk_alloc
PUBLIC 4fe90 0 arena_avail_insert
PUBLIC 50020 0 arena_run_split_large_helper
PUBLIC 502d0 0 arena_run_split_remove
PUBLIC 50620 0 arena_run_heap_remove
PUBLIC 50ec0 0 arena_run_dalloc
PUBLIC 51950 0 arena_bin_nonfull_run_tryget
PUBLIC 51ed0 0 arena_run_split_small
PUBLIC 52100 0 arena_run_first_best_fit
PUBLIC 52590 0 je_base_alloc
PUBLIC 527f0 0 je_base_stats_get
PUBLIC 52850 0 je_base_boot
PUBLIC 528a0 0 je_base_prefork
PUBLIC 528b0 0 je_base_postfork_parent
PUBLIC 528c0 0 je_base_postfork_child
PUBLIC 528d0 0 je_bitmap_info_init
PUBLIC 528e0 0 je_bitmap_init
PUBLIC 52920 0 chunk_alloc_default
PUBLIC 52ad0 0 chunk_dalloc_default
PUBLIC 52b00 0 chunk_commit_default
PUBLIC 52b10 0 chunk_decommit_default
PUBLIC 52b20 0 chunk_purge_default
PUBLIC 52b30 0 chunk_split_default
PUBLIC 52b40 0 chunk_merge_default
PUBLIC 52b50 0 je_chunk_hooks_get
PUBLIC 52bb0 0 je_chunk_hooks_set
PUBLIC 52c70 0 je_chunk_register
PUBLIC 52c80 0 je_rtree_set
PUBLIC 52e00 0 je_chunk_deregister
PUBLIC 52e10 0 je_chunk_alloc_base
PUBLIC 52e40 0 je_chunk_alloc_cache
PUBLIC 52e90 0 chunk_recycle
PUBLIC 53420 0 je_chunk_alloc_wrapper
PUBLIC 53650 0 je_chunk_dalloc_cache
PUBLIC 536b0 0 chunk_record
PUBLIC 53ad0 0 je_chunk_dalloc_wrapper
PUBLIC 53c60 0 je_chunk_purge_wrapper
PUBLIC 53d40 0 je_chunk_boot
PUBLIC 53db0 0 chunks_rtree_node_alloc
PUBLIC 53dc0 0 je_chunk_dss_prec_get
PUBLIC 53dd0 0 je_chunk_dss_prec_set
PUBLIC 53de0 0 je_chunk_alloc_dss
PUBLIC 54030 0 je_chunk_in_dss
PUBLIC 54050 0 je_chunk_dss_mergeable
PUBLIC 54090 0 je_chunk_dss_boot
PUBLIC 540c0 0 je_chunk_alloc_mmap
PUBLIC 54180 0 je_chunk_dalloc_mmap
PUBLIC 54190 0 je_ctl_byname
PUBLIC 54240 0 ctl_init
PUBLIC 543f0 0 ctl_lookup
PUBLIC 54620 0 je_ctl_nametomib
PUBLIC 54680 0 je_ctl_bymib
PUBLIC 547b0 0 je_ctl_boot
PUBLIC 547e0 0 je_ctl_prefork
PUBLIC 547f0 0 je_ctl_postfork_parent
PUBLIC 54800 0 je_ctl_postfork_child
PUBLIC 54810 0 ctl_refresh
PUBLIC 54ea0 0 version_ctl
PUBLIC 54f00 0 epoch_ctl
PUBLIC 54f90 0 thread_arena_ctl
PUBLIC 55100 0 thread_allocated_ctl
PUBLIC 55160 0 thread_allocatedp_ctl
PUBLIC 551c0 0 thread_deallocated_ctl
PUBLIC 55220 0 thread_deallocatedp_ctl
PUBLIC 55280 0 thread_tcache_enabled_ctl
PUBLIC 55470 0 thread_tcache_flush_ctl
PUBLIC 55530 0 thread_prof_name_ctl
PUBLIC 55540 0 thread_prof_active_ctl
PUBLIC 55550 0 config_cache_oblivious_ctl
PUBLIC 555b0 0 config_debug_ctl
PUBLIC 55610 0 config_fill_ctl
PUBLIC 55670 0 config_lazy_lock_ctl
PUBLIC 556d0 0 config_malloc_conf_ctl
PUBLIC 55730 0 config_munmap_ctl
PUBLIC 55790 0 config_prof_ctl
PUBLIC 557f0 0 config_prof_libgcc_ctl
PUBLIC 55850 0 config_prof_libunwind_ctl
PUBLIC 558b0 0 config_stats_ctl
PUBLIC 55910 0 config_tcache_ctl
PUBLIC 55970 0 config_thp_ctl
PUBLIC 559d0 0 config_tls_ctl
PUBLIC 55a30 0 config_utrace_ctl
PUBLIC 55a90 0 config_valgrind_ctl
PUBLIC 55af0 0 config_xmalloc_ctl
PUBLIC 55b50 0 opt_abort_ctl
PUBLIC 55bb0 0 opt_dss_ctl
PUBLIC 55c10 0 opt_lg_chunk_ctl
PUBLIC 55c70 0 opt_narenas_ctl
PUBLIC 55cd0 0 opt_purge_ctl
PUBLIC 55d40 0 opt_lg_dirty_mult_ctl
PUBLIC 55da0 0 opt_decay_time_ctl
PUBLIC 55e00 0 opt_stats_print_ctl
PUBLIC 55e60 0 opt_junk_ctl
PUBLIC 55ec0 0 opt_zero_ctl
PUBLIC 55f20 0 opt_quarantine_ctl
PUBLIC 55f80 0 opt_redzone_ctl
PUBLIC 55fe0 0 opt_utrace_ctl
PUBLIC 55ff0 0 opt_xmalloc_ctl
PUBLIC 56000 0 opt_tcache_ctl
PUBLIC 56060 0 opt_lg_tcache_max_ctl
PUBLIC 560c0 0 opt_thp_ctl
PUBLIC 560d0 0 opt_prof_ctl
PUBLIC 560e0 0 opt_prof_prefix_ctl
PUBLIC 560f0 0 opt_prof_active_ctl
PUBLIC 56100 0 opt_prof_thread_active_init_ctl
PUBLIC 56110 0 opt_lg_prof_sample_ctl
PUBLIC 56120 0 opt_lg_prof_interval_ctl
PUBLIC 56130 0 opt_prof_gdump_ctl
PUBLIC 56140 0 opt_prof_final_ctl
PUBLIC 56150 0 opt_prof_leak_ctl
PUBLIC 56160 0 opt_prof_accum_ctl
PUBLIC 56170 0 tcache_create_ctl
PUBLIC 561f0 0 tcache_flush_ctl
PUBLIC 56230 0 tcache_destroy_ctl
PUBLIC 56270 0 arena_i_index
PUBLIC 562b0 0 arena_i_purge_ctl
PUBLIC 562e0 0 arena_i_decay_ctl
PUBLIC 56310 0 arena_i_reset_ctl
PUBLIC 56370 0 arena_i_dss_ctl
PUBLIC 56520 0 arena_i_lg_dirty_mult_ctl
PUBLIC 565f0 0 arena_i_decay_time_ctl
PUBLIC 566c0 0 arena_i_chunk_hooks_ctl
PUBLIC 56860 0 arena_i_purge
PUBLIC 569c0 0 arenas_narenas_ctl
PUBLIC 56a30 0 arenas_initialized_ctl
PUBLIC 56b40 0 arenas_lg_dirty_mult_ctl
PUBLIC 56bc0 0 arenas_decay_time_ctl
PUBLIC 56c40 0 arenas_quantum_ctl
PUBLIC 56ca0 0 arenas_page_ctl
PUBLIC 56d00 0 arenas_tcache_max_ctl
PUBLIC 56d60 0 arenas_nbins_ctl
PUBLIC 56dc0 0 arenas_nhbins_ctl
PUBLIC 56e20 0 arenas_nlruns_ctl
PUBLIC 56e80 0 arenas_nhchunks_ctl
PUBLIC 56ee0 0 arenas_extend_ctl
PUBLIC 570e0 0 arenas_bin_i_index
PUBLIC 57100 0 arenas_bin_i_size_ctl
PUBLIC 57170 0 arenas_bin_i_nregs_ctl
PUBLIC 571e0 0 arenas_bin_i_run_size_ctl
PUBLIC 57250 0 arenas_lrun_i_index
PUBLIC 57270 0 arenas_lrun_i_size_ctl
PUBLIC 572d0 0 arenas_hchunk_i_index
PUBLIC 572f0 0 arenas_hchunk_i_size_ctl
PUBLIC 57360 0 prof_thread_active_init_ctl
PUBLIC 57370 0 prof_active_ctl
PUBLIC 57380 0 prof_dump_ctl
PUBLIC 57390 0 prof_gdump_ctl
PUBLIC 573a0 0 prof_reset_ctl
PUBLIC 573b0 0 prof_interval_ctl
PUBLIC 573c0 0 lg_prof_sample_ctl
PUBLIC 573d0 0 stats_cactive_ctl
PUBLIC 57460 0 stats_allocated_ctl
PUBLIC 574f0 0 stats_active_ctl
PUBLIC 57580 0 stats_metadata_ctl
PUBLIC 57610 0 stats_resident_ctl
PUBLIC 576a0 0 stats_mapped_ctl
PUBLIC 57730 0 stats_retained_ctl
PUBLIC 577c0 0 stats_arenas_i_index
PUBLIC 57810 0 stats_arenas_i_nthreads_ctl
PUBLIC 578b0 0 stats_arenas_i_dss_ctl
PUBLIC 57960 0 stats_arenas_i_lg_dirty_mult_ctl
PUBLIC 57a10 0 stats_arenas_i_decay_time_ctl
PUBLIC 57ac0 0 stats_arenas_i_pactive_ctl
PUBLIC 57b70 0 stats_arenas_i_pdirty_ctl
PUBLIC 57c20 0 stats_arenas_i_mapped_ctl
PUBLIC 57cd0 0 stats_arenas_i_retained_ctl
PUBLIC 57d80 0 stats_arenas_i_npurge_ctl
PUBLIC 57e30 0 stats_arenas_i_nmadvise_ctl
PUBLIC 57ee0 0 stats_arenas_i_purged_ctl
PUBLIC 57f90 0 stats_arenas_i_metadata_mapped_ctl
PUBLIC 58040 0 stats_arenas_i_metadata_allocated_ctl
PUBLIC 580f0 0 stats_arenas_i_small_allocated_ctl
PUBLIC 581a0 0 stats_arenas_i_small_nmalloc_ctl
PUBLIC 58250 0 stats_arenas_i_small_ndalloc_ctl
PUBLIC 58300 0 stats_arenas_i_small_nrequests_ctl
PUBLIC 583b0 0 stats_arenas_i_large_allocated_ctl
PUBLIC 58460 0 stats_arenas_i_large_nmalloc_ctl
PUBLIC 58510 0 stats_arenas_i_large_ndalloc_ctl
PUBLIC 585c0 0 stats_arenas_i_large_nrequests_ctl
PUBLIC 58670 0 stats_arenas_i_huge_allocated_ctl
PUBLIC 58720 0 stats_arenas_i_huge_nmalloc_ctl
PUBLIC 587d0 0 stats_arenas_i_huge_ndalloc_ctl
PUBLIC 58880 0 stats_arenas_i_huge_nrequests_ctl
PUBLIC 58930 0 stats_arenas_i_bins_j_index
PUBLIC 58950 0 stats_arenas_i_bins_j_nmalloc_ctl
PUBLIC 58a00 0 stats_arenas_i_bins_j_ndalloc_ctl
PUBLIC 58ab0 0 stats_arenas_i_bins_j_nrequests_ctl
PUBLIC 58b60 0 stats_arenas_i_bins_j_curregs_ctl
PUBLIC 58c10 0 stats_arenas_i_bins_j_nfills_ctl
PUBLIC 58cc0 0 stats_arenas_i_bins_j_nflushes_ctl
PUBLIC 58d70 0 stats_arenas_i_bins_j_nruns_ctl
PUBLIC 58e20 0 stats_arenas_i_bins_j_nreruns_ctl
PUBLIC 58ed0 0 stats_arenas_i_bins_j_curruns_ctl
PUBLIC 58f80 0 stats_arenas_i_lruns_j_index
PUBLIC 58fa0 0 stats_arenas_i_lruns_j_nmalloc_ctl
PUBLIC 59060 0 stats_arenas_i_lruns_j_ndalloc_ctl
PUBLIC 59120 0 stats_arenas_i_lruns_j_nrequests_ctl
PUBLIC 591e0 0 stats_arenas_i_lruns_j_curruns_ctl
PUBLIC 592a0 0 stats_arenas_i_hchunks_j_index
PUBLIC 592c0 0 stats_arenas_i_hchunks_j_nmalloc_ctl
PUBLIC 59380 0 stats_arenas_i_hchunks_j_ndalloc_ctl
PUBLIC 59440 0 stats_arenas_i_hchunks_j_nrequests_ctl
PUBLIC 59500 0 stats_arenas_i_hchunks_j_curhchunks_ctl
PUBLIC 595c0 0 je_extent_size_quantize_ceil
PUBLIC 59710 0 je_extent_tree_szsnad_new
PUBLIC 59720 0 extent_szsnad_comp
PUBLIC 598a0 0 je_extent_tree_szsnad_nsearch
PUBLIC 59910 0 je_extent_tree_szsnad_insert
PUBLIC 59ac0 0 je_extent_tree_szsnad_remove
PUBLIC 5a080 0 je_extent_tree_ad_new
PUBLIC 5a090 0 je_extent_tree_ad_prev
PUBLIC 5a0f0 0 je_extent_tree_ad_search
PUBLIC 5a140 0 je_extent_tree_ad_nsearch
PUBLIC 5a1a0 0 je_extent_tree_ad_insert
PUBLIC 5a330 0 je_extent_tree_ad_remove
PUBLIC 5a880 0 je_huge_malloc
PUBLIC 5a8a0 0 je_huge_palloc
PUBLIC 5af90 0 je_huge_ralloc_no_move
PUBLIC 5b520 0 huge_ralloc_no_move_expand
PUBLIC 5b690 0 je_huge_aalloc
PUBLIC 5b6a0 0 je_huge_ralloc
PUBLIC 5ba40 0 je_huge_dalloc
PUBLIC 5bcb0 0 huge_node_get
PUBLIC 5bdd0 0 je_huge_salloc
PUBLIC 5be10 0 je_malloc_mutex_init
PUBLIC 5be70 0 je_malloc_mutex_prefork
PUBLIC 5be80 0 je_malloc_mutex_postfork_parent
PUBLIC 5be90 0 je_malloc_mutex_postfork_child
PUBLIC 5bf00 0 je_malloc_mutex_boot
PUBLIC 5bf10 0 je_nstime_init
PUBLIC 5bf20 0 je_nstime_init2
PUBLIC 5bf30 0 je_nstime_ns
PUBLIC 5bf40 0 je_nstime_copy
PUBLIC 5bf50 0 je_nstime_compare
PUBLIC 5bf60 0 je_nstime_add
PUBLIC 5bf70 0 je_nstime_subtract
PUBLIC 5bf80 0 je_nstime_imultiply
PUBLIC 5bf90 0 je_nstime_idivide
PUBLIC 5bfa0 0 je_nstime_divide
PUBLIC 5bfb0 0 je_nstime_monotonic
PUBLIC 5bfc0 0 je_nstime_update
PUBLIC 5c010 0 je_pages_map
PUBLIC 5c0d0 0 je_pages_unmap
PUBLIC 5c120 0 je_pages_trim
PUBLIC 5c1f0 0 je_pages_commit
PUBLIC 5c2a0 0 je_pages_decommit
PUBLIC 5c350 0 je_pages_purge
PUBLIC 5c370 0 je_pages_boot
PUBLIC 5c400 0 je_prof_tdata_cleanup
PUBLIC 5c410 0 je_prof_prefork0
PUBLIC 5c490 0 je_prof_prefork1
PUBLIC 5c4f0 0 je_prof_postfork_parent
PUBLIC 5c5e0 0 je_prof_postfork_child
PUBLIC 5c6d0 0 je_quarantine_alloc_hook_work
PUBLIC 5c840 0 quarantine_init
PUBLIC 5ca10 0 je_quarantine
PUBLIC 5ce30 0 je_quarantine_cleanup
PUBLIC 5cf90 0 quarantine_drain_one
PUBLIC 5d020 0 je_rtree_new
PUBLIC 5d170 0 je_rtree_subtree_read_hard
PUBLIC 5d220 0 je_rtree_child_read_hard
PUBLIC 5d2d0 0 je_stats_print
PUBLIC 5f1c0 0 stats_print_helper
PUBLIC 5f9c0 0 stats_arena_print
PUBLIC 61fe0 0 je_tcache_event_hard
PUBLIC 620b0 0 je_tcache_bin_flush_small
PUBLIC 62320 0 je_tcache_bin_flush_large
PUBLIC 62560 0 je_tcache_alloc_small_hard
PUBLIC 625d0 0 je_tcache_arena_reassociate
PUBLIC 627c0 0 je_tcache_get_hard
PUBLIC 629a0 0 je_tcache_create
PUBLIC 62dd0 0 je_tcache_cleanup
PUBLIC 62df0 0 tcache_destroy
PUBLIC 631b0 0 je_tcache_enabled_cleanup
PUBLIC 631c0 0 je_tcache_stats_merge
PUBLIC 632f0 0 je_tcaches_create
PUBLIC 63420 0 je_tcaches_flush
PUBLIC 63470 0 je_tcaches_destroy
PUBLIC 634d0 0 je_tcache_boot
PUBLIC 636c0 0 je_tcache_prefork
PUBLIC 636e0 0 je_tcache_postfork_parent
PUBLIC 63700 0 je_tcache_postfork_child
PUBLIC 63720 0 je_tsd_cleanup
PUBLIC 63820 0 je_malloc_tsd_boot0
PUBLIC 638c0 0 je_malloc_tsd_boot1
PUBLIC 63930 0 je_malloc_write
PUBLIC 63970 0 wrtmessage
PUBLIC 639a0 0 je_buferror
PUBLIC 639e0 0 je_malloc_strtoumax
PUBLIC 63bd0 0 je_malloc_vsnprintf
PUBLIC 65420 0 je_malloc_snprintf
PUBLIC 654b0 0 je_malloc_cprintf
PUBLIC 65580 0 je_malloc_printf
PUBLIC 65650 0 je_witnesses_cleanup
PUBLIC 65660 0 je_witness_fork_cleanup
PUBLIC 65670 0 je_witness_prefork
PUBLIC 65680 0 je_witness_postfork_parent
PUBLIC 65690 0 je_witness_postfork_child
PUBLIC 656a0 0 _$LT$unwind..libunwind.._Unwind_Reason_Code$u20$as$u20$core..fmt..Debug$GT$::fmt::h6ed225a12ed34e70
PUBLIC 65790 0 alloc::string::FromUtf8Error::into_bytes::h78a255071838ba5d
PUBLIC 657b0 0 _$LT$alloc..string..String$u20$as$u20$core..convert..From$LT$$RF$$u27$a$u20$str$GT$$GT$::from::h7fdc2dc938b39599
PUBLIC 657e0 0 _ZN49_$LT$alloc..raw_vec..RawVec$LT$T$C$$u20$A$GT$$GT$16reserve_internal17h5c4a15920a87606bE.llvm.16350035881945087449
PUBLIC 65890 0 alloc::raw_vec::capacity_overflow::hc4713e1324d232a0
PUBLIC 658a0 0 alloc::alloc::handle_alloc_error::h81be1d7b77c32979
PUBLIC 658b0 0 _ZN4core3ptr13drop_in_place17h3ac61dc5ec981ff3E.llvm.14380593839381171941
PUBLIC 658d0 0 alloc::string::_$LT$impl$u20$core..convert..From$LT$alloc..string..String$GT$$u20$for$u20$alloc..vec..Vec$LT$u8$GT$$GT$::from::h91be9c718b0c7e35
PUBLIC 658f0 0 _$LT$alloc..vec..Vec$LT$u8$GT$$u20$as$u20$core..convert..From$LT$$RF$$u27$a$u20$str$GT$$GT$::from::h4794ee499bc6e39c
PUBLIC 659d0 0 alloc::str::_$LT$impl$u20$alloc..borrow..ToOwned$u20$for$u20$str$GT$::to_owned::h65424e4be6b0c272
PUBLIC 65a00 0 core::slice::_$LT$impl$u20$$u5b$T$u5d$$GT$::copy_from_slice::hfdc550393aa0154f
PUBLIC 65b20 0 _ZN4core3ptr13drop_in_place17h3ac61dc5ec981ff3E.llvm.11756916331056710516
PUBLIC 65b40 0 alloc::slice::_$LT$impl$u20$alloc..borrow..ToOwned$u20$for$u20$$u5b$T$u5d$$GT$::to_owned::h5c2fef0556a6f7dd
PUBLIC 65c20 0 _$LT$$RF$$u27$a$u20$T$u20$as$u20$core..fmt..Debug$GT$::fmt::hadde166f2be84fb3
PUBLIC 65c70 0 core::fmt::num::_$LT$impl$u20$core..fmt..LowerHex$u20$for$u20$i8$GT$::fmt::h3b3dffab3aeb2f03
PUBLIC 65d10 0 core::fmt::num::_$LT$impl$u20$core..fmt..UpperHex$u20$for$u20$i8$GT$::fmt::h49c575619e701cde
PUBLIC 65db0 0 core::fmt::num::_$LT$impl$u20$core..fmt..LowerHex$u20$for$u20$i32$GT$::fmt::hb9060517db5c5228
PUBLIC 65e50 0 core::fmt::num::_$LT$impl$u20$core..fmt..UpperHex$u20$for$u20$i32$GT$::fmt::h1450340cc0baf6c7
PUBLIC 65ef0 0 core::fmt::num::_$LT$impl$u20$core..fmt..LowerHex$u20$for$u20$i64$GT$::fmt::h2cd818048f3f73a7
PUBLIC 65f90 0 core::fmt::num::_$LT$impl$u20$core..fmt..UpperHex$u20$for$u20$i64$GT$::fmt::ha6a4bbaa8cb6fa78
PUBLIC 66030 0 core::fmt::num::_$LT$impl$u20$core..fmt..Display$u20$for$u20$u8$GT$::fmt::h8e0e4246e21be0d1
PUBLIC 660d0 0 core::fmt::num::_$LT$impl$u20$core..fmt..Display$u20$for$u20$i32$GT$::fmt::h71f4b51dd1242f22
PUBLIC 661e0 0 core::fmt::num::_$LT$impl$u20$core..fmt..Display$u20$for$u20$u32$GT$::fmt::h3090818b764f06bc
PUBLIC 662e0 0 core::fmt::num::_$LT$impl$u20$core..fmt..Display$u20$for$u20$u64$GT$::fmt::he5645da80e97c608
PUBLIC 66410 0 core::fmt::num::_$LT$impl$u20$core..fmt..Display$u20$for$u20$usize$GT$::fmt::h627c745e0955f66e
PUBLIC 66420 0 core::fmt::num::_$LT$impl$u20$core..fmt..LowerHex$u20$for$u20$u8$GT$::fmt::hb899afc8064485ef
PUBLIC 66430 0 core::fmt::num::_$LT$impl$u20$core..fmt..UpperHex$u20$for$u20$u8$GT$::fmt::ha356f5ef5bc0875c
PUBLIC 66440 0 core::fmt::num::_$LT$impl$u20$core..fmt..LowerHex$u20$for$u20$usize$GT$::fmt::hcd32ca4f4711849d
PUBLIC 66450 0 core::fmt::num::_$LT$impl$u20$core..fmt..UpperHex$u20$for$u20$usize$GT$::fmt::h926b5ef7e439fb63
PUBLIC 66460 0 core::fmt::num::_$LT$impl$u20$core..fmt..LowerHex$u20$for$u20$u64$GT$::fmt::hd17de5717d90924e
PUBLIC 66470 0 core::ptr::drop_in_place::h0238de942f015c3b
PUBLIC 66480 0 _$LT$T$u20$as$u20$core..any..Any$GT$::get_type_id::hbc58ae29a3506f58
PUBLIC 66490 0 core::panic::PanicInfo::payload::hc12f206ef46ef1d4
PUBLIC 664a0 0 core::panic::PanicInfo::message::h9415c5d78b76c181
PUBLIC 664b0 0 core::panic::PanicInfo::location::hd4705b4bad8e4e35
PUBLIC 664c0 0 core::panic::Location::internal_constructor::h38d1c6f3345c346b
PUBLIC 664e0 0 core::panic::Location::file::h9ed322a8ca816c2c
PUBLIC 664f0 0 core::panic::Location::line::hf7653dbccc55df73
PUBLIC 66500 0 core::panic::Location::column::he08d425769dcde1c
PUBLIC 66510 0 _$LT$core..panic..Location$LT$$u27$a$GT$$u20$as$u20$core..fmt..Display$GT$::fmt::he9edddbe06f3b2aa
PUBLIC 665a0 0 core::unicode::tables::general_category::N::h5399ee8f70fba73d
PUBLIC 665b0 0 _$LT$core..alloc..LayoutErr$u20$as$u20$core..fmt..Debug$GT$::fmt::heedaa5ec571fa831
PUBLIC 66660 0 core::slice::memchr::memchr::he5d926cfbdf7457d
PUBLIC 668a0 0 core::slice::slice_index_len_fail::hfff9488be1fef1df
PUBLIC 66930 0 core::slice::slice_index_order_fail::h4325942011cee2d3
PUBLIC 669c0 0 _ZN4core7unicode9printable5check17h5417d7db762d1f2dE.llvm.2837246316562534591
PUBLIC 66ac0 0 core::unicode::printable::is_printable::h6284ba007414d511
PUBLIC 66b90 0 _$LT$core..ops..range..Range$LT$Idx$GT$$u20$as$u20$core..fmt..Debug$GT$::fmt::he5e226e295cb47f2
PUBLIC 66c10 0 core::fmt::num::_$LT$impl$u20$core..fmt..Debug$u20$for$u20$usize$GT$::fmt::hf4cd87bd4ef0c84c
PUBLIC 66e20 0 core::ptr::drop_in_place::h067d746b72687675
PUBLIC 66e30 0 _$LT$$RF$$u27$a$u20$mut$u20$I$u20$as$u20$core..iter..iterator..Iterator$GT$::next::hc8be54a42b504c06
PUBLIC 66f20 0 core::str::pattern::StrSearcher::new::h65457e0386a9b7dc
PUBLIC 67810 0 core::str::from_utf8::h3197378a0ed5f1f3
PUBLIC 678a0 0 core::str::run_utf8_validation::haf46bbb67b4d4017
PUBLIC 67ab0 0 core::str::slice_error_fail::hac3f133c196b9d10
PUBLIC 67ee0 0 _$LT$core..str..Utf8Error$u20$as$u20$core..fmt..Debug$GT$::fmt::hb1ef353b65925d06
PUBLIC 67fb0 0 core::ptr::drop_in_place::h44a0f75515e2b807
PUBLIC 67fc0 0 core::num::from_str_radix::h2c837970f36d2092
PUBLIC 68180 0 core::num::_$LT$impl$u20$core..str..FromStr$u20$for$u20$i32$GT$::from_str::h9e5ddbb27bb289ae
PUBLIC 68190 0 core::num::_$LT$impl$u20$core..str..FromStr$u20$for$u20$u64$GT$::from_str::hfa793bab9fe345ef
PUBLIC 68200 0 _$LT$core..num..ParseIntError$u20$as$u20$core..fmt..Debug$GT$::fmt::hd8d4329aec311040
PUBLIC 682b0 0 _$LT$$RF$$u27$a$u20$T$u20$as$u20$core..fmt..Debug$GT$::fmt::hf93a06921710f0f6
PUBLIC 68330 0 core::num::_$LT$impl$u20$core..str..FromStr$u20$for$u20$usize$GT$::from_str::h8349fb521544e022
PUBLIC 68340 0 core::ptr::drop_in_place::hd885e1d37a98e444
PUBLIC 68350 0 core::str::traits::_$LT$impl$u20$core..slice..SliceIndex$LT$str$GT$$u20$for$u20$core..ops..range..Range$LT$usize$GT$$GT$::index::_$u7b$$u7b$closure$u7d$$u7d$::h72d7d908c288c7d3
PUBLIC 68380 0 _$LT$core..fmt..Write..write_fmt..Adapter$LT$$u27$a$C$$u20$T$GT$$u20$as$u20$core..fmt..Write$GT$::write_str::hccf0e0d1bc45bffb
PUBLIC 68390 0 _$LT$core..fmt..Write..write_fmt..Adapter$LT$$u27$a$C$$u20$T$GT$$u20$as$u20$core..fmt..Write$GT$::write_char::had032bbf52c8b0ca
PUBLIC 68450 0 _$LT$core..fmt..Write..write_fmt..Adapter$LT$$u27$a$C$$u20$T$GT$$u20$as$u20$core..fmt..Write$GT$::write_fmt::h9595f14a5de9e88c
PUBLIC 684a0 0 _ZN4core3fmt10ArgumentV110show_usize17he5d8265ea821325cE.llvm.1935095661237692854
PUBLIC 685d0 0 core::fmt::ArgumentV1::from_usize::h7d14b32ac4f12600
PUBLIC 685e0 0 _$LT$core..fmt..Arguments$LT$$u27$a$GT$$u20$as$u20$core..fmt..Debug$GT$::fmt::h5801b4d3e9ba401c
PUBLIC 68620 0 core::fmt::write::hd33605757a4b817c
PUBLIC 689d0 0 core::fmt::Formatter::pad_integral::he14eb76da3bd336c
PUBLIC 68db0 0 core::fmt::Formatter::pad_integral::_$u7b$$u7b$closure$u7d$$u7d$::h815a8dc2908268ea
PUBLIC 68ec0 0 core::fmt::Formatter::pad::hf5bd48f0778589bd
PUBLIC 69410 0 core::fmt::Formatter::write_str::hf91085d74f8d2fdf
PUBLIC 69430 0 core::fmt::Formatter::write_fmt::h73a63eda330723f7
PUBLIC 69470 0 core::fmt::Formatter::alternate::h2b52f4fc462b77a2
PUBLIC 69480 0 core::fmt::Formatter::debug_lower_hex::h4356c401137b9090
PUBLIC 69490 0 core::fmt::Formatter::debug_upper_hex::h50b0db3e7046cf34
PUBLIC 694a0 0 core::fmt::Formatter::debug_struct::ha97d2906a6361b62
PUBLIC 694d0 0 core::fmt::Formatter::debug_tuple::hb59f010d3c4a72fb
PUBLIC 69510 0 core::fmt::Formatter::debug_list::h8aabd50ba95661f7
PUBLIC 69580 0 _$LT$core..fmt..Formatter$LT$$u27$a$GT$$u20$as$u20$core..fmt..Write$GT$::write_char::hae5a9ffad88e568a
PUBLIC 695a0 0 _$LT$str$u20$as$u20$core..fmt..Debug$GT$::fmt::h3ff8592aef1d0006
PUBLIC 69b20 0 _$LT$str$u20$as$u20$core..fmt..Display$GT$::fmt::hdcb1507d8301c53e
PUBLIC 69b40 0 _$LT$char$u20$as$u20$core..fmt..Debug$GT$::fmt::hdef08f3655aa4971
PUBLIC 69dc0 0 _$LT$char$u20$as$u20$core..fmt..Display$GT$::fmt::h4247470b38dd42eb
PUBLIC 69ea0 0 _$LT$$RF$$u27$a$u20$T$u20$as$u20$core..fmt..Debug$GT$::fmt::h067b3978e66f0215
PUBLIC 6a0c0 0 _$LT$$RF$$u27$a$u20$T$u20$as$u20$core..fmt..Debug$GT$::fmt::h7ca94ce3c00039a2
PUBLIC 6a0e0 0 _$LT$$RF$$u27$a$u20$T$u20$as$u20$core..fmt..Debug$GT$::fmt::hfa876bf6cc479f9a
PUBLIC 6a240 0 _$LT$$RF$$u27$a$u20$T$u20$as$u20$core..fmt..Display$GT$::fmt::h06f5fe3a6f18f2d3
PUBLIC 6a260 0 _$LT$core..fmt..Arguments$LT$$u27$a$GT$$u20$as$u20$core..fmt..Display$GT$::fmt::h18e693914660b541
PUBLIC 6a270 0 _$LT$$RF$$u27$a$u20$T$u20$as$u20$core..fmt..Debug$GT$::fmt::h7490ac23375146e3
PUBLIC 6a280 0 core::ptr::drop_in_place::h36780f0c9312c7b8
PUBLIC 6a290 0 _$LT$core..cell..BorrowError$u20$as$u20$core..fmt..Debug$GT$::fmt::hbe54929e7f55d470
PUBLIC 6a2b0 0 _$LT$core..cell..BorrowMutError$u20$as$u20$core..fmt..Debug$GT$::fmt::hc82d4b5ccd421502
PUBLIC 6a2d0 0 core::str::lossy::Utf8Lossy::from_bytes::h636287f781c73be2
PUBLIC 6a2e0 0 core::str::lossy::Utf8Lossy::chunks::h12d82fd093b18c7a
PUBLIC 6a2f0 0 _$LT$core..str..lossy..Utf8LossyChunksIter$LT$$u27$a$GT$$u20$as$u20$core..iter..iterator..Iterator$GT$::next::h07f49416ac9c034e
PUBLIC 6a600 0 core::str::traits::_$LT$impl$u20$core..slice..SliceIndex$LT$str$GT$$u20$for$u20$core..ops..range..Range$LT$usize$GT$$GT$::index::_$u7b$$u7b$closure$u7d$$u7d$::h72d7d908c288c7d3
PUBLIC 6a630 0 core::str::traits::_$LT$impl$u20$core..slice..SliceIndex$LT$str$GT$$u20$for$u20$core..ops..range..RangeTo$LT$usize$GT$$GT$::index::_$u7b$$u7b$closure$u7d$$u7d$::hee1dc7d17ea891f5
PUBLIC 6a650 0 _$LT$core..fmt..builders..PadAdapter$LT$$u27$a$GT$$u20$as$u20$core..fmt..Write$GT$::write_str::hedb7808e7b272910
PUBLIC 6a8a0 0 core::fmt::builders::DebugStruct::field::h8fda024c1560af93
PUBLIC 6aa80 0 core::fmt::builders::DebugStruct::finish::hd83655b71c19690a
PUBLIC 6aad0 0 core::fmt::builders::DebugTuple::field::hf4475c54f68a73f1
PUBLIC 6ac60 0 core::fmt::builders::DebugTuple::finish::h26c7559beb5d5941
PUBLIC 6ad00 0 _ZN4core3fmt8builders10DebugInner5entry17h1715f14cf99ae72bE.llvm.1166237010981865039
PUBLIC 6ae10 0 core::fmt::builders::DebugSet::entry::h52bb868a98f42b00
PUBLIC 6ae20 0 core::fmt::builders::DebugList::finish::hb972eb553913ed1e
PUBLIC 6aea0 0 core::fmt::Write::write_char::h0e2132227c79d91d
PUBLIC 6af60 0 core::fmt::Write::write_fmt::hd6b793321efe799e
PUBLIC 6afa0 0 core::fmt::builders::DebugList::entry::h0c9c0411553c2b73
PUBLIC 6afb0 0 _$LT$$LP$dyn$u20$core..any..Any$u20$$u2b$$u20$core..marker..Send$u20$$u2b$$u20$$u27$static$RP$$u20$as$u20$core..fmt..Debug$GT$::fmt::h3c4c195afdf7ae08
PUBLIC 6afd0 0 _$LT$core..char..EscapeDebug$u20$as$u20$core..iter..iterator..Iterator$GT$::next::hfbbf4780e3cf1d01
PUBLIC 6b080 0 core::unicode::bool_trie::BoolTrie::lookup::hb5b771a2bb6df275
PUBLIC 6b180 0 core::unicode::tables::derived_property::Grapheme_Extend::habd07898bf602528
PUBLIC 6b190 0 core::ptr::drop_in_place::h3cd9a3545736a881
PUBLIC 6b1a0 0 core::panicking::panic::h42456c8f99671ed6
PUBLIC 6b200 0 core::panicking::panic_bounds_check::h0d51c36293aaaa25
PUBLIC 6b290 0 core::panicking::panic_fmt::h7db78e0cb84e11c5
PUBLIC 6b2d0 0 core::option::expect_failed::hd6dfe43c620cb1aa
PUBLIC 6b350 0 _$LT$$RF$$u27$a$u20$T$u20$as$u20$core..fmt..Debug$GT$::fmt::hfafdddd68989fa0b
PUBLIC 6b470 0 pthread_atfork
PUBLIC 6b490 0 __libc_csu_init
PUBLIC 6b500 0 __libc_csu_fini
PUBLIC 6b510 0 atexit
PUBLIC 6b53c 0 _fini
STACK CFI INIT 7000 2b .cfa: $rsp 8 + .ra: .cfa -8 + ^
STACK CFI INIT 6c90 10 .cfa: $rsp 16 + .ra: .cfa -8 + ^
STACK CFI 6c96 .cfa: $rsp 24 +
STACK CFI INIT 6ca0 360 .cfa: $rsp 8 + .ra: .cfa -8 + ^
STACK CFI INIT 7130 58 .cfa: $rsp 8 + .ra: .cfa -8 + ^
STACK CFI 7134 .cfa: $rsp 64 +
STACK CFI 7187 .cfa: $rsp 8 +
STACK CFI INIT 7190 34 .cfa: $rsp 8 + .ra: .cfa -8 + ^
STACK CFI 7194 .cfa: $rsp 32 +
STACK CFI 71c3 .cfa: $rsp 8 +
STACK CFI INIT 71d0 92 .cfa: $rsp 8 + .ra: .cfa -8 + ^
STACK CFI 71d7 .cfa: $rsp 672 +
STACK CFI 7261 .cfa: $rsp 8 +
STACK CFI INIT 7270 36 .cfa: $rsp 8 + .ra: .cfa -8 + ^
STACK CFI 7274 .cfa: $rsp 40 +
STACK CFI 72a5 .cfa: $rsp 8 +
STACK CFI INIT 72b0 36 .cfa: $rsp 8 + .ra: .cfa -8 + ^
STACK CFI 72b4 .cfa: $rsp 32 +
STACK CFI 72e5 .cfa: $rsp 8 +
STACK CFI INIT 72f0 2a .cfa: $rsp 8 + .ra: .cfa -8 + ^
STACK CFI 72f4 .cfa: $rsp 40 +
STACK CFI 7319 .cfa: $rsp 8 +
STACK CFI INIT 7320 142 .cfa: $rsp 8 + .ra: .cfa -8 + ^
STACK CFI 7327 .cfa: $rsp 160 +
STACK CFI 7461 .cfa: $rsp 8 +
STACK CFI INIT 7470 19 .cfa: $rsp 8 + .ra: .cfa -8 + ^
STACK CFI 7474 .cfa: $rsp 24 +
STACK CFI 7488 .cfa: $rsp 8 +
STACK CFI INIT 7490 32 .cfa: $rsp 8 + .ra: .cfa -8 + ^
STACK CFI 7494 .cfa: $rsp 32 +
STACK CFI 74c1 .cfa: $rsp 8 +
STACK CFI INIT 74d0 56 .cfa: $rsp 8 + .ra: .cfa -8 + ^
STACK CFI 74d7 .cfa: $rsp 352 +
STACK CFI 7525 .cfa: $rsp 8 +
STACK CFI INIT 7530 135 .cfa: $rsp 8 + .ra: .cfa -8 + ^
STACK CFI 7537 .cfa: $rsp 176 +
STACK CFI 7638 .cfa: $rsp 8 +
STACK CFI 7639 .cfa: $rsp 176 +
STACK CFI INIT 7670 33e .cfa: $rsp 8 + .ra: .cfa -8 + ^
STACK CFI 7677 .cfa: $rsp 2144 +
STACK CFI 7926 .cfa: $rsp 8 +
STACK CFI 7927 .cfa: $rsp 2144 +
STACK CFI INIT 79b0 1f5 .cfa: $rsp 8 + .ra: .cfa -8 + ^
STACK CFI 79b7 .cfa: $rsp 192 +
STACK CFI 7b69 .cfa: $rsp 8 +
STACK CFI 7b6a .cfa: $rsp 192 +
STACK CFI INIT 7bb0 29b .cfa: $rsp 8 + .ra: .cfa -8 + ^
STACK CFI 7bb7 .cfa: $rsp 1072 +
STACK CFI 7dea .cfa: $rsp 8 +
STACK CFI 7deb .cfa: $rsp 1072 +
STACK CFI INIT 7e50 1f5 .cfa: $rsp 8 + .ra: .cfa -8 + ^
STACK CFI 7e57 .cfa: $rsp 192 +
STACK CFI 8009 .cfa: $rsp 8 +
STACK CFI 800a .cfa: $rsp 192 +
STACK CFI INIT 8050 4c .cfa: $rsp 8 + .ra: .cfa -8 + ^
STACK CFI 8054 .cfa: $rsp 40 +
STACK CFI 809b .cfa: $rsp 8 +
STACK CFI INIT 80a0 13a .cfa: $rsp 8 + .ra: .cfa -8 + ^
STACK CFI 80a7 .cfa: $rsp 160 +
STACK CFI 81b1 .cfa: $rsp 8 +
STACK CFI 81b2 .cfa: $rsp 160 +
STACK CFI INIT 81e0 c3 .cfa: $rsp 8 + .ra: .cfa -8 + ^
STACK CFI 81e4 .cfa: $rsp 96 +
STACK CFI 8291 .cfa: $rsp 8 +
STACK CFI 8292 .cfa: $rsp 96 +
STACK CFI INIT 82b0 d4 .cfa: $rsp 8 + .ra: .cfa -8 + ^
STACK CFI 82b4 .cfa: $rsp 128 +
STACK CFI 8361 .cfa: $rsp 8 +
STACK CFI 8362 .cfa: $rsp 128 +
STACK CFI INIT 8390 10c .cfa: $rsp 8 + .ra: .cfa -8 + ^
STACK CFI 8394 .cfa: $rsp 112 +
STACK CFI 8479 .cfa: $rsp 8 +
STACK CFI 847a .cfa: $rsp 112 +
STACK CFI INIT 84a0 102 .cfa: $rsp 8 + .ra: .cfa -8 + ^
STACK CFI 84a4 .cfa: $rsp 112 +
STACK CFI 8590 .cfa: $rsp 8 +
STACK CFI 8591 .cfa: $rsp 112 +
STACK CFI INIT 85b0 113 .cfa: $rsp 8 + .ra: .cfa -8 + ^
STACK CFI 85b7 .cfa: $rsp 144 +
STACK CFI 869d .cfa: $rsp 8 +
STACK CFI 869e .cfa: $rsp 144 +
STACK CFI INIT 86d0 27 .cfa: $rsp 8 + .ra: .cfa -8 + ^
STACK CFI 86d4 .cfa: $rsp 32 +
STACK CFI 86f6 .cfa: $rsp 8 +
STACK CFI INIT 8700 e2 .cfa: $rsp 8 + .ra: .cfa -8 + ^
STACK CFI 8704 .cfa: $rsp 112 +
STACK CFI 87bf .cfa: $rsp 8 +
STACK CFI 87c0 .cfa: $rsp 112 +
STACK CFI INIT 87f0 12b .cfa: $rsp 8 + .ra: .cfa -8 + ^
STACK CFI 87f7 .cfa: $rsp 144 +
STACK CFI 88f5 .cfa: $rsp 8 +
STACK CFI 88f6 .cfa: $rsp 144 +
STACK CFI INIT 8920 d6 .cfa: $rsp 8 + .ra: .cfa -8 + ^
STACK CFI 8924 .cfa: $rsp 80 +
STACK CFI 89d7 .cfa: $rsp 8 +
STACK CFI 89d8 .cfa: $rsp 80 +
STACK CFI INIT 8a00 c8 .cfa: $rsp 8 + .ra: .cfa -8 + ^
STACK CFI 8a04 .cfa: $rsp 80 +
STACK CFI 8aa5 .cfa: $rsp 8 +
STACK CFI 8aa6 .cfa: $rsp 80 +
STACK CFI INIT 8ad0 178 .cfa: $rsp 8 + .ra: .cfa -8 + ^
STACK CFI 8ad4 .cfa: $rsp 128 +
STACK CFI 8c1e .cfa: $rsp 8 +
STACK CFI 8c1f .cfa: $rsp 128 +
STACK CFI INIT 8c50 178 .cfa: $rsp 8 + .ra: .cfa -8 + ^
STACK CFI 8c54 .cfa: $rsp 128 +
STACK CFI 8d9e .cfa: $rsp 8 +
STACK CFI 8d9f .cfa: $rsp 128 +
STACK CFI INIT 8dd0 18e .cfa: $rsp 8 + .ra: .cfa -8 + ^
STACK CFI 8dd4 .cfa: $rsp 128 +
STACK CFI 8f23 .cfa: $rsp 8 +
STACK CFI 8f24 .cfa: $rsp 128 +
STACK CFI INIT 8f60 165 .cfa: $rsp 8 + .ra: .cfa -8 + ^
STACK CFI 8f67 .cfa: $rsp 224 +
STACK CFI INIT 90d0 15a .cfa: $rsp 8 + .ra: .cfa -8 + ^
STACK CFI 90d7 .cfa: $rsp 224 +
STACK CFI INIT 9230 15c .cfa: $rsp 8 + .ra: .cfa -8 + ^
STACK CFI 9237 .cfa: $rsp 224 +
STACK CFI INIT 9390 16a .cfa: $rsp 8 + .ra: .cfa -8 + ^
STACK CFI 9397 .cfa: $rsp 240 +
STACK CFI INIT 9500 160 .cfa: $rsp 8 + .ra: .cfa -8 + ^
STACK CFI 9507 .cfa: $rsp 224 +
STACK CFI INIT 9660 16d .cfa: $rsp 8 + .ra: .cfa -8 + ^
STACK CFI 9667 .cfa: $rsp 240 +
STACK CFI INIT 97d0 34 .cfa: $rsp 8 + .ra: .cfa -8 + ^
STACK CFI 97d4 .cfa: $rsp 24 +
STACK CFI 9803 .cfa: $rsp 8 +
STACK CFI INIT 9810 1a .cfa: $rsp 8 + .ra: .cfa -8 + ^
STACK CFI INIT 9830 15 .cfa: $rsp 8 + .ra: .cfa -8 + ^
STACK CFI 9831 .cfa: $rsp 16 +
STACK CFI 9844 .cfa: $rsp 8 +
STACK CFI INIT 9850 36 .cfa: $rsp 8 + .ra: .cfa -8 + ^
STACK CFI 9854 .cfa: $rsp 48 +
STACK CFI 9885 .cfa: $rsp 8 +
STACK CFI INIT 9890 4d .cfa: $rsp 8 + .ra: .cfa -8 + ^
STACK CFI 9894 .cfa: $rsp 64 +
STACK CFI 98dc .cfa: $rsp 8 +
STACK CFI INIT 98e0 3e .cfa: $rsp 8 + .ra: .cfa -8 + ^
STACK CFI 98e4 .cfa: $rsp 48 +
STACK CFI 991d .cfa: $rsp 8 +
STACK CFI INIT 9920 72 .cfa: $rsp 8 + .ra: .cfa -8 + ^
STACK CFI 9924 .cfa: $rsp 96 +
STACK CFI 9991 .cfa: $rsp 8 +
STACK CFI INIT 99a0 90 .cfa: $rsp 8 + .ra: .cfa -8 + ^
STACK CFI 99a4 .cfa: $rsp 64 +
STACK CFI 9a2f .cfa: $rsp 8 +
STACK CFI INIT 9a30 48 .cfa: $rsp 8 + .ra: .cfa -8 + ^
STACK CFI 9a34 .cfa: $rsp 48 +
STACK CFI 9a77 .cfa: $rsp 8 +
STACK CFI INIT 9a80 57 .cfa: $rsp 8 + .ra: .cfa -8 + ^
STACK CFI 9a84 .cfa: $rsp 64 +
STACK CFI 9ad6 .cfa: $rsp 8 +
STACK CFI INIT 9ae0 6b .cfa: $rsp 8 + .ra: .cfa -8 + ^
STACK CFI 9ae4 .cfa: $rsp 80 +
STACK CFI 9b4a .cfa: $rsp 8 +
STACK CFI INIT 9b50 a1 .cfa: $rsp 8 + .ra: .cfa -8 + ^
STACK CFI 9b57 .cfa: $rsp 144 +
STACK CFI 9bc6 .cfa: $rsp 8 +
STACK CFI 9bc7 .cfa: $rsp 144 +
STACK CFI INIT 9c00 a1 .cfa: $rsp 8 + .ra: .cfa -8 + ^
STACK CFI 9c07 .cfa: $rsp 144 +
STACK CFI 9c76 .cfa: $rsp 8 +
STACK CFI 9c77 .cfa: $rsp 144 +
STACK CFI INIT 9cb0 60a .cfa: $rsp 8 + .ra: .cfa -8 + ^
STACK CFI 9cb7 .cfa: $rsp 576 +
STACK CFI a132 .cfa: $rsp 8 +
STACK CFI a133 .cfa: $rsp 576 +
STACK CFI INIT a2c0 60a .cfa: $rsp 8 + .ra: .cfa -8 + ^
STACK CFI a2c7 .cfa: $rsp 576 +
STACK CFI a742 .cfa: $rsp 8 +
STACK CFI a743 .cfa: $rsp 576 +
STACK CFI INIT a8d0 2d9 .cfa: $rsp 8 + .ra: .cfa -8 + ^
STACK CFI a8d7 .cfa: $rsp 208 +
STACK CFI ab66 .cfa: $rsp 8 +
STACK CFI ab67 .cfa: $rsp 208 +
STACK CFI INIT abb0 2d9 .cfa: $rsp 8 + .ra: .cfa -8 + ^
STACK CFI abb7 .cfa: $rsp 208 +
STACK CFI ae46 .cfa: $rsp 8 +
STACK CFI ae47 .cfa: $rsp 208 +
STACK CFI INIT ae90 10 .cfa: $rsp 8 + .ra: .cfa -8 + ^
STACK CFI ae91 .cfa: $rsp 16 +
STACK CFI ae9f .cfa: $rsp 8 +
STACK CFI INIT aea0 10 .cfa: $rsp 8 + .ra: .cfa -8 + ^
STACK CFI aea1 .cfa: $rsp 16 +
STACK CFI aeaf .cfa: $rsp 8 +
STACK CFI INIT aeb0 90 .cfa: $rsp 8 + .ra: .cfa -8 + ^
STACK CFI aeb4 .cfa: $rsp 96 +
STACK CFI af3f .cfa: $rsp 8 +
STACK CFI INIT af40 58 .cfa: $rsp 8 + .ra: .cfa -8 + ^
STACK CFI af44 .cfa: $rsp 48 +
STACK CFI af8a .cfa: $rsp 8 +
STACK CFI af8b .cfa: $rsp 48 +
STACK CFI INIT afa0 36 .cfa: $rsp 8 + .ra: .cfa -8 + ^
STACK CFI afa4 .cfa: $rsp 40 +
STACK CFI afd5 .cfa: $rsp 8 +
STACK CFI INIT afe0 36 .cfa: $rsp 8 + .ra: .cfa -8 + ^
STACK CFI afe4 .cfa: $rsp 32 +
STACK CFI b015 .cfa: $rsp 8 +
STACK CFI INIT b020 36 .cfa: $rsp 8 + .ra: .cfa -8 + ^
STACK CFI b024 .cfa: $rsp 40 +
STACK CFI b055 .cfa: $rsp 8 +
STACK CFI INIT b060 19 .cfa: $rsp 8 + .ra: .cfa -8 + ^
STACK CFI b064 .cfa: $rsp 24 +
STACK CFI b078 .cfa: $rsp 8 +
STACK CFI INIT b080 34 .cfa: $rsp 8 + .ra: .cfa -8 + ^
STACK CFI b084 .cfa: $rsp 48 +
STACK CFI b0b3 .cfa: $rsp 8 +
STACK CFI INIT b0c0 5b .cfa: $rsp 8 + .ra: .cfa -8 + ^
STACK CFI b0c4 .cfa: $rsp 64 +
STACK CFI b102 .cfa: $rsp 8 +
STACK CFI b103 .cfa: $rsp 64 +
STACK CFI INIT b120 5b .cfa: $rsp 8 + .ra: .cfa -8 + ^
STACK CFI b124 .cfa: $rsp 64 +
STACK CFI b162 .cfa: $rsp 8 +
STACK CFI b163 .cfa: $rsp 64 +
STACK CFI INIT b180 f .cfa: $rsp 8 + .ra: .cfa -8 + ^
STACK CFI b181 .cfa: $rsp 16 +
STACK CFI b18e .cfa: $rsp 8 +
STACK CFI INIT b190 f .cfa: $rsp 8 + .ra: .cfa -8 + ^
STACK CFI b191 .cfa: $rsp 16 +
STACK CFI b19e .cfa: $rsp 8 +
STACK CFI INIT b1a0 48 .cfa: $rsp 8 + .ra: .cfa -8 + ^
STACK CFI b1a4 .cfa: $rsp 48 +
STACK CFI b1e7 .cfa: $rsp 8 +
STACK CFI INIT b1f0 48 .cfa: $rsp 8 + .ra: .cfa -8 + ^
STACK CFI b1f4 .cfa: $rsp 48 +
STACK CFI b237 .cfa: $rsp 8 +
STACK CFI INIT b240 171 .cfa: $rsp 8 + .ra: .cfa -8 + ^
STACK CFI b247 .cfa: $rsp 160 +
STACK CFI b380 .cfa: $rsp 8 +
STACK CFI b381 .cfa: $rsp 160 +
STACK CFI INIT b3c0 36 .cfa: $rsp 8 + .ra: .cfa -8 + ^
STACK CFI b3c4 .cfa: $rsp 32 +
STACK CFI b3f5 .cfa: $rsp 8 +
STACK CFI INIT b400 36 .cfa: $rsp 8 + .ra: .cfa -8 + ^
STACK CFI b404 .cfa: $rsp 32 +
STACK CFI b435 .cfa: $rsp 8 +
STACK CFI INIT b440 4b .cfa: $rsp 8 + .ra: .cfa -8 + ^
STACK CFI b444 .cfa: $rsp 48 +
STACK CFI b48a .cfa: $rsp 8 +
STACK CFI INIT b490 b .cfa: $rsp 8 + .ra: .cfa -8 + ^
STACK CFI b491 .cfa: $rsp 16 +
STACK CFI b49a .cfa: $rsp 8 +
STACK CFI INIT b4a0 b .cfa: $rsp 8 + .ra: .cfa -8 + ^
STACK CFI b4a1 .cfa: $rsp 16 +
STACK CFI b4aa .cfa: $rsp 8 +
STACK CFI INIT b4b0 31 .cfa: $rsp 8 + .ra: .cfa -8 + ^
STACK CFI b4b4 .cfa: $rsp 48 +
STACK CFI b4e0 .cfa: $rsp 8 +
STACK CFI INIT b4f0 50 .cfa: $rsp 8 + .ra: .cfa -8 + ^
STACK CFI b4f4 .cfa: $rsp 48 +
STACK CFI b53f .cfa: $rsp 8 +
STACK CFI INIT b540 254 .cfa: $rsp 8 + .ra: .cfa -8 + ^
STACK CFI b547 .cfa: $rsp 288 +
STACK CFI b71a .cfa: $rsp 8 +
STACK CFI b71b .cfa: $rsp 288 +
STACK CFI INIT b7a0 50 .cfa: $rsp 8 + .ra: .cfa -8 + ^
STACK CFI b7a4 .cfa: $rsp 48 +
STACK CFI b7ef .cfa: $rsp 8 +
STACK CFI INIT b7f0 28 .cfa: $rsp 8 + .ra: .cfa -8 + ^
STACK CFI b7f4 .cfa: $rsp 32 +
STACK CFI b817 .cfa: $rsp 8 +
STACK CFI INIT b820 24e .cfa: $rsp 8 + .ra: .cfa -8 + ^
STACK CFI b827 .cfa: $rsp 240 +
STACK CFI ba34 .cfa: $rsp 8 +
STACK CFI ba35 .cfa: $rsp 240 +
STACK CFI INIT ba70 89 .cfa: $rsp 8 + .ra: .cfa -8 + ^
STACK CFI ba74 .cfa: $rsp 80 +
STACK CFI badb .cfa: $rsp 8 +
STACK CFI badc .cfa: $rsp 80 +
STACK CFI INIT bb00 13e .cfa: $rsp 8 + .ra: .cfa -8 + ^
STACK CFI bb07 .cfa: $rsp 144 +
STACK CFI bc3d .cfa: $rsp 8 +
STACK CFI INIT bc40 81 .cfa: $rsp 8 + .ra: .cfa -8 + ^
STACK CFI bc44 .cfa: $rsp 80 +
STACK CFI bca3 .cfa: $rsp 8 +
STACK CFI bca4 .cfa: $rsp 80 +
STACK CFI INIT bcd0 89 .cfa: $rsp 8 + .ra: .cfa -8 + ^
STACK CFI bcd4 .cfa: $rsp 80 +
STACK CFI bd3b .cfa: $rsp 8 +
STACK CFI bd3c .cfa: $rsp 80 +
STACK CFI INIT bd60 85 .cfa: $rsp 8 + .ra: .cfa -8 + ^
STACK CFI bd64 .cfa: $rsp 96 +
STACK CFI bdd7 .cfa: $rsp 8 +
STACK CFI bdd8 .cfa: $rsp 96 +
STACK CFI INIT bdf0 96 .cfa: $rsp 8 + .ra: .cfa -8 + ^
STACK CFI bdf4 .cfa: $rsp 96 +
STACK CFI be78 .cfa: $rsp 8 +
STACK CFI be79 .cfa: $rsp 96 +
STACK CFI INIT be90 39 .cfa: $rsp 8 + .ra: .cfa -8 + ^
STACK CFI be94 .cfa: $rsp 48 +
STACK CFI bec8 .cfa: $rsp 8 +
STACK CFI INIT bed0 28 .cfa: $rsp 8 + .ra: .cfa -8 + ^
STACK CFI bed4 .cfa: $rsp 32 +
STACK CFI bef7 .cfa: $rsp 8 +
STACK CFI INIT bf00 31 .cfa: $rsp 8 + .ra: .cfa -8 + ^
STACK CFI bf01 .cfa: $rsp 16 +
STACK CFI bf30 .cfa: $rsp 8 +
STACK CFI INIT bf40 29 .cfa: $rsp 8 + .ra: .cfa -8 + ^
STACK CFI bf44 .cfa: $rsp 32 +
STACK CFI bf68 .cfa: $rsp 8 +
STACK CFI INIT bf70 29 .cfa: $rsp 8 + .ra: .cfa -8 + ^
STACK CFI bf74 .cfa: $rsp 32 +
STACK CFI bf98 .cfa: $rsp 8 +
STACK CFI INIT bfa0 e1 .cfa: $rsp 8 + .ra: .cfa -8 + ^
STACK CFI bfa4 .cfa: $rsp 80 +
STACK CFI c056 .cfa: $rsp 8 +
STACK CFI c057 .cfa: $rsp 80 +
STACK CFI INIT c090 37 .cfa: $rsp 8 + .ra: .cfa -8 + ^
STACK CFI c094 .cfa: $rsp 32 +
STACK CFI c0c6 .cfa: $rsp 8 +
STACK CFI INIT c0d0 3d .cfa: $rsp 8 + .ra: .cfa -8 + ^
STACK CFI c0d4 .cfa: $rsp 32 +
STACK CFI c10c .cfa: $rsp 8 +
STACK CFI INIT c110 61 .cfa: $rsp 8 + .ra: .cfa -8 + ^
STACK CFI c114 .cfa: $rsp 48 +
STACK CFI c170 .cfa: $rsp 8 +
STACK CFI INIT c180 27 .cfa: $rsp 8 + .ra: .cfa -8 + ^
STACK CFI c184 .cfa: $rsp 32 +
STACK CFI c1a6 .cfa: $rsp 8 +
STACK CFI INIT c1b0 6e .cfa: $rsp 8 + .ra: .cfa -8 + ^
STACK CFI c1b4 .cfa: $rsp 48 +
STACK CFI c21d .cfa: $rsp 8 +
STACK CFI INIT c220 33 .cfa: $rsp 8 + .ra: .cfa -8 + ^
STACK CFI c224 .cfa: $rsp 40 +
STACK CFI c252 .cfa: $rsp 8 +
STACK CFI INIT c260 13 .cfa: $rsp 8 + .ra: .cfa -8 + ^
STACK CFI c261 .cfa: $rsp 16 +
STACK CFI c272 .cfa: $rsp 8 +
STACK CFI INIT c280 16 .cfa: $rsp 8 + .ra: .cfa -8 + ^
STACK CFI c281 .cfa: $rsp 16 +
STACK CFI c295 .cfa: $rsp 8 +
STACK CFI INIT c2a0 6b .cfa: $rsp 8 + .ra: .cfa -8 + ^
STACK CFI c2a4 .cfa: $rsp 80 +
STACK CFI c30a .cfa: $rsp 8 +
STACK CFI INIT c310 12 .cfa: $rsp 8 + .ra: .cfa -8 + ^
STACK CFI INIT c330 16 .cfa: $rsp 8 + .ra: .cfa -8 + ^
STACK CFI c334 .cfa: $rsp 32 +
STACK CFI c345 .cfa: $rsp 8 +
STACK CFI INIT c350 3f .cfa: $rsp 8 + .ra: .cfa -8 + ^
STACK CFI c354 .cfa: $rsp 48 +
STACK CFI c373 .cfa: $rsp 8 +
STACK CFI c374 .cfa: $rsp 48 +
STACK CFI INIT c390 10 .cfa: $rsp 8 + .ra: .cfa -8 + ^
STACK CFI c391 .cfa: $rsp 16 +
STACK CFI c39f .cfa: $rsp 8 +
STACK CFI INIT c3a0 32 .cfa: $rsp 8 + .ra: .cfa -8 + ^
STACK CFI c3a1 .cfa: $rsp 16 +
STACK CFI c3c3 .cfa: $rsp 8 +
STACK CFI c3c4 .cfa: $rsp 16 +
STACK CFI INIT c3e0 27 .cfa: $rsp 8 + .ra: .cfa -8 + ^
STACK CFI c3e1 .cfa: $rsp 16 +
STACK CFI c3f4 .cfa: $rsp 8 +
STACK CFI c3f5 .cfa: $rsp 16 +
STACK CFI INIT c410 4d .cfa: $rsp 8 + .ra: .cfa -8 + ^
STACK CFI c414 .cfa: $rsp 32 +
STACK CFI c433 .cfa: $rsp 8 +
STACK CFI c434 .cfa: $rsp 32 +
STACK CFI INIT c460 10 .cfa: $rsp 8 + .ra: .cfa -8 + ^
STACK CFI c461 .cfa: $rsp 16 +
STACK CFI c46f .cfa: $rsp 8 +
STACK CFI INIT c470 10 .cfa: $rsp 8 + .ra: .cfa -8 + ^
STACK CFI c471 .cfa: $rsp 16 +
STACK CFI c47f .cfa: $rsp 8 +
STACK CFI INIT c480 7 .cfa: $rsp 8 + .ra: .cfa -8 + ^
STACK CFI c481 .cfa: $rsp 16 +
STACK CFI c486 .cfa: $rsp 8 +
STACK CFI INIT c490 10 .cfa: $rsp 8 + .ra: .cfa -8 + ^
STACK CFI c491 .cfa: $rsp 16 +
STACK CFI c49f .cfa: $rsp 8 +
STACK CFI INIT c4a0 4d .cfa: $rsp 8 + .ra: .cfa -8 + ^
STACK CFI c4a4 .cfa: $rsp 32 +
STACK CFI c4c3 .cfa: $rsp 8 +
STACK CFI c4c4 .cfa: $rsp 32 +
STACK CFI INIT c4f0 23 .cfa: $rsp 8 + .ra: .cfa -8 + ^
STACK CFI c4f1 .cfa: $rsp 16 +
STACK CFI c500 .cfa: $rsp 8 +
STACK CFI c501 .cfa: $rsp 16 +
STACK CFI INIT c520 10 .cfa: $rsp 8 + .ra: .cfa -8 + ^
STACK CFI c521 .cfa: $rsp 16 +
STACK CFI c52f .cfa: $rsp 8 +
STACK CFI INIT c530 31 .cfa: $rsp 8 + .ra: .cfa -8 + ^
STACK CFI c531 .cfa: $rsp 16 +
STACK CFI c552 .cfa: $rsp 8 +
STACK CFI c553 .cfa: $rsp 16 +
STACK CFI INIT c570 32 .cfa: $rsp 8 + .ra: .cfa -8 + ^
STACK CFI c571 .cfa: $rsp 16 +
STACK CFI c593 .cfa: $rsp 8 +
STACK CFI c594 .cfa: $rsp 16 +
STACK CFI INIT c5b0 10 .cfa: $rsp 8 + .ra: .cfa -8 + ^
STACK CFI c5b1 .cfa: $rsp 16 +
STACK CFI c5bf .cfa: $rsp 8 +
STACK CFI INIT c5c0 10 .cfa: $rsp 8 + .ra: .cfa -8 + ^
STACK CFI c5c1 .cfa: $rsp 16 +
STACK CFI c5cf .cfa: $rsp 8 +
STACK CFI INIT c5d0 86 .cfa: $rsp 8 + .ra: .cfa -8 + ^
STACK CFI c5d4 .cfa: $rsp 32 +
STACK CFI c5f3 .cfa: $rsp 8 +
STACK CFI c5f4 .cfa: $rsp 32 +
STACK CFI INIT c660 32 .cfa: $rsp 8 + .ra: .cfa -8 + ^
STACK CFI c664 .cfa: $rsp 32 +
STACK CFI c67e .cfa: $rsp 8 +
STACK CFI c67f .cfa: $rsp 32 +
STACK CFI INIT c6a0 17 .cfa: $rsp 8 + .ra: .cfa -8 + ^
STACK CFI c6a1 .cfa: $rsp 16 +
STACK CFI c6b6 .cfa: $rsp 8 +
STACK CFI INIT c6c0 10 .cfa: $rsp 8 + .ra: .cfa -8 + ^
STACK CFI c6c1 .cfa: $rsp 16 +
STACK CFI c6cf .cfa: $rsp 8 +
STACK CFI INIT c6d0 10 .cfa: $rsp 8 + .ra: .cfa -8 + ^
STACK CFI c6d1 .cfa: $rsp 16 +
STACK CFI c6df .cfa: $rsp 8 +
STACK CFI INIT c6e0 10 .cfa: $rsp 8 + .ra: .cfa -8 + ^
STACK CFI c6e1 .cfa: $rsp 16 +
STACK CFI c6ef .cfa: $rsp 8 +
STACK CFI INIT c6f0 10 .cfa: $rsp 8 + .ra: .cfa -8 + ^
STACK CFI c6f1 .cfa: $rsp 16 +
STACK CFI c6ff .cfa: $rsp 8 +
STACK CFI INIT c700 10 .cfa: $rsp 8 + .ra: .cfa -8 + ^
STACK CFI c701 .cfa: $rsp 16 +
STACK CFI c70f .cfa: $rsp 8 +
STACK CFI INIT c710 6d .cfa: $rsp 8 + .ra: .cfa -8 + ^
STACK CFI c714 .cfa: $rsp 48 +
STACK CFI c73d .cfa: $rsp 8 +
STACK CFI c73e .cfa: $rsp 48 +
STACK CFI INIT c780 10 .cfa: $rsp 8 + .ra: .cfa -8 + ^
STACK CFI c781 .cfa: $rsp 16 +
STACK CFI c78f .cfa: $rsp 8 +
STACK CFI INIT c790 23 .cfa: $rsp 8 + .ra: .cfa -8 + ^
STACK CFI c791 .cfa: $rsp 16 +
STACK CFI c7a0 .cfa: $rsp 8 +
STACK CFI c7a1 .cfa: $rsp 16 +
STACK CFI INIT c7c0 10 .cfa: $rsp 8 + .ra: .cfa -8 + ^
STACK CFI c7c1 .cfa: $rsp 16 +
STACK CFI c7cf .cfa: $rsp 8 +
STACK CFI INIT c7d0 10 .cfa: $rsp 8 + .ra: .cfa -8 + ^
STACK CFI c7d1 .cfa: $rsp 16 +
STACK CFI c7df .cfa: $rsp 8 +
STACK CFI INIT c7e0 1d .cfa: $rsp 8 + .ra: .cfa -8 + ^
STACK CFI c7e4 .cfa: $rsp 32 +
STACK CFI c7ee .cfa: $rsp 8 +
STACK CFI c7ef .cfa: $rsp 32 +
STACK CFI INIT c800 1d .cfa: $rsp 8 + .ra: .cfa -8 + ^
STACK CFI c804 .cfa: $rsp 32 +
STACK CFI c80e .cfa: $rsp 8 +
STACK CFI c80f .cfa: $rsp 32 +
STACK CFI INIT c820 4d .cfa: $rsp 8 + .ra: .cfa -8 + ^
STACK CFI c824 .cfa: $rsp 32 +
STACK CFI c843 .cfa: $rsp 8 +
STACK CFI c844 .cfa: $rsp 32 +
STACK CFI INIT c870 1d .cfa: $rsp 8 + .ra: .cfa -8 + ^
STACK CFI c874 .cfa: $rsp 32 +
STACK CFI c87e .cfa: $rsp 8 +
STACK CFI c87f .cfa: $rsp 32 +
STACK CFI INIT c890 10 .cfa: $rsp 8 + .ra: .cfa -8 + ^
STACK CFI c891 .cfa: $rsp 16 +
STACK CFI c89f .cfa: $rsp 8 +
STACK CFI INIT c8a0 86 .cfa: $rsp 8 + .ra: .cfa -8 + ^
STACK CFI c8a4 .cfa: $rsp 32 +
STACK CFI c8c3 .cfa: $rsp 8 +
STACK CFI c8c4 .cfa: $rsp 32 +
STACK CFI INIT c930 2f .cfa: $rsp 8 + .ra: .cfa -8 + ^
STACK CFI c931 .cfa: $rsp 16 +
STACK CFI c953 .cfa: $rsp 8 +
STACK CFI c954 .cfa: $rsp 16 +
STACK CFI INIT c960 10 .cfa: $rsp 8 + .ra: .cfa -8 + ^
STACK CFI c961 .cfa: $rsp 16 +
STACK CFI c96f .cfa: $rsp 8 +
STACK CFI INIT c970 10 .cfa: $rsp 8 + .ra: .cfa -8 + ^
STACK CFI c971 .cfa: $rsp 16 +
STACK CFI c97f .cfa: $rsp 8 +
STACK CFI INIT c980 4d .cfa: $rsp 8 + .ra: .cfa -8 + ^
STACK CFI c984 .cfa: $rsp 32 +
STACK CFI c9a3 .cfa: $rsp 8 +
STACK CFI c9a4 .cfa: $rsp 32 +
STACK CFI INIT c9d0 10 .cfa: $rsp 8 + .ra: .cfa -8 + ^
STACK CFI c9d1 .cfa: $rsp 16 +
STACK CFI c9df .cfa: $rsp 8 +
STACK CFI INIT c9e0 4d .cfa: $rsp 8 + .ra: .cfa -8 + ^
STACK CFI c9e4 .cfa: $rsp 32 +
STACK CFI ca03 .cfa: $rsp 8 +
STACK CFI ca04 .cfa: $rsp 32 +
STACK CFI INIT ca30 4d .cfa: $rsp 8 + .ra: .cfa -8 + ^
STACK CFI ca34 .cfa: $rsp 32 +
STACK CFI ca53 .cfa: $rsp 8 +
STACK CFI ca54 .cfa: $rsp 32 +
STACK CFI INIT ca80 10 .cfa: $rsp 8 + .ra: .cfa -8 + ^
STACK CFI ca81 .cfa: $rsp 16 +
STACK CFI ca8f .cfa: $rsp 8 +
STACK CFI INIT ca90 86 .cfa: $rsp 8 + .ra: .cfa -8 + ^
STACK CFI ca94 .cfa: $rsp 32 +
STACK CFI cab3 .cfa: $rsp 8 +
STACK CFI cab4 .cfa: $rsp 32 +
STACK CFI INIT cb20 32 .cfa: $rsp 8 + .ra: .cfa -8 + ^
STACK CFI cb21 .cfa: $rsp 16 +
STACK CFI cb43 .cfa: $rsp 8 +
STACK CFI cb44 .cfa: $rsp 16 +
STACK CFI INIT cb60 10 .cfa: $rsp 8 + .ra: .cfa -8 + ^
STACK CFI cb61 .cfa: $rsp 16 +
STACK CFI cb6f .cfa: $rsp 8 +
STACK CFI INIT cb70 143 .cfa: $rsp 8 + .ra: .cfa -8 + ^
STACK CFI cb74 .cfa: $rsp 80 +
STACK CFI cb94 .cfa: $rsp 8 +
STACK CFI cb95 .cfa: $rsp 80 +
STACK CFI INIT ccc0 10 .cfa: $rsp 8 + .ra: .cfa -8 + ^
STACK CFI ccc1 .cfa: $rsp 16 +
STACK CFI cccf .cfa: $rsp 8 +
STACK CFI INIT ccd0 10 .cfa: $rsp 8 + .ra: .cfa -8 + ^
STACK CFI ccd1 .cfa: $rsp 16 +
STACK CFI ccdf .cfa: $rsp 8 +
STACK CFI INIT cce0 10 .cfa: $rsp 8 + .ra: .cfa -8 + ^
STACK CFI cce1 .cfa: $rsp 16 +
STACK CFI ccef .cfa: $rsp 8 +
STACK CFI INIT ccf0 86 .cfa: $rsp 8 + .ra: .cfa -8 + ^
STACK CFI ccf4 .cfa: $rsp 32 +
STACK CFI cd13 .cfa: $rsp 8 +
STACK CFI cd14 .cfa: $rsp 32 +
STACK CFI INIT cd80 10 .cfa: $rsp 8 + .ra: .cfa -8 + ^
STACK CFI cd81 .cfa: $rsp 16 +
STACK CFI cd8f .cfa: $rsp 8 +
STACK CFI INIT cd90 6d .cfa: $rsp 8 + .ra: .cfa -8 + ^
STACK CFI cd94 .cfa: $rsp 48 +
STACK CFI cdbd .cfa: $rsp 8 +
STACK CFI cdbe .cfa: $rsp 48 +
STACK CFI INIT ce00 23 .cfa: $rsp 8 + .ra: .cfa -8 + ^
STACK CFI ce01 .cfa: $rsp 16 +
STACK CFI ce10 .cfa: $rsp 8 +
STACK CFI ce11 .cfa: $rsp 16 +
STACK CFI INIT ce30 4d .cfa: $rsp 8 + .ra: .cfa -8 + ^
STACK CFI ce34 .cfa: $rsp 32 +
STACK CFI ce53 .cfa: $rsp 8 +
STACK CFI ce54 .cfa: $rsp 32 +
STACK CFI INIT ce80 37 .cfa: $rsp 8 + .ra: .cfa -8 + ^
STACK CFI ce81 .cfa: $rsp 16 +
STACK CFI ce92 .cfa: $rsp 8 +
STACK CFI ce93 .cfa: $rsp 16 +
STACK CFI INIT cec0 10 .cfa: $rsp 8 + .ra: .cfa -8 + ^
STACK CFI cec1 .cfa: $rsp 16 +
STACK CFI cecf .cfa: $rsp 8 +
STACK CFI INIT ced0 10 .cfa: $rsp 8 + .ra: .cfa -8 + ^
STACK CFI ced1 .cfa: $rsp 16 +
STACK CFI cedf .cfa: $rsp 8 +
STACK CFI INIT cee0 32 .cfa: $rsp 8 + .ra: .cfa -8 + ^
STACK CFI cee1 .cfa: $rsp 16 +
STACK CFI cf03 .cfa: $rsp 8 +
STACK CFI cf04 .cfa: $rsp 16 +
STACK CFI INIT cf20 10 .cfa: $rsp 8 + .ra: .cfa -8 + ^
STACK CFI cf21 .cfa: $rsp 16 +
STACK CFI cf2f .cfa: $rsp 8 +
STACK CFI INIT cf30 10 .cfa: $rsp 8 + .ra: .cfa -8 + ^
STACK CFI cf31 .cfa: $rsp 16 +
STACK CFI cf3f .cfa: $rsp 8 +
STACK CFI INIT cf40 10 .cfa: $rsp 8 + .ra: .cfa -8 + ^
STACK CFI cf41 .cfa: $rsp 16 +
STACK CFI cf4f .cfa: $rsp 8 +
STACK CFI INIT cf50 10 .cfa: $rsp 8 + .ra: .cfa -8 + ^
STACK CFI cf51 .cfa: $rsp 16 +
STACK CFI cf5f .cfa: $rsp 8 +
STACK CFI INIT cf60 50 .cfa: $rsp 8 + .ra: .cfa -8 + ^
STACK CFI cf64 .cfa: $rsp 32 +
STACK CFI cf7a .cfa: $rsp 8 +
STACK CFI cf7b .cfa: $rsp 32 +
STACK CFI INIT cfb0 32 .cfa: $rsp 8 + .ra: .cfa -8 + ^
STACK CFI cfb1 .cfa: $rsp 16 +
STACK CFI cfd3 .cfa: $rsp 8 +
STACK CFI cfd4 .cfa: $rsp 16 +
STACK CFI INIT cff0 10 .cfa: $rsp 8 + .ra: .cfa -8 + ^
STACK CFI cff1 .cfa: $rsp 16 +
STACK CFI cfff .cfa: $rsp 8 +
STACK CFI INIT d000 21 .cfa: $rsp 8 + .ra: .cfa -8 + ^
STACK CFI d004 .cfa: $rsp 32 +
STACK CFI d00e .cfa: $rsp 8 +
STACK CFI d00f .cfa: $rsp 32 +
STACK CFI INIT d030 10 .cfa: $rsp 8 + .ra: .cfa -8 + ^
STACK CFI d031 .cfa: $rsp 16 +
STACK CFI d03f .cfa: $rsp 8 +
STACK CFI INIT d040 10 .cfa: $rsp 8 + .ra: .cfa -8 + ^
STACK CFI d041 .cfa: $rsp 16 +
STACK CFI d04f .cfa: $rsp 8 +
STACK CFI INIT d050 10 .cfa: $rsp 8 + .ra: .cfa -8 + ^
STACK CFI d051 .cfa: $rsp 16 +
STACK CFI d05f .cfa: $rsp 8 +
STACK CFI INIT d060 6e .cfa: $rsp 8 + .ra: .cfa -8 + ^
STACK CFI d064 .cfa: $rsp 48 +
STACK CFI d0cd .cfa: $rsp 8 +
STACK CFI INIT d0d0 29 .cfa: $rsp 8 + .ra: .cfa -8 + ^
STACK CFI d0d4 .cfa: $rsp 32 +
STACK CFI d0f8 .cfa: $rsp 8 +
STACK CFI INIT d100 3b .cfa: $rsp 8 + .ra: .cfa -8 + ^
STACK CFI d104 .cfa: $rsp 32 +
STACK CFI d13a .cfa: $rsp 8 +
STACK CFI INIT d140 33 .cfa: $rsp 8 + .ra: .cfa -8 + ^
STACK CFI d144 .cfa: $rsp 32 +
STACK CFI d172 .cfa: $rsp 8 +
STACK CFI INIT d180 a1 .cfa: $rsp 8 + .ra: .cfa -8 + ^
STACK CFI d187 .cfa: $rsp 160 +
STACK CFI d220 .cfa: $rsp 8 +
STACK CFI INIT d230 e5 .cfa: $rsp 8 + .ra: .cfa -8 + ^
STACK CFI d234 .cfa: $rsp 48 +
STACK CFI d314 .cfa: $rsp 8 +
STACK CFI INIT d320 102 .cfa: $rsp 8 + .ra: .cfa -8 + ^
STACK CFI d324 .cfa: $rsp 64 +
STACK CFI d421 .cfa: $rsp 8 +
STACK CFI INIT d430 29 .cfa: $rsp 8 + .ra: .cfa -8 + ^
STACK CFI d434 .cfa: $rsp 32 +
STACK CFI d458 .cfa: $rsp 8 +
STACK CFI INIT d460 11 .cfa: $rsp 8 + .ra: .cfa -8 + ^
STACK CFI d461 .cfa: $rsp 16 +
STACK CFI d470 .cfa: $rsp 8 +
STACK CFI INIT d480 75 .cfa: $rsp 8 + .ra: .cfa -8 + ^
STACK CFI d484 .cfa: $rsp 80 +
STACK CFI d4f4 .cfa: $rsp 8 +
STACK CFI INIT d500 108 .cfa: $rsp 8 + .ra: .cfa -8 + ^
STACK CFI d504 .cfa: $rsp 64 +
STACK CFI d5de .cfa: $rsp 8 +
STACK CFI d5df .cfa: $rsp 64 +
STACK CFI INIT d610 11 .cfa: $rsp 8 + .ra: .cfa -8 + ^
STACK CFI d611 .cfa: $rsp 16 +
STACK CFI d620 .cfa: $rsp 8 +
STACK CFI INIT d630 1d .cfa: $rsp 8 + .ra: .cfa -8 + ^
STACK CFI d634 .cfa: $rsp 32 +
STACK CFI d64c .cfa: $rsp 8 +
STACK CFI INIT d650 70 .cfa: $rsp 8 + .ra: .cfa -8 + ^
STACK CFI d654 .cfa: $rsp 80 +
STACK CFI d6bf .cfa: $rsp 8 +
STACK CFI INIT d6c0 ca .cfa: $rsp 8 + .ra: .cfa -8 + ^
STACK CFI d6c4 .cfa: $rsp 96 +
STACK CFI d789 .cfa: $rsp 8 +
STACK CFI INIT d790 25 .cfa: $rsp 8 + .ra: .cfa -8 + ^
STACK CFI d794 .cfa: $rsp 32 +
STACK CFI d7b4 .cfa: $rsp 8 +
STACK CFI INIT d7c0 b .cfa: $rsp 8 + .ra: .cfa -8 + ^
STACK CFI d7c1 .cfa: $rsp 16 +
STACK CFI d7ca .cfa: $rsp 8 +
STACK CFI INIT d7d0 27 .cfa: $rsp 8 + .ra: .cfa -8 + ^
STACK CFI d7d4 .cfa: $rsp 24 +
STACK CFI d7f6 .cfa: $rsp 8 +
STACK CFI INIT d800 6 .cfa: $rsp 8 + .ra: .cfa -8 + ^
STACK CFI INIT d810 6f .cfa: $rsp 8 + .ra: .cfa -8 + ^
STACK CFI d814 .cfa: $rsp 80 +
STACK CFI d87e .cfa: $rsp 8 +
STACK CFI INIT d880 6f .cfa: $rsp 8 + .ra: .cfa -8 + ^
STACK CFI d884 .cfa: $rsp 80 +
STACK CFI d8ee .cfa: $rsp 8 +
STACK CFI INIT d8f0 2f .cfa: $rsp 8 + .ra: .cfa -8 + ^
STACK CFI d8f4 .cfa: $rsp 40 +
STACK CFI d91e .cfa: $rsp 8 +
STACK CFI INIT d920 2f .cfa: $rsp 8 + .ra: .cfa -8 + ^
STACK CFI d924 .cfa: $rsp 40 +
STACK CFI d94e .cfa: $rsp 8 +
STACK CFI INIT d950 70 .cfa: $rsp 8 + .ra: .cfa -8 + ^
STACK CFI d954 .cfa: $rsp 88 +
STACK CFI d9bf .cfa: $rsp 8 +
STACK CFI INIT d9c0 71 .cfa: $rsp 8 + .ra: .cfa -8 + ^
STACK CFI d9c4 .cfa: $rsp 88 +
STACK CFI da30 .cfa: $rsp 8 +
STACK CFI INIT da40 9f .cfa: $rsp 8 + .ra: .cfa -8 + ^
STACK CFI da44 .cfa: $rsp 104 +
STACK CFI dade .cfa: $rsp 8 +
STACK CFI INIT dae0 d3 .cfa: $rsp 8 + .ra: .cfa -8 + ^
STACK CFI dae4 .cfa: $rsp 128 +
STACK CFI dbb2 .cfa: $rsp 8 +
STACK CFI INIT dbc0 d3 .cfa: $rsp 8 + .ra: .cfa -8 + ^
STACK CFI dbc4 .cfa: $rsp 128 +
STACK CFI dc92 .cfa: $rsp 8 +
STACK CFI INIT dca0 43 .cfa: $rsp 8 + .ra: .cfa -8 + ^
STACK CFI dca4 .cfa: $rsp 48 +
STACK CFI dce2 .cfa: $rsp 8 +
STACK CFI INIT dcf0 43 .cfa: $rsp 8 + .ra: .cfa -8 + ^
STACK CFI dcf4 .cfa: $rsp 48 +
STACK CFI dd32 .cfa: $rsp 8 +
STACK CFI INIT dd40 40 .cfa: $rsp 8 + .ra: .cfa -8 + ^
STACK CFI dd44 .cfa: $rsp 64 +
STACK CFI dd7f .cfa: $rsp 8 +
STACK CFI INIT dd80 20 .cfa: $rsp 8 + .ra: .cfa -8 + ^
STACK CFI dd84 .cfa: $rsp 32 +
STACK CFI dd9f .cfa: $rsp 8 +
STACK CFI INIT dda0 20 .cfa: $rsp 8 + .ra: .cfa -8 + ^
STACK CFI dda4 .cfa: $rsp 32 +
STACK CFI ddbf .cfa: $rsp 8 +
STACK CFI INIT ddc0 84 .cfa: $rsp 8 + .ra: .cfa -8 + ^
STACK CFI ddc4 .cfa: $rsp 80 +
STACK CFI de43 .cfa: $rsp 8 +
STACK CFI INIT de50 af .cfa: $rsp 8 + .ra: .cfa -8 + ^
STACK CFI de54 .cfa: $rsp 80 +
STACK CFI defe .cfa: $rsp 8 +
STACK CFI INIT df00 741 .cfa: $rsp 8 + .ra: .cfa -8 + ^
STACK CFI df07 .cfa: $rsp 640 +
STACK CFI e001 .cfa: $rsp 8 +
STACK CFI e002 .cfa: $rsp 640 +
STACK CFI INIT e650 741 .cfa: $rsp 8 + .ra: .cfa -8 + ^
STACK CFI e657 .cfa: $rsp 640 +
STACK CFI e751 .cfa: $rsp 8 +
STACK CFI e752 .cfa: $rsp 640 +
STACK CFI INIT eda0 17 .cfa: $rsp 8 + .ra: .cfa -8 + ^
STACK CFI eda4 .cfa: $rsp 24 +
STACK CFI edb6 .cfa: $rsp 8 +
STACK CFI INIT edc0 17 .cfa: $rsp 8 + .ra: .cfa -8 + ^
STACK CFI edc4 .cfa: $rsp 24 +
STACK CFI edd6 .cfa: $rsp 8 +
STACK CFI INIT ede0 141 .cfa: $rsp 8 + .ra: .cfa -8 + ^
STACK CFI ede7 .cfa: $rsp 160 +
STACK CFI ef0d .cfa: $rsp 8 +
STACK CFI ef0e .cfa: $rsp 160 +
STACK CFI INIT ef30 141 .cfa: $rsp 8 + .ra: .cfa -8 + ^
STACK CFI ef37 .cfa: $rsp 160 +
STACK CFI f05d .cfa: $rsp 8 +
STACK CFI f05e .cfa: $rsp 160 +
STACK CFI INIT f080 25 .cfa: $rsp 8 + .ra: .cfa -8 + ^
STACK CFI f084 .cfa: $rsp 32 +
STACK CFI f0a4 .cfa: $rsp 8 +
STACK CFI INIT f0b0 b4 .cfa: $rsp 8 + .ra: .cfa -8 + ^
STACK CFI f0b4 .cfa: $rsp 96 +
STACK CFI f13a .cfa: $rsp 8 +
STACK CFI f13b .cfa: $rsp 96 +
STACK CFI INIT f170 b4 .cfa: $rsp 8 + .ra: .cfa -8 + ^
STACK CFI f174 .cfa: $rsp 96 +
STACK CFI f1fa .cfa: $rsp 8 +
STACK CFI f1fb .cfa: $rsp 96 +
STACK CFI INIT f230 c4 .cfa: $rsp 8 + .ra: .cfa -8 + ^
STACK CFI f234 .cfa: $rsp 80 +
STACK CFI f2b6 .cfa: $rsp 8 +
STACK CFI f2b7 .cfa: $rsp 80 +
STACK CFI INIT f300 c4 .cfa: $rsp 8 + .ra: .cfa -8 + ^
STACK CFI f304 .cfa: $rsp 80 +
STACK CFI f386 .cfa: $rsp 8 +
STACK CFI f387 .cfa: $rsp 80 +
STACK CFI INIT f3d0 10 .cfa: $rsp 8 + .ra: .cfa -8 + ^
STACK CFI f3d1 .cfa: $rsp 16 +
STACK CFI f3df .cfa: $rsp 8 +
STACK CFI INIT f3e0 10 .cfa: $rsp 8 + .ra: .cfa -8 + ^
STACK CFI f3e1 .cfa: $rsp 16 +
STACK CFI f3ef .cfa: $rsp 8 +
STACK CFI INIT f3f0 10 .cfa: $rsp 8 + .ra: .cfa -8 + ^
STACK CFI f3f1 .cfa: $rsp 16 +
STACK CFI f3ff .cfa: $rsp 8 +
STACK CFI INIT f400 3f .cfa: $rsp 8 + .ra: .cfa -8 + ^
STACK CFI f404 .cfa: $rsp 96 +
STACK CFI f43e .cfa: $rsp 8 +
STACK CFI INIT f440 10 .cfa: $rsp 8 + .ra: .cfa -8 + ^
STACK CFI f441 .cfa: $rsp 16 +
STACK CFI f44f .cfa: $rsp 8 +
STACK CFI INIT f450 10 .cfa: $rsp 8 + .ra: .cfa -8 + ^
STACK CFI f451 .cfa: $rsp 16 +
STACK CFI f45f .cfa: $rsp 8 +
STACK CFI INIT f460 10 .cfa: $rsp 8 + .ra: .cfa -8 + ^
STACK CFI f461 .cfa: $rsp 16 +
STACK CFI f46f .cfa: $rsp 8 +
STACK CFI INIT f470 8b .cfa: $rsp 8 + .ra: .cfa -8 + ^
STACK CFI f474 .cfa: $rsp 64 +
STACK CFI f4ec .cfa: $rsp 8 +
STACK CFI f4ed .cfa: $rsp 64 +
STACK CFI INIT f500 12f .cfa: $rsp 8 + .ra: .cfa -8 + ^
STACK CFI f504 .cfa: $rsp 80 +
STACK CFI f5ff .cfa: $rsp 8 +
STACK CFI f600 .cfa: $rsp 80 +
STACK CFI INIT f630 a7 .cfa: $rsp 8 + .ra: .cfa -8 + ^
STACK CFI f634 .cfa: $rsp 48 +
STACK CFI f6d0 .cfa: $rsp 8 +
STACK CFI f6d1 .cfa: $rsp 48 +
STACK CFI INIT f6e0 a1 .cfa: $rsp 8 + .ra: .cfa -8 + ^
STACK CFI f6e4 .cfa: $rsp 48 +
STACK CFI f77a .cfa: $rsp 8 +
STACK CFI f77b .cfa: $rsp 48 +
STACK CFI INIT f790 f5 .cfa: $rsp 8 + .ra: .cfa -8 + ^
STACK CFI f794 .cfa: $rsp 80 +
STACK CFI f859 .cfa: $rsp 8 +
STACK CFI f85a .cfa: $rsp 80 +
STACK CFI INIT f890 36 .cfa: $rsp 8 + .ra: .cfa -8 + ^
STACK CFI f894 .cfa: $rsp 48 +
STACK CFI f8c5 .cfa: $rsp 8 +
STACK CFI INIT f8d0 27 .cfa: $rsp 8 + .ra: .cfa -8 + ^
STACK CFI f8d4 .cfa: $rsp 32 +
STACK CFI f8f6 .cfa: $rsp 8 +
STACK CFI INIT f900 27 .cfa: $rsp 8 + .ra: .cfa -8 + ^
STACK CFI f904 .cfa: $rsp 32 +
STACK CFI f926 .cfa: $rsp 8 +
STACK CFI INIT f930 2f .cfa: $rsp 8 + .ra: .cfa -8 + ^
STACK CFI f934 .cfa: $rsp 32 +
STACK CFI f95e .cfa: $rsp 8 +
STACK CFI INIT f960 2f .cfa: $rsp 8 + .ra: .cfa -8 + ^
STACK CFI f964 .cfa: $rsp 32 +
STACK CFI f98e .cfa: $rsp 8 +
STACK CFI INIT f990 36 .cfa: $rsp 8 + .ra: .cfa -8 + ^
STACK CFI f994 .cfa: $rsp 32 +
STACK CFI f9c5 .cfa: $rsp 8 +
STACK CFI INIT f9d0 57 .cfa: $rsp 8 + .ra: .cfa -8 + ^
STACK CFI f9d4 .cfa: $rsp 64 +
STACK CFI fa26 .cfa: $rsp 8 +
STACK CFI INIT fa30 22 .cfa: $rsp 8 + .ra: .cfa -8 + ^
STACK CFI fa34 .cfa: $rsp 32 +
STACK CFI fa51 .cfa: $rsp 8 +
STACK CFI INIT fa60 7d .cfa: $rsp 8 + .ra: .cfa -8 + ^
STACK CFI fa64 .cfa: $rsp 80 +
STACK CFI fadc .cfa: $rsp 8 +
STACK CFI INIT fae0 69 .cfa: $rsp 8 + .ra: .cfa -8 + ^
STACK CFI fae4 .cfa: $rsp 64 +
STACK CFI fb48 .cfa: $rsp 8 +
STACK CFI INIT fb50 69 .cfa: $rsp 8 + .ra: .cfa -8 + ^
STACK CFI fb54 .cfa: $rsp 64 +
STACK CFI fbb8 .cfa: $rsp 8 +
STACK CFI INIT fbc0 69 .cfa: $rsp 8 + .ra: .cfa -8 + ^
STACK CFI fbc4 .cfa: $rsp 64 +
STACK CFI fc28 .cfa: $rsp 8 +
STACK CFI INIT fc30 69 .cfa: $rsp 8 + .ra: .cfa -8 + ^
STACK CFI fc34 .cfa: $rsp 64 +
STACK CFI fc98 .cfa: $rsp 8 +
STACK CFI INIT fca0 69 .cfa: $rsp 8 + .ra: .cfa -8 + ^
STACK CFI fca4 .cfa: $rsp 64 +
STACK CFI fd08 .cfa: $rsp 8 +
STACK CFI INIT fd10 69 .cfa: $rsp 8 + .ra: .cfa -8 + ^
STACK CFI fd14 .cfa: $rsp 64 +
STACK CFI fd78 .cfa: $rsp 8 +
STACK CFI INIT fd80 69 .cfa: $rsp 8 + .ra: .cfa -8 + ^
STACK CFI fd84 .cfa: $rsp 64 +
STACK CFI fde8 .cfa: $rsp 8 +
STACK CFI INIT fdf0 1da .cfa: $rsp 8 + .ra: .cfa -8 + ^
STACK CFI fdf1 $rbp: .cfa -16 + ^ .cfa: $rsp 16 +
STACK CFI fdf4 .cfa: $rbp 16 +
STACK CFI ffc9 .cfa: $rsp 8 +
STACK CFI INIT ffd0 1e .cfa: $rsp 8 + .ra: .cfa -8 + ^
STACK CFI ffd4 .cfa: $rsp 24 +
STACK CFI ffed .cfa: $rsp 8 +
STACK CFI INIT fff0 4d .cfa: $rsp 8 + .ra: .cfa -8 + ^
STACK CFI fff7 .cfa: $rsp 336 +
STACK CFI 1003c .cfa: $rsp 8 +
STACK CFI INIT 10040 e .cfa: $rsp 8 + .ra: .cfa -8 + ^
STACK CFI 10041 .cfa: $rsp 16 +
STACK CFI 1004d .cfa: $rsp 8 +
STACK CFI INIT 10050 e .cfa: $rsp 8 + .ra: .cfa -8 + ^
STACK CFI 10051 .cfa: $rsp 16 +
STACK CFI 1005d .cfa: $rsp 8 +
STACK CFI INIT 10060 b .cfa: $rsp 8 + .ra: .cfa -8 + ^
STACK CFI 10061 .cfa: $rsp 16 +
STACK CFI 1006a .cfa: $rsp 8 +
STACK CFI INIT 10070 e .cfa: $rsp 8 + .ra: .cfa -8 + ^
STACK CFI 10071 .cfa: $rsp 16 +
STACK CFI 1007d .cfa: $rsp 8 +
STACK CFI INIT 10080 b .cfa: $rsp 8 + .ra: .cfa -8 + ^
STACK CFI 10081 .cfa: $rsp 16 +
STACK CFI 1008a .cfa: $rsp 8 +
STACK CFI INIT 10090 3e .cfa: $rsp 8 + .ra: .cfa -8 + ^
STACK CFI 10094 .cfa: $rsp 32 +
STACK CFI 100cd .cfa: $rsp 8 +
STACK CFI INIT 100d0 23 .cfa: $rsp 8 + .ra: .cfa -8 + ^
STACK CFI 100d4 .cfa: $rsp 10 +
STACK CFI 100f2 .cfa: $rsp 8 +
STACK CFI INIT 10100 1a .cfa: $rsp 8 + .ra: .cfa -8 + ^
STACK CFI 10104 .cfa: $rsp 10 +
STACK CFI 10119 .cfa: $rsp 8 +
STACK CFI INIT 10120 1b .cfa: $rsp 8 + .ra: .cfa -8 + ^
STACK CFI 10124 .cfa: $rsp 24 +
STACK CFI 1013a .cfa: $rsp 8 +
STACK CFI INIT 10140 54 .cfa: $rsp 8 + .ra: .cfa -8 + ^
STACK CFI 10144 .cfa: $rsp 96 +
STACK CFI 10193 .cfa: $rsp 8 +
STACK CFI INIT 101a0 28 .cfa: $rsp 8 + .ra: .cfa -8 + ^
STACK CFI 101a4 .cfa: $rsp 24 +
STACK CFI 101c7 .cfa: $rsp 8 +
STACK CFI INIT 101d0 1d .cfa: $rsp 8 + .ra: .cfa -8 + ^
STACK CFI 101d4 .cfa: $rsp 32 +
STACK CFI 101ec .cfa: $rsp 8 +
STACK CFI INIT 101f0 43 .cfa: $rsp 8 + .ra: .cfa -8 + ^
STACK CFI 101f4 .cfa: $rsp 56 +
STACK CFI 10232 .cfa: $rsp 8 +
STACK CFI INIT 10240 43 .cfa: $rsp 8 + .ra: .cfa -8 + ^
STACK CFI 10244 .cfa: $rsp 56 +
STACK CFI 10282 .cfa: $rsp 8 +
STACK CFI INIT 10290 36 .cfa: $rsp 8 + .ra: .cfa -8 + ^
STACK CFI 10294 .cfa: $rsp 48 +
STACK CFI 102c5 .cfa: $rsp 8 +
STACK CFI INIT 102d0 3e .cfa: $rsp 8 + .ra: .cfa -8 + ^
STACK CFI 102d4 .cfa: $rsp 48 +
STACK CFI 1030d .cfa: $rsp 8 +
STACK CFI INIT 10310 1b .cfa: $rsp 8 + .ra: .cfa -8 + ^
STACK CFI 10314 .cfa: $rsp 24 +
STACK CFI 1032a .cfa: $rsp 8 +
STACK CFI INIT 10330 43 .cfa: $rsp 8 + .ra: .cfa -8 + ^
STACK CFI 10334 .cfa: $rsp 48 +
STACK CFI 10372 .cfa: $rsp 8 +
STACK CFI INIT 10380 133 .cfa: $rsp 8 + .ra: .cfa -8 + ^
STACK CFI 10384 .cfa: $rsp 112 +
STACK CFI 104b2 .cfa: $rsp 8 +
STACK CFI INIT 104c0 36 .cfa: $rsp 8 + .ra: .cfa -8 + ^
STACK CFI 104c4 .cfa: $rsp 48 +
STACK CFI 104f5 .cfa: $rsp 8 +
STACK CFI INIT 10500 10 .cfa: $rsp 8 + .ra: .cfa -8 + ^
STACK CFI 10501 .cfa: $rsp 16 +
STACK CFI 1050f .cfa: $rsp 8 +
STACK CFI INIT 10510 16 .cfa: $rsp 8 + .ra: .cfa -8 + ^
STACK CFI 10514 .cfa: $rsp 32 +
STACK CFI 10525 .cfa: $rsp 8 +
STACK CFI INIT 10530 16 .cfa: $rsp 8 + .ra: .cfa -8 + ^
STACK CFI 10534 .cfa: $rsp 32 +
STACK CFI 10545 .cfa: $rsp 8 +
STACK CFI INIT 10550 2a .cfa: $rsp 8 + .ra: .cfa -8 + ^
STACK CFI 10554 .cfa: $rsp 32 +
STACK CFI 10579 .cfa: $rsp 8 +
STACK CFI INIT 10580 2a .cfa: $rsp 8 + .ra: .cfa -8 + ^
STACK CFI 10584 .cfa: $rsp 32 +
STACK CFI 105a9 .cfa: $rsp 8 +
STACK CFI INIT 105b0 2 .cfa: $rsp 8 + .ra: .cfa -8 + ^
STACK CFI INIT 105c0 18 .cfa: $rsp 8 + .ra: .cfa -8 + ^
STACK CFI 105c4 .cfa: $rsp 32 +
STACK CFI 105d7 .cfa: $rsp 8 +
STACK CFI INIT 105e0 1a .cfa: $rsp 8 + .ra: .cfa -8 + ^
STACK CFI 105e1 .cfa: $rsp 16 +
STACK CFI 105f9 .cfa: $rsp 8 +
STACK CFI INIT 10600 1b9 .cfa: $rsp 8 + .ra: .cfa -8 + ^
STACK CFI 10604 .cfa: $rsp 128 +
STACK CFI 1078f .cfa: $rsp 8 +
STACK CFI 10790 .cfa: $rsp 128 +
STACK CFI INIT 107c0 182 .cfa: $rsp 8 + .ra: .cfa -8 + ^
STACK CFI 107c4 .cfa: $rsp 112 +
STACK CFI 10918 .cfa: $rsp 8 +
STACK CFI 10919 .cfa: $rsp 112 +
STACK CFI INIT 10950 23 .cfa: $rsp 8 + .ra: .cfa -8 + ^
STACK CFI 10954 .cfa: $rsp 10 +
STACK CFI 10972 .cfa: $rsp 8 +
STACK CFI INIT 10980 1b .cfa: $rsp 8 + .ra: .cfa -8 + ^
STACK CFI 10984 .cfa: $rsp 24 +
STACK CFI 1099a .cfa: $rsp 8 +
STACK CFI INIT 109a0 30 .cfa: $rsp 8 + .ra: .cfa -8 + ^
STACK CFI 109a4 .cfa: $rsp 40 +
STACK CFI 109cf .cfa: $rsp 8 +
STACK CFI INIT 109d0 48 .cfa: $rsp 8 + .ra: .cfa -8 + ^
STACK CFI 109d4 .cfa: $rsp 48 +
STACK CFI 10a17 .cfa: $rsp 8 +
STACK CFI INIT 10a20 48 .cfa: $rsp 8 + .ra: .cfa -8 + ^
STACK CFI 10a24 .cfa: $rsp 48 +
STACK CFI 10a67 .cfa: $rsp 8 +
STACK CFI INIT 10a70 4b0 .cfa: $rsp 8 + .ra: .cfa -8 + ^
STACK CFI 10a77 .cfa: $rsp 384 +
STACK CFI 10e7d .cfa: $rsp 8 +
STACK CFI 10e7e .cfa: $rsp 384 +
STACK CFI INIT 10f20 235 .cfa: $rsp 8 + .ra: .cfa -8 + ^
STACK CFI 10f27 .cfa: $rsp 224 +
STACK CFI 110d6 .cfa: $rsp 8 +
STACK CFI 110d7 .cfa: $rsp 224 +
STACK CFI INIT 11160 68 .cfa: $rsp 8 + .ra: .cfa -8 + ^
STACK CFI 11164 .cfa: $rsp 64 +
STACK CFI 111c7 .cfa: $rsp 8 +
STACK CFI INIT 111d0 30 .cfa: $rsp 8 + .ra: .cfa -8 + ^
STACK CFI 111d4 .cfa: $rsp 32 +
STACK CFI 111ff .cfa: $rsp 8 +
STACK CFI INIT 11200 76 .cfa: $rsp 8 + .ra: .cfa -8 + ^
STACK CFI 11204 .cfa: $rsp 72 +
STACK CFI 11275 .cfa: $rsp 8 +
STACK CFI INIT 11280 5c .cfa: $rsp 8 + .ra: .cfa -8 + ^
STACK CFI 11284 .cfa: $rsp 56 +
STACK CFI 112db .cfa: $rsp 8 +
STACK CFI INIT 112e0 3e .cfa: $rsp 8 + .ra: .cfa -8 + ^
STACK CFI 112e4 .cfa: $rsp 32 +
STACK CFI 1131d .cfa: $rsp 8 +
STACK CFI INIT 11320 1b .cfa: $rsp 8 + .ra: .cfa -8 + ^
STACK CFI 11324 .cfa: $rsp 24 +
STACK CFI 1133a .cfa: $rsp 8 +
STACK CFI INIT 11340 1b .cfa: $rsp 8 + .ra: .cfa -8 + ^
STACK CFI 11344 .cfa: $rsp 24 +
STACK CFI 1135a .cfa: $rsp 8 +
STACK CFI INIT 11360 24 .cfa: $rsp 8 + .ra: .cfa -8 + ^
STACK CFI 11364 .cfa: $rsp 32 +
STACK CFI 11383 .cfa: $rsp 8 +
STACK CFI INIT 11390 24 .cfa: $rsp 8 + .ra: .cfa -8 + ^
STACK CFI 11394 .cfa: $rsp 32 +
STACK CFI 113b3 .cfa: $rsp 8 +
STACK CFI INIT 113c0 24 .cfa: $rsp 8 + .ra: .cfa -8 + ^
STACK CFI 113c4 .cfa: $rsp 32 +
STACK CFI 113e3 .cfa: $rsp 8 +
STACK CFI INIT 113f0 24 .cfa: $rsp 8 + .ra: .cfa -8 + ^
STACK CFI 113f4 .cfa: $rsp 32 +
STACK CFI 11413 .cfa: $rsp 8 +
STACK CFI INIT 11420 24 .cfa: $rsp 8 + .ra: .cfa -8 + ^
STACK CFI 11424 .cfa: $rsp 32 +
STACK CFI 11443 .cfa: $rsp 8 +
STACK CFI INIT 11450 24 .cfa: $rsp 8 + .ra: .cfa -8 + ^
STACK CFI 11454 .cfa: $rsp 32 +
STACK CFI 11473 .cfa: $rsp 8 +
STACK CFI INIT 11480 d .cfa: $rsp 8 + .ra: .cfa -8 + ^
STACK CFI 11481 .cfa: $rsp 16 +
STACK CFI 1148c .cfa: $rsp 8 +
STACK CFI INIT 11490 25 .cfa: $rsp 8 + .ra: .cfa -8 + ^
STACK CFI 11494 .cfa: $rsp 40 +
STACK CFI 114b4 .cfa: $rsp 8 +
STACK CFI INIT 114c0 16 .cfa: $rsp 8 + .ra: .cfa -8 + ^
STACK CFI 114c4 .cfa: $rsp 24 +
STACK CFI 114d5 .cfa: $rsp 8 +
STACK CFI INIT 114e0 d .cfa: $rsp 8 + .ra: .cfa -8 + ^
STACK CFI 114e1 .cfa: $rsp 16 +
STACK CFI 114ec .cfa: $rsp 8 +
STACK CFI INIT 114f0 16 .cfa: $rsp 8 + .ra: .cfa -8 + ^
STACK CFI 114f4 .cfa: $rsp 24 +
STACK CFI 11505 .cfa: $rsp 8 +
STACK CFI INIT 11510 22 .cfa: $rsp 8 + .ra: .cfa -8 + ^
STACK CFI 11514 .cfa: $rsp 32 +
STACK CFI 11531 .cfa: $rsp 8 +
STACK CFI INIT 11540 22 .cfa: $rsp 8 + .ra: .cfa -8 + ^
STACK CFI 11544 .cfa: $rsp 32 +
STACK CFI 11561 .cfa: $rsp 8 +
STACK CFI INIT 11570 22 .cfa: $rsp 8 + .ra: .cfa -8 + ^
STACK CFI 11574 .cfa: $rsp 32 +
STACK CFI 11591 .cfa: $rsp 8 +
STACK CFI INIT 115a0 1d .cfa: $rsp 8 + .ra: .cfa -8 + ^
STACK CFI 115a4 .cfa: $rsp 32 +
STACK CFI 115bc .cfa: $rsp 8 +
STACK CFI INIT 115c0 32 .cfa: $rsp 8 + .ra: .cfa -8 + ^
STACK CFI 115c4 .cfa: $rsp 64 +
STACK CFI 115f1 .cfa: $rsp 8 +
STACK CFI INIT 11600 1d .cfa: $rsp 8 + .ra: .cfa -8 + ^
STACK CFI 11604 .cfa: $rsp 32 +
STACK CFI 1161c .cfa: $rsp 8 +
STACK CFI INIT 11620 7c .cfa: $rsp 8 + .ra: .cfa -8 + ^
STACK CFI 11624 .cfa: $rsp 64 +
STACK CFI 11682 .cfa: $rsp 8 +
STACK CFI 11683 .cfa: $rsp 64 +
STACK CFI INIT 116a0 56 .cfa: $rsp 8 + .ra: .cfa -8 + ^
STACK CFI 116a4 .cfa: $rsp 48 +
STACK CFI 116dc .cfa: $rsp 8 +
STACK CFI 116dd .cfa: $rsp 48 +
STACK CFI INIT 11700 1f .cfa: $rsp 8 + .ra: .cfa -8 + ^
STACK CFI 11704 .cfa: $rsp 24 +
STACK CFI 1171e .cfa: $rsp 8 +
STACK CFI INIT 11720 1f .cfa: $rsp 8 + .ra: .cfa -8 + ^
STACK CFI 11724 .cfa: $rsp 24 +
STACK CFI 1173e .cfa: $rsp 8 +
STACK CFI INIT 11740 1f .cfa: $rsp 8 + .ra: .cfa -8 + ^
STACK CFI 11744 .cfa: $rsp 24 +
STACK CFI 1175e .cfa: $rsp 8 +
STACK CFI INIT 11760 1f .cfa: $rsp 8 + .ra: .cfa -8 + ^
STACK CFI 11764 .cfa: $rsp 24 +
STACK CFI 1177e .cfa: $rsp 8 +
STACK CFI INIT 11780 182 .cfa: $rsp 8 + .ra: .cfa -8 + ^
STACK CFI 11787 .cfa: $rsp 144 +
STACK CFI 11872 .cfa: $rsp 8 +
STACK CFI 11873 .cfa: $rsp 144 +
STACK CFI INIT 11910 e0 .cfa: $rsp 8 + .ra: .cfa -8 + ^
STACK CFI 11914 .cfa: $rsp 96 +
STACK CFI 119d2 .cfa: $rsp 8 +
STACK CFI 119d3 .cfa: $rsp 96 +
STACK CFI INIT 119f0 23e .cfa: $rsp 8 + .ra: .cfa -8 + ^
STACK CFI 119f7 .cfa: $rsp 1088 +
STACK CFI 11bed .cfa: $rsp 8 +
STACK CFI 11bee .cfa: $rsp 1088 +
STACK CFI INIT 11c30 3d .cfa: $rsp 8 + .ra: .cfa -8 + ^
STACK CFI 11c34 .cfa: $rsp 48 +
STACK CFI 11c6c .cfa: $rsp 8 +
STACK CFI INIT 11c70 31 .cfa: $rsp 8 + .ra: .cfa -8 + ^
STACK CFI 11c74 .cfa: $rsp 48 +
STACK CFI 11ca0 .cfa: $rsp 8 +
STACK CFI INIT 11cb0 e0 .cfa: $rsp 8 + .ra: .cfa -8 + ^
STACK CFI 11cb7 .cfa: $rsp 1040 +
STACK CFI 11d78 .cfa: $rsp 8 +
STACK CFI 11d79 .cfa: $rsp 1040 +
STACK CFI INIT 11d90 b2 .cfa: $rsp 8 + .ra: .cfa -8 + ^
STACK CFI 11d94 .cfa: $rsp 80 +
STACK CFI 11e26 .cfa: $rsp 8 +
STACK CFI 11e27 .cfa: $rsp 80 +
STACK CFI INIT 11e50 9c .cfa: $rsp 8 + .ra: .cfa -8 + ^
STACK CFI 11e54 .cfa: $rsp 80 +
STACK CFI 11ed0 .cfa: $rsp 8 +
STACK CFI 11ed1 .cfa: $rsp 80 +
STACK CFI INIT 11ef0 ed .cfa: $rsp 8 + .ra: .cfa -8 + ^
STACK CFI 11ef4 .cfa: $rsp 96 +
STACK CFI 11fc1 .cfa: $rsp 8 +
STACK CFI 11fc2 .cfa: $rsp 96 +
STACK CFI INIT 11fe0 125 .cfa: $rsp 8 + .ra: .cfa -8 + ^
STACK CFI 11fe4 .cfa: $rsp 128 +
STACK CFI 120c4 .cfa: $rsp 8 +
STACK CFI 120c5 .cfa: $rsp 128 +
STACK CFI INIT 12110 113 .cfa: $rsp 8 + .ra: .cfa -8 + ^
STACK CFI 12114 .cfa: $rsp 112 +
STACK CFI 121e2 .cfa: $rsp 8 +
STACK CFI 121e3 .cfa: $rsp 112 +
STACK CFI INIT 12230 22 .cfa: $rsp 8 + .ra: .cfa -8 + ^
STACK CFI 12234 .cfa: $rsp 32 +
STACK CFI 12251 .cfa: $rsp 8 +
STACK CFI INIT 12260 22 .cfa: $rsp 8 + .ra: .cfa -8 + ^
STACK CFI 12264 .cfa: $rsp 32 +
STACK CFI 12281 .cfa: $rsp 8 +
STACK CFI INIT 12290 22 .cfa: $rsp 8 + .ra: .cfa -8 + ^
STACK CFI 12294 .cfa: $rsp 32 +
STACK CFI 122b1 .cfa: $rsp 8 +
STACK CFI INIT 122c0 ce .cfa: $rsp 8 + .ra: .cfa -8 + ^
STACK CFI 122c4 .cfa: $rsp 96 +
STACK CFI 1238d .cfa: $rsp 8 +
STACK CFI INIT 12390 ce .cfa: $rsp 8 + .ra: .cfa -8 + ^
STACK CFI 12394 .cfa: $rsp 96 +
STACK CFI 1245d .cfa: $rsp 8 +
STACK CFI INIT 12460 ce .cfa: $rsp 8 + .ra: .cfa -8 + ^
STACK CFI 12464 .cfa: $rsp 96 +
STACK CFI 1252d .cfa: $rsp 8 +
STACK CFI INIT 12530 67 .cfa: $rsp 8 + .ra: .cfa -8 + ^
STACK CFI 12534 .cfa: $rsp 64 +
STACK CFI 12596 .cfa: $rsp 8 +
STACK CFI INIT 125a0 67 .cfa: $rsp 8 + .ra: .cfa -8 + ^
STACK CFI 125a4 .cfa: $rsp 64 +
STACK CFI 12606 .cfa: $rsp 8 +
STACK CFI INIT 12610 67 .cfa: $rsp 8 + .ra: .cfa -8 + ^
STACK CFI 12614 .cfa: $rsp 64 +
STACK CFI 12676 .cfa: $rsp 8 +
STACK CFI INIT 12680 6a .cfa: $rsp 8 + .ra: .cfa -8 + ^
STACK CFI 12684 .cfa: $rsp 48 +
STACK CFI 126dd .cfa: $rsp 8 +
STACK CFI 126de .cfa: $rsp 48 +
STACK CFI INIT 126f0 6a .cfa: $rsp 8 + .ra: .cfa -8 + ^
STACK CFI 126f4 .cfa: $rsp 48 +
STACK CFI 1274d .cfa: $rsp 8 +
STACK CFI 1274e .cfa: $rsp 48 +
STACK CFI INIT 12760 6a .cfa: $rsp 8 + .ra: .cfa -8 + ^
STACK CFI 12764 .cfa: $rsp 48 +
STACK CFI 127bd .cfa: $rsp 8 +
STACK CFI 127be .cfa: $rsp 48 +
STACK CFI INIT 127d0 26 .cfa: $rsp 8 + .ra: .cfa -8 + ^
STACK CFI 127d4 .cfa: $rsp 32 +
STACK CFI 127f5 .cfa: $rsp 8 +
STACK CFI INIT 12800 26 .cfa: $rsp 8 + .ra: .cfa -8 + ^
STACK CFI 12804 .cfa: $rsp 32 +
STACK CFI 12825 .cfa: $rsp 8 +
STACK CFI INIT 12830 9b .cfa: $rsp 8 + .ra: .cfa -8 + ^
STACK CFI 12834 .cfa: $rsp 48 +
STACK CFI 128ca .cfa: $rsp 8 +
STACK CFI INIT 128d0 13 .cfa: $rsp 8 + .ra: .cfa -8 + ^
STACK CFI 128d1 .cfa: $rsp 16 +
STACK CFI 128e2 .cfa: $rsp 8 +
STACK CFI INIT 128f0 2f8 .cfa: $rsp 8 + .ra: .cfa -8 + ^
STACK CFI 128f7 .cfa: $rsp 320 +
STACK CFI 12bab .cfa: $rsp 8 +
STACK CFI 12bac .cfa: $rsp 320 +
STACK CFI INIT 12bf0 1d3 .cfa: $rsp 8 + .ra: .cfa -8 + ^
STACK CFI 12bf7 .cfa: $rsp 224 +
STACK CFI 12d96 .cfa: $rsp 8 +
STACK CFI 12d97 .cfa: $rsp 224 +
STACK CFI INIT 12dd0 3d8 .cfa: $rsp 8 + .ra: .cfa -8 + ^
STACK CFI 12dd7 .cfa: $rsp 560 +
STACK CFI 13155 .cfa: $rsp 8 +
STACK CFI 13156 .cfa: $rsp 560 +
STACK CFI INIT 131b0 e0f .cfa: $rsp 8 + .ra: .cfa -8 + ^
STACK CFI 131b7 .cfa: $rsp 1568 +
STACK CFI 13d59 .cfa: $rsp 8 +
STACK CFI 13d5a .cfa: $rsp 1568 +
STACK CFI INIT 13fc0 35 .cfa: $rsp 8 + .ra: .cfa -8 + ^
STACK CFI 13fc4 .cfa: $rsp 32 +
STACK CFI 13ff4 .cfa: $rsp 8 +
STACK CFI INIT 14000 2a .cfa: $rsp 8 + .ra: .cfa -8 + ^
STACK CFI 14001 .cfa: $rsp 16 +
STACK CFI 14029 .cfa: $rsp 8 +
STACK CFI INIT 14030 46 .cfa: $rsp 8 + .ra: .cfa -8 + ^
STACK CFI 14034 .cfa: $rsp 48 +
STACK CFI 14075 .cfa: $rsp 8 +
STACK CFI INIT 14080 43 .cfa: $rsp 8 + .ra: .cfa -8 + ^
STACK CFI 14084 .cfa: $rsp 32 +
STACK CFI 140c2 .cfa: $rsp 8 +
STACK CFI INIT 140d0 2a .cfa: $rsp 8 + .ra: .cfa -8 + ^
STACK CFI 140d4 .cfa: $rsp 32 +
STACK CFI 140f9 .cfa: $rsp 8 +
STACK CFI INIT 14100 3d .cfa: $rsp 8 + .ra: .cfa -8 + ^
STACK CFI 14104 .cfa: $rsp 48 +
STACK CFI 1413c .cfa: $rsp 8 +
STACK CFI INIT 14140 44 .cfa: $rsp 8 + .ra: .cfa -8 + ^
STACK CFI 14144 .cfa: $rsp 48 +
STACK CFI 14183 .cfa: $rsp 8 +
STACK CFI INIT 14190 44 .cfa: $rsp 8 + .ra: .cfa -8 + ^
STACK CFI 14194 .cfa: $rsp 48 +
STACK CFI 141d3 .cfa: $rsp 8 +
STACK CFI INIT 141e0 68 .cfa: $rsp 8 + .ra: .cfa -8 + ^
STACK CFI 141e4 .cfa: $rsp 48 +
STACK CFI 14247 .cfa: $rsp 8 +
STACK CFI INIT 14250 72 .cfa: $rsp 8 + .ra: .cfa -8 + ^
STACK CFI 14254 .cfa: $rsp 64 +
STACK CFI 142c1 .cfa: $rsp 8 +
STACK CFI INIT 142d0 12 .cfa: $rsp 8 + .ra: .cfa -8 + ^
STACK CFI 142d1 .cfa: $rsp 16 +
STACK CFI 142e1 .cfa: $rsp 8 +
STACK CFI INIT 142f0 15 .cfa: $rsp 8 + .ra: .cfa -8 + ^
STACK CFI 142f4 .cfa: $rsp 9 +
STACK CFI 14304 .cfa: $rsp 8 +
STACK CFI INIT 14310 6f .cfa: $rsp 8 + .ra: .cfa -8 + ^
STACK CFI 14314 .cfa: $rsp 96 +
STACK CFI 1437e .cfa: $rsp 8 +
STACK CFI INIT 14380 10 .cfa: $rsp 8 + .ra: .cfa -8 + ^
STACK CFI 14381 .cfa: $rsp 16 +
STACK CFI 1438f .cfa: $rsp 8 +
STACK CFI INIT 14390 10 .cfa: $rsp 8 + .ra: .cfa -8 + ^
STACK CFI 14391 .cfa: $rsp 16 +
STACK CFI 1439f .cfa: $rsp 8 +
STACK CFI INIT 143a0 18 .cfa: $rsp 8 + .ra: .cfa -8 + ^
STACK CFI 143a4 .cfa: $rsp 32 +
STACK CFI 143b7 .cfa: $rsp 8 +
STACK CFI INIT 143c0 18 .cfa: $rsp 8 + .ra: .cfa -8 + ^
STACK CFI 143c4 .cfa: $rsp 32 +
STACK CFI 143d7 .cfa: $rsp 8 +
STACK CFI INIT 143e0 33 .cfa: $rsp 8 + .ra: .cfa -8 + ^
STACK CFI 143e4 .cfa: $rsp 32 +
STACK CFI 14412 .cfa: $rsp 8 +
STACK CFI INIT 14420 ac .cfa: $rsp 8 + .ra: .cfa -8 + ^
STACK CFI 14424 .cfa: $rsp 80 +
STACK CFI 1449a .cfa: $rsp 8 +
STACK CFI 1449b .cfa: $rsp 80 +
STACK CFI INIT 144d0 57 .cfa: $rsp 8 + .ra: .cfa -8 + ^
STACK CFI 144d4 .cfa: $rsp 72 +
STACK CFI 14526 .cfa: $rsp 8 +
STACK CFI INIT 14530 57 .cfa: $rsp 8 + .ra: .cfa -8 + ^
STACK CFI 14534 .cfa: $rsp 72 +
STACK CFI 14586 .cfa: $rsp 8 +
STACK CFI INIT 14590 57 .cfa: $rsp 8 + .ra: .cfa -8 + ^
STACK CFI 14594 .cfa: $rsp 72 +
STACK CFI 145e6 .cfa: $rsp 8 +
STACK CFI INIT 145f0 57 .cfa: $rsp 8 + .ra: .cfa -8 + ^
STACK CFI 145f4 .cfa: $rsp 72 +
STACK CFI 14646 .cfa: $rsp 8 +
STACK CFI INIT 14650 57 .cfa: $rsp 8 + .ra: .cfa -8 + ^
STACK CFI 14654 .cfa: $rsp 72 +
STACK CFI 146a6 .cfa: $rsp 8 +
STACK CFI INIT 146b0 57 .cfa: $rsp 8 + .ra: .cfa -8 + ^
STACK CFI 146b4 .cfa: $rsp 72 +
STACK CFI 14706 .cfa: $rsp 8 +
STACK CFI INIT 14710 57 .cfa: $rsp 8 + .ra: .cfa -8 + ^
STACK CFI 14714 .cfa: $rsp 72 +
STACK CFI 14766 .cfa: $rsp 8 +
STACK CFI INIT 14770 57 .cfa: $rsp 8 + .ra: .cfa -8 + ^
STACK CFI 14774 .cfa: $rsp 72 +
STACK CFI 147c6 .cfa: $rsp 8 +
STACK CFI INIT 147d0 57 .cfa: $rsp 8 + .ra: .cfa -8 + ^
STACK CFI 147d4 .cfa: $rsp 72 +
STACK CFI 14826 .cfa: $rsp 8 +
STACK CFI INIT 14830 57 .cfa: $rsp 8 + .ra: .cfa -8 + ^
STACK CFI 14834 .cfa: $rsp 72 +
STACK CFI 14886 .cfa: $rsp 8 +
STACK CFI INIT 14890 1b .cfa: $rsp 8 + .ra: .cfa -8 + ^
STACK CFI 14894 .cfa: $rsp 24 +
STACK CFI 148aa .cfa: $rsp 8 +
STACK CFI INIT 148b0 1b .cfa: $rsp 8 + .ra: .cfa -8 + ^
STACK CFI 148b4 .cfa: $rsp 24 +
STACK CFI 148ca .cfa: $rsp 8 +
STACK CFI INIT 148d0 1b .cfa: $rsp 8 + .ra: .cfa -8 + ^
STACK CFI 148d4 .cfa: $rsp 24 +
STACK CFI 148ea .cfa: $rsp 8 +
STACK CFI INIT 148f0 1b .cfa: $rsp 8 + .ra: .cfa -8 + ^
STACK CFI 148f4 .cfa: $rsp 24 +
STACK CFI 1490a .cfa: $rsp 8 +
STACK CFI INIT 14910 1b .cfa: $rsp 8 + .ra: .cfa -8 + ^
STACK CFI 14914 .cfa: $rsp 32 +
STACK CFI 1492a .cfa: $rsp 8 +
STACK CFI INIT 14930 25 .cfa: $rsp 8 + .ra: .cfa -8 + ^
STACK CFI 14934 .cfa: $rsp 40 +
STACK CFI 14954 .cfa: $rsp 8 +
STACK CFI INIT 14960 25 .cfa: $rsp 8 + .ra: .cfa -8 + ^
STACK CFI 14964 .cfa: $rsp 40 +
STACK CFI 14984 .cfa: $rsp 8 +
STACK CFI INIT 14990 27 .cfa: $rsp 8 + .ra: .cfa -8 + ^
STACK CFI 14994 .cfa: $rsp 32 +
STACK CFI 149b6 .cfa: $rsp 8 +
STACK CFI INIT 149c0 27 .cfa: $rsp 8 + .ra: .cfa -8 + ^
STACK CFI 149c4 .cfa: $rsp 32 +
STACK CFI 149e6 .cfa: $rsp 8 +
STACK CFI INIT 149f0 b .cfa: $rsp 8 + .ra: .cfa -8 + ^
STACK CFI 149f1 .cfa: $rsp 16 +
STACK CFI 149fa .cfa: $rsp 8 +
STACK CFI INIT 14a00 b .cfa: $rsp 8 + .ra: .cfa -8 + ^
STACK CFI 14a01 .cfa: $rsp 16 +
STACK CFI 14a0a .cfa: $rsp 8 +
STACK CFI INIT 14a10 b .cfa: $rsp 8 + .ra: .cfa -8 + ^
STACK CFI 14a11 .cfa: $rsp 16 +
STACK CFI 14a1a .cfa: $rsp 8 +
STACK CFI INIT 14a20 b .cfa: $rsp 8 + .ra: .cfa -8 + ^
STACK CFI 14a21 .cfa: $rsp 16 +
STACK CFI 14a2a .cfa: $rsp 8 +
STACK CFI INIT 14a30 b .cfa: $rsp 8 + .ra: .cfa -8 + ^
STACK CFI 14a31 .cfa: $rsp 16 +
STACK CFI 14a3a .cfa: $rsp 8 +
STACK CFI INIT 14a40 b .cfa: $rsp 8 + .ra: .cfa -8 + ^
STACK CFI 14a41 .cfa: $rsp 16 +
STACK CFI 14a4a .cfa: $rsp 8 +
STACK CFI INIT 14a50 1b .cfa: $rsp 8 + .ra: .cfa -8 + ^
STACK CFI 14a54 .cfa: $rsp 24 +
STACK CFI 14a6a .cfa: $rsp 8 +
STACK CFI INIT 14a70 b .cfa: $rsp 8 + .ra: .cfa -8 + ^
STACK CFI 14a71 .cfa: $rsp 16 +
STACK CFI 14a7a .cfa: $rsp 8 +
STACK CFI INIT 14a80 b .cfa: $rsp 8 + .ra: .cfa -8 + ^
STACK CFI 14a81 .cfa: $rsp 16 +
STACK CFI 14a8a .cfa: $rsp 8 +
STACK CFI INIT 14a90 25 .cfa: $rsp 8 + .ra: .cfa -8 + ^
STACK CFI 14a94 .cfa: $rsp 32 +
STACK CFI 14ab4 .cfa: $rsp 8 +
STACK CFI INIT 14ac0 32 .cfa: $rsp 8 + .ra: .cfa -8 + ^
STACK CFI 14ac4 .cfa: $rsp 32 +
STACK CFI 14af1 .cfa: $rsp 8 +
STACK CFI INIT 14b00 32 .cfa: $rsp 8 + .ra: .cfa -8 + ^
STACK CFI 14b04 .cfa: $rsp 32 +
STACK CFI 14b31 .cfa: $rsp 8 +
STACK CFI INIT 14b40 32 .cfa: $rsp 8 + .ra: .cfa -8 + ^
STACK CFI 14b44 .cfa: $rsp 32 +
STACK CFI 14b71 .cfa: $rsp 8 +
STACK CFI INIT 14b80 32 .cfa: $rsp 8 + .ra: .cfa -8 + ^
STACK CFI 14b84 .cfa: $rsp 32 +
STACK CFI 14bb1 .cfa: $rsp 8 +
STACK CFI INIT 14bc0 32 .cfa: $rsp 8 + .ra: .cfa -8 + ^
STACK CFI 14bc4 .cfa: $rsp 32 +
STACK CFI 14bf1 .cfa: $rsp 8 +
STACK CFI INIT 14c00 25 .cfa: $rsp 8 + .ra: .cfa -8 + ^
STACK CFI 14c04 .cfa: $rsp 32 +
STACK CFI 14c24 .cfa: $rsp 8 +
STACK CFI INIT 14c30 25 .cfa: $rsp 8 + .ra: .cfa -8 + ^
STACK CFI 14c34 .cfa: $rsp 32 +
STACK CFI 14c54 .cfa: $rsp 8 +
STACK CFI INIT 14c60 25 .cfa: $rsp 8 + .ra: .cfa -8 + ^
STACK CFI 14c64 .cfa: $rsp 32 +
STACK CFI 14c84 .cfa: $rsp 8 +
STACK CFI INIT 14c90 b .cfa: $rsp 8 + .ra: .cfa -8 + ^
STACK CFI 14c91 .cfa: $rsp 16 +
STACK CFI 14c9a .cfa: $rsp 8 +
STACK CFI INIT 14ca0 b .cfa: $rsp 8 + .ra: .cfa -8 + ^
STACK CFI 14ca1 .cfa: $rsp 16 +
STACK CFI 14caa .cfa: $rsp 8 +
STACK CFI INIT 14cb0 b .cfa: $rsp 8 + .ra: .cfa -8 + ^
STACK CFI 14cb1 .cfa: $rsp 16 +
STACK CFI 14cba .cfa: $rsp 8 +
STACK CFI INIT 14cc0 b .cfa: $rsp 8 + .ra: .cfa -8 + ^
STACK CFI 14cc1 .cfa: $rsp 16 +
STACK CFI 14cca .cfa: $rsp 8 +
STACK CFI INIT 14cd0 25 .cfa: $rsp 8 + .ra: .cfa -8 + ^
STACK CFI 14cd4 .cfa: $rsp 32 +
STACK CFI 14cf4 .cfa: $rsp 8 +
STACK CFI INIT 14d00 25 .cfa: $rsp 8 + .ra: .cfa -8 + ^
STACK CFI 14d04 .cfa: $rsp 32 +
STACK CFI 14d24 .cfa: $rsp 8 +
STACK CFI INIT 14d30 25 .cfa: $rsp 8 + .ra: .cfa -8 + ^
STACK CFI 14d34 .cfa: $rsp 32 +
STACK CFI 14d54 .cfa: $rsp 8 +
STACK CFI INIT 14d60 58 .cfa: $rsp 8 + .ra: .cfa -8 + ^
STACK CFI 14d64 .cfa: $rsp 64 +
STACK CFI 14db7 .cfa: $rsp 8 +
STACK CFI INIT 14dc0 58 .cfa: $rsp 8 + .ra: .cfa -8 + ^
STACK CFI 14dc4 .cfa: $rsp 64 +
STACK CFI 14e17 .cfa: $rsp 8 +
STACK CFI INIT 14e20 58 .cfa: $rsp 8 + .ra: .cfa -8 + ^
STACK CFI 14e24 .cfa: $rsp 64 +
STACK CFI 14e77 .cfa: $rsp 8 +
STACK CFI INIT 14e80 d7 .cfa: $rsp 8 + .ra: .cfa -8 + ^
STACK CFI 14e84 .cfa: $rsp 80 +
STACK CFI 14f29 .cfa: $rsp 8 +
STACK CFI 14f2a .cfa: $rsp 80 +
STACK CFI INIT 14f60 b4 .cfa: $rsp 8 + .ra: .cfa -8 + ^
STACK CFI 14f64 .cfa: $rsp 64 +
STACK CFI 14ff3 .cfa: $rsp 8 +
STACK CFI 14ff4 .cfa: $rsp 64 +
STACK CFI INIT 15020 e7 .cfa: $rsp 8 + .ra: .cfa -8 + ^
STACK CFI 15024 .cfa: $rsp 112 +
STACK CFI 150d9 .cfa: $rsp 8 +
STACK CFI 150da .cfa: $rsp 112 +
STACK CFI INIT 15110 3b .cfa: $rsp 8 + .ra: .cfa -8 + ^
STACK CFI 15114 .cfa: $rsp 48 +
STACK CFI 1514a .cfa: $rsp 8 +
STACK CFI INIT 15150 2a .cfa: $rsp 8 + .ra: .cfa -8 + ^
STACK CFI 15154 .cfa: $rsp 48 +
STACK CFI 15179 .cfa: $rsp 8 +
STACK CFI INIT 15180 6b .cfa: $rsp 8 + .ra: .cfa -8 + ^
STACK CFI 15184 .cfa: $rsp 80 +
STACK CFI 151ea .cfa: $rsp 8 +
STACK CFI INIT 151f0 7b .cfa: $rsp 8 + .ra: .cfa -8 + ^
STACK CFI 151f4 .cfa: $rsp 80 +
STACK CFI 1526a .cfa: $rsp 8 +
STACK CFI INIT 15270 2a .cfa: $rsp 8 + .ra: .cfa -8 + ^
STACK CFI 15274 .cfa: $rsp 48 +
STACK CFI 15299 .cfa: $rsp 8 +
STACK CFI INIT 152a0 26 .cfa: $rsp 8 + .ra: .cfa -8 + ^
STACK CFI 152a4 .cfa: $rsp 48 +
STACK CFI 152c5 .cfa: $rsp 8 +
STACK CFI INIT 152d0 29 .cfa: $rsp 8 + .ra: .cfa -8 + ^
STACK CFI 152d1 .cfa: $rsp 16 +
STACK CFI 152f8 .cfa: $rsp 8 +
STACK CFI INIT 15300 d .cfa: $rsp 8 + .ra: .cfa -8 + ^
STACK CFI 15304 .cfa: $rsp 24 +
STACK CFI 1530c .cfa: $rsp 8 +
STACK CFI INIT 15310 21 .cfa: $rsp 8 + .ra: .cfa -8 + ^
STACK CFI 15311 .cfa: $rsp 16 +
STACK CFI 15330 .cfa: $rsp 8 +
STACK CFI INIT 15340 1b .cfa: $rsp 8 + .ra: .cfa -8 + ^
STACK CFI 15344 .cfa: $rsp 24 +
STACK CFI 1535a .cfa: $rsp 8 +
STACK CFI INIT 15360 2c .cfa: $rsp 8 + .ra: .cfa -8 + ^
STACK CFI 15364 .cfa: $rsp 32 +
STACK CFI 1538b .cfa: $rsp 8 +
STACK CFI INIT 15390 22 .cfa: $rsp 8 + .ra: .cfa -8 + ^
STACK CFI 15394 .cfa: $rsp 32 +
STACK CFI 153b1 .cfa: $rsp 8 +
STACK CFI INIT 153c0 22 .cfa: $rsp 8 + .ra: .cfa -8 + ^
STACK CFI 153c4 .cfa: $rsp 32 +
STACK CFI 153e1 .cfa: $rsp 8 +
STACK CFI INIT 153f0 22 .cfa: $rsp 8 + .ra: .cfa -8 + ^
STACK CFI 153f4 .cfa: $rsp 32 +
STACK CFI 15411 .cfa: $rsp 8 +
STACK CFI INIT 15420 e .cfa: $rsp 8 + .ra: .cfa -8 + ^
STACK CFI 15421 .cfa: $rsp 16 +
STACK CFI 1542d .cfa: $rsp 8 +
STACK CFI INIT 15430 22 .cfa: $rsp 8 + .ra: .cfa -8 + ^
STACK CFI 15434 .cfa: $rsp 32 +
STACK CFI 15451 .cfa: $rsp 8 +
STACK CFI INIT 15460 45 .cfa: $rsp 8 + .ra: .cfa -8 + ^
STACK CFI 15464 .cfa: $rsp 48 +
STACK CFI 154a4 .cfa: $rsp 8 +
STACK CFI INIT 154b0 48 .cfa: $rsp 8 + .ra: .cfa -8 + ^
STACK CFI 154b4 .cfa: $rsp 48 +
STACK CFI 154f7 .cfa: $rsp 8 +
STACK CFI INIT 15500 43 .cfa: $rsp 8 + .ra: .cfa -8 + ^
STACK CFI 15504 .cfa: $rsp 48 +
STACK CFI 15542 .cfa: $rsp 8 +
STACK CFI INIT 15550 29 .cfa: $rsp 8 + .ra: .cfa -8 + ^
STACK CFI 15554 .cfa: $rsp 32 +
STACK CFI 15578 .cfa: $rsp 8 +
STACK CFI INIT 15580 2f .cfa: $rsp 8 + .ra: .cfa -8 + ^
STACK CFI 15584 .cfa: $rsp 32 +
STACK CFI 155ae .cfa: $rsp 8 +
STACK CFI INIT 155b0 1a .cfa: $rsp 8 + .ra: .cfa -8 + ^
STACK CFI 155b1 .cfa: $rsp 16 +
STACK CFI 155c9 .cfa: $rsp 8 +
STACK CFI INIT 155d0 69 .cfa: $rsp 8 + .ra: .cfa -8 + ^
STACK CFI 155d4 .cfa: $rsp 48 +
STACK CFI 15638 .cfa: $rsp 8 +
STACK CFI INIT 15640 75 .cfa: $rsp 8 + .ra: .cfa -8 + ^
STACK CFI 15644 .cfa: $rsp 32 +
STACK CFI 156b4 .cfa: $rsp 8 +
STACK CFI INIT 156c0 10 .cfa: $rsp 8 + .ra: .cfa -8 + ^
STACK CFI 156c1 .cfa: $rsp 16 +
STACK CFI 156cf .cfa: $rsp 8 +
STACK CFI INIT 156d0 20 .cfa: $rsp 8 + .ra: .cfa -8 + ^
STACK CFI 156d4 .cfa: $rsp 32 +
STACK CFI 156ef .cfa: $rsp 8 +
STACK CFI INIT 156f0 91 .cfa: $rsp 8 + .ra: .cfa -8 + ^
STACK CFI 156f4 .cfa: $rsp 80 +
STACK CFI 15780 .cfa: $rsp 8 +
STACK CFI INIT 15790 4a .cfa: $rsp 8 + .ra: .cfa -8 + ^
STACK CFI 15794 .cfa: $rsp 64 +
STACK CFI 157d9 .cfa: $rsp 8 +
STACK CFI INIT 157e0 e .cfa: $rsp 8 + .ra: .cfa -8 + ^
STACK CFI 157e1 .cfa: $rsp 16 +
STACK CFI 157ed .cfa: $rsp 8 +
STACK CFI INIT 157f0 26 .cfa: $rsp 8 + .ra: .cfa -8 + ^
STACK CFI 157f4 .cfa: $rsp 32 +
STACK CFI 15815 .cfa: $rsp 8 +
STACK CFI INIT 15820 29a .cfa: $rsp 8 + .ra: .cfa -8 + ^
STACK CFI 15827 .cfa: $rsp 336 +
STACK CFI 1598a .cfa: $rsp 8 +
STACK CFI 1598b .cfa: $rsp 336 +
STACK CFI INIT 15ac0 3b .cfa: $rsp 8 + .ra: .cfa -8 + ^
STACK CFI 15ac4 .cfa: $rsp 48 +
STACK CFI 15afa .cfa: $rsp 8 +
STACK CFI INIT 15b00 3b .cfa: $rsp 8 + .ra: .cfa -8 + ^
STACK CFI 15b04 .cfa: $rsp 48 +
STACK CFI 15b3a .cfa: $rsp 8 +
STACK CFI INIT 15b40 4f .cfa: $rsp 8 + .ra: .cfa -8 + ^
STACK CFI 15b44 .cfa: $rsp 64 +
STACK CFI 15b8e .cfa: $rsp 8 +
STACK CFI INIT 15b90 4f .cfa: $rsp 8 + .ra: .cfa -8 + ^
STACK CFI 15b94 .cfa: $rsp 64 +
STACK CFI 15bde .cfa: $rsp 8 +
STACK CFI INIT 15be0 4d .cfa: $rsp 8 + .ra: .cfa -8 + ^
STACK CFI 15be4 .cfa: $rsp 80 +
STACK CFI 15c2c .cfa: $rsp 8 +
STACK CFI INIT 15c30 4d .cfa: $rsp 8 + .ra: .cfa -8 + ^
STACK CFI 15c34 .cfa: $rsp 80 +
STACK CFI 15c7c .cfa: $rsp 8 +
STACK CFI INIT 15c80 2d .cfa: $rsp 8 + .ra: .cfa -8 + ^
STACK CFI 15c84 .cfa: $rsp 40 +
STACK CFI 15cac .cfa: $rsp 8 +
STACK CFI INIT 15cb0 2d .cfa: $rsp 8 + .ra: .cfa -8 + ^
STACK CFI 15cb4 .cfa: $rsp 40 +
STACK CFI 15cdc .cfa: $rsp 8 +
STACK CFI INIT 15ce0 75 .cfa: $rsp 8 + .ra: .cfa -8 + ^
STACK CFI 15ce4 .cfa: $rsp 80 +
STACK CFI 15d54 .cfa: $rsp 8 +
STACK CFI INIT 15d60 75 .cfa: $rsp 8 + .ra: .cfa -8 + ^
STACK CFI 15d64 .cfa: $rsp 80 +
STACK CFI 15dd4 .cfa: $rsp 8 +
STACK CFI INIT 15de0 75 .cfa: $rsp 8 + .ra: .cfa -8 + ^
STACK CFI 15de4 .cfa: $rsp 80 +
STACK CFI 15e54 .cfa: $rsp 8 +
STACK CFI INIT 15e60 5 .cfa: $rsp 8 + .ra: .cfa -8 + ^
STACK CFI INIT 15e70 5 .cfa: $rsp 8 + .ra: .cfa -8 + ^
STACK CFI INIT 15e80 5 .cfa: $rsp 8 + .ra: .cfa -8 + ^
STACK CFI INIT 15e90 5 .cfa: $rsp 8 + .ra: .cfa -8 + ^
STACK CFI INIT 15ea0 36 .cfa: $rsp 8 + .ra: .cfa -8 + ^
STACK CFI 15ea4 .cfa: $rsp 40 +
STACK CFI 15ed5 .cfa: $rsp 8 +
STACK CFI INIT 15ee0 36 .cfa: $rsp 8 + .ra: .cfa -8 + ^
STACK CFI 15ee4 .cfa: $rsp 32 +
STACK CFI 15f15 .cfa: $rsp 8 +
STACK CFI INIT 15f20 19 .cfa: $rsp 8 + .ra: .cfa -8 + ^
STACK CFI 15f24 .cfa: $rsp 24 +
STACK CFI 15f38 .cfa: $rsp 8 +
STACK CFI INIT 15f40 34 .cfa: $rsp 8 + .ra: .cfa -8 + ^
STACK CFI 15f44 .cfa: $rsp 48 +
STACK CFI 15f73 .cfa: $rsp 8 +
STACK CFI INIT 15f80 49 .cfa: $rsp 8 + .ra: .cfa -8 + ^
STACK CFI 15f84 .cfa: $rsp 64 +
STACK CFI 15fc8 .cfa: $rsp 8 +
STACK CFI INIT 15fd0 123 .cfa: $rsp 8 + .ra: .cfa -8 + ^
STACK CFI 15fd4 .cfa: $rsp 80 +
STACK CFI 160c9 .cfa: $rsp 8 +
STACK CFI 160ca .cfa: $rsp 80 +
STACK CFI INIT 16100 23f .cfa: $rsp 8 + .ra: .cfa -8 + ^
STACK CFI 16107 .cfa: $rsp 160 +
STACK CFI 162de .cfa: $rsp 8 +
STACK CFI 162df .cfa: $rsp 160 +
STACK CFI INIT 16340 23f .cfa: $rsp 8 + .ra: .cfa -8 + ^
STACK CFI 16347 .cfa: $rsp 160 +
STACK CFI 1651e .cfa: $rsp 8 +
STACK CFI 1651f .cfa: $rsp 160 +
STACK CFI INIT 16580 1f5 .cfa: $rsp 8 + .ra: .cfa -8 + ^
STACK CFI 16587 .cfa: $rsp 192 +
STACK CFI 16739 .cfa: $rsp 8 +
STACK CFI 1673a .cfa: $rsp 192 +
STACK CFI INIT 16780 112 .cfa: $rsp 8 + .ra: .cfa -8 + ^
STACK CFI 16787 .cfa: $rsp 256 +
STACK CFI 1687a .cfa: $rsp 8 +
STACK CFI 1687b .cfa: $rsp 256 +
STACK CFI INIT 168a0 137 .cfa: $rsp 8 + .ra: .cfa -8 + ^
STACK CFI 168a7 .cfa: $rsp 160 +
STACK CFI 169ae .cfa: $rsp 8 +
STACK CFI 169af .cfa: $rsp 160 +
STACK CFI INIT 169e0 de .cfa: $rsp 8 + .ra: .cfa -8 + ^
STACK CFI 169e4 .cfa: $rsp 128 +
STACK CFI 16a9f .cfa: $rsp 8 +
STACK CFI 16aa0 .cfa: $rsp 128 +
STACK CFI INIT 16ac0 178 .cfa: $rsp 8 + .ra: .cfa -8 + ^
STACK CFI 16ac4 .cfa: $rsp 128 +
STACK CFI 16c0e .cfa: $rsp 8 +
STACK CFI 16c0f .cfa: $rsp 128 +
STACK CFI INIT 16c40 160 .cfa: $rsp 8 + .ra: .cfa -8 + ^
STACK CFI 16c47 .cfa: $rsp 224 +
STACK CFI INIT 16da0 1d .cfa: $rsp 8 + .ra: .cfa -8 + ^
STACK CFI 16da1 .cfa: $rsp 16 +
STACK CFI 16dbc .cfa: $rsp 8 +
STACK CFI INIT 16dc0 16 .cfa: $rsp 8 + .ra: .cfa -8 + ^
STACK CFI 16dc1 .cfa: $rsp 16 +
STACK CFI 16dd5 .cfa: $rsp 8 +
STACK CFI INIT 16de0 2b .cfa: $rsp 8 + .ra: .cfa -8 + ^
STACK CFI 16de4 .cfa: $rsp 32 +
STACK CFI 16e0a .cfa: $rsp 8 +
STACK CFI INIT 16e10 122 .cfa: $rsp 8 + .ra: .cfa -8 + ^
STACK CFI 16e17 .cfa: $rsp 192 +
STACK CFI 16ece .cfa: $rsp 8 +
STACK CFI 16ecf .cfa: $rsp 192 +
STACK CFI INIT 16f40 73 .cfa: $rsp 8 + .ra: .cfa -8 + ^
STACK CFI 16f44 .cfa: $rsp 80 +
STACK CFI 16fb2 .cfa: $rsp 8 +
STACK CFI INIT 16fc0 73 .cfa: $rsp 8 + .ra: .cfa -8 + ^
STACK CFI 16fc4 .cfa: $rsp 80 +
STACK CFI 17032 .cfa: $rsp 8 +
STACK CFI INIT 17040 1dd .cfa: $rsp 8 + .ra: .cfa -8 + ^
STACK CFI 17047 .cfa: $rsp 144 +
STACK CFI 171cf .cfa: $rsp 8 +
STACK CFI 171d0 .cfa: $rsp 144 +
STACK CFI INIT 17220 2b .cfa: $rsp 8 + .ra: .cfa -8 + ^
STACK CFI 17224 .cfa: $rsp 32 +
STACK CFI 1724a .cfa: $rsp 8 +
STACK CFI INIT 17250 46 .cfa: $rsp 8 + .ra: .cfa -8 + ^
STACK CFI 17254 .cfa: $rsp 64 +
STACK CFI 17295 .cfa: $rsp 8 +
STACK CFI INIT 172a0 17f .cfa: $rsp 8 + .ra: .cfa -8 + ^
STACK CFI 172a7 .cfa: $rsp 160 +
STACK CFI 173dc .cfa: $rsp 8 +
STACK CFI 173dd .cfa: $rsp 160 +
STACK CFI INIT 17420 2af .cfa: $rsp 8 + .ra: .cfa -8 + ^
STACK CFI 17427 .cfa: $rsp 400 +
STACK CFI 1768c .cfa: $rsp 8 +
STACK CFI 1768d .cfa: $rsp 400 +
STACK CFI INIT 176d0 121 .cfa: $rsp 8 + .ra: .cfa -8 + ^
STACK CFI 176d7 .cfa: $rsp 832 +
STACK CFI 177f0 .cfa: $rsp 8 +
STACK CFI INIT 17800 66 .cfa: $rsp 8 + .ra: .cfa -8 + ^
STACK CFI 17807 .cfa: $rsp 352 +
STACK CFI 17865 .cfa: $rsp 8 +
STACK CFI INIT 17870 35a .cfa: $rsp 8 + .ra: .cfa -8 + ^
STACK CFI 17871 .cfa: $rsp 16 +
STACK CFI 17878 $rbx: .cfa -16 + ^ .cfa: $rsp 2256 +
STACK CFI 17bc8 .cfa: $rsp 16 +
STACK CFI 17bc9 .cfa: $rsp 8 +
STACK CFI INIT 17bd0 36 .cfa: $rsp 8 + .ra: .cfa -8 + ^
STACK CFI 17bd4 .cfa: $rsp 32 +
STACK CFI 17c05 .cfa: $rsp 8 +
STACK CFI INIT 17c10 51 .cfa: $rsp 8 + .ra: .cfa -8 + ^
STACK CFI 17c14 .cfa: $rsp 64 +
STACK CFI 17c60 .cfa: $rsp 8 +
STACK CFI INIT 17c70 214 .cfa: $rsp 8 + .ra: .cfa -8 + ^
STACK CFI 17c77 .cfa: $rsp 1168 +
STACK CFI 17d07 .cfa: $rsp 8 +
STACK CFI 17d08 .cfa: $rsp 1168 +
STACK CFI INIT 17e90 7d .cfa: $rsp 8 + .ra: .cfa -8 + ^
STACK CFI 17e94 .cfa: $rsp 80 +
STACK CFI 17f0c .cfa: $rsp 8 +
STACK CFI INIT 17f10 1f .cfa: $rsp 8 + .ra: .cfa -8 + ^
STACK CFI 17f14 .cfa: $rsp 20 +
STACK CFI 17f2e .cfa: $rsp 8 +
STACK CFI INIT 17f30 53 .cfa: $rsp 8 + .ra: .cfa -8 + ^
STACK CFI 17f34 .cfa: $rsp 48 +
STACK CFI 17f82 .cfa: $rsp 8 +
STACK CFI INIT 17f90 f .cfa: $rsp 8 + .ra: .cfa -8 + ^
STACK CFI 17f91 .cfa: $rsp 16 +
STACK CFI 17f9e .cfa: $rsp 8 +
STACK CFI INIT 17fa0 139 .cfa: $rsp 8 + .ra: .cfa -8 + ^
STACK CFI 17fa4 .cfa: $rsp 128 +
STACK CFI 180b5 .cfa: $rsp 8 +
STACK CFI 180b6 .cfa: $rsp 128 +
STACK CFI INIT 180e0 36 .cfa: $rsp 8 + .ra: .cfa -8 + ^
STACK CFI 180e4 .cfa: $rsp 32 +
STACK CFI 18115 .cfa: $rsp 8 +
STACK CFI INIT 18120 4b .cfa: $rsp 8 + .ra: .cfa -8 + ^
STACK CFI 18124 .cfa: $rsp 48 +
STACK CFI 1816a .cfa: $rsp 8 +
STACK CFI INIT 18170 24 .cfa: $rsp 8 + .ra: .cfa -8 + ^
STACK CFI 18174 .cfa: $rsp 48 +
STACK CFI 18193 .cfa: $rsp 8 +
STACK CFI INIT 181a0 50 .cfa: $rsp 8 + .ra: .cfa -8 + ^
STACK CFI 181a4 .cfa: $rsp 48 +
STACK CFI 181ef .cfa: $rsp 8 +
STACK CFI INIT 181f0 81 .cfa: $rsp 8 + .ra: .cfa -8 + ^
STACK CFI 181f4 .cfa: $rsp 80 +
STACK CFI 18253 .cfa: $rsp 8 +
STACK CFI 18254 .cfa: $rsp 80 +
STACK CFI INIT 18280 80 .cfa: $rsp 8 + .ra: .cfa -8 + ^
STACK CFI 18284 .cfa: $rsp 96 +
STACK CFI 182f2 .cfa: $rsp 8 +
STACK CFI 182f3 .cfa: $rsp 96 +
STACK CFI INIT 18300 30 .cfa: $rsp 8 + .ra: .cfa -8 + ^
STACK CFI 18304 .cfa: $rsp 48 +
STACK CFI 1832f .cfa: $rsp 8 +
STACK CFI INIT 18330 49 .cfa: $rsp 8 + .ra: .cfa -8 + ^
STACK CFI 18334 .cfa: $rsp 48 +
STACK CFI 18378 .cfa: $rsp 8 +
STACK CFI INIT 18380 32 .cfa: $rsp 8 + .ra: .cfa -8 + ^
STACK CFI 18384 .cfa: $rsp 32 +
STACK CFI 1839e .cfa: $rsp 8 +
STACK CFI 1839f .cfa: $rsp 32 +
STACK CFI INIT 183c0 10 .cfa: $rsp 8 + .ra: .cfa -8 + ^
STACK CFI 183c1 .cfa: $rsp 16 +
STACK CFI 183cf .cfa: $rsp 8 +
STACK CFI INIT 183d0 10 .cfa: $rsp 8 + .ra: .cfa -8 + ^
STACK CFI 183d1 .cfa: $rsp 16 +
STACK CFI 183df .cfa: $rsp 8 +
STACK CFI INIT 183e0 4d .cfa: $rsp 8 + .ra: .cfa -8 + ^
STACK CFI 183e4 .cfa: $rsp 32 +
STACK CFI 18403 .cfa: $rsp 8 +
STACK CFI 18404 .cfa: $rsp 32 +
STACK CFI INIT 18430 50 .cfa: $rsp 8 + .ra: .cfa -8 + ^
STACK CFI 18434 .cfa: $rsp 32 +
STACK CFI 1844a .cfa: $rsp 8 +
STACK CFI 1844b .cfa: $rsp 32 +
STACK CFI INIT 18480 10 .cfa: $rsp 8 + .ra: .cfa -8 + ^
STACK CFI 18481 .cfa: $rsp 16 +
STACK CFI 1848f .cfa: $rsp 8 +
STACK CFI INIT 18490 31 .cfa: $rsp 8 + .ra: .cfa -8 + ^
STACK CFI 18491 .cfa: $rsp 16 +
STACK CFI 184b2 .cfa: $rsp 8 +
STACK CFI 184b3 .cfa: $rsp 16 +
STACK CFI INIT 184d0 23 .cfa: $rsp 8 + .ra: .cfa -8 + ^
STACK CFI 184d1 .cfa: $rsp 16 +
STACK CFI 184e0 .cfa: $rsp 8 +
STACK CFI 184e1 .cfa: $rsp 16 +
STACK CFI INIT 18500 10 .cfa: $rsp 8 + .ra: .cfa -8 + ^
STACK CFI 18501 .cfa: $rsp 16 +
STACK CFI 1850f .cfa: $rsp 8 +
STACK CFI INIT 18510 10 .cfa: $rsp 8 + .ra: .cfa -8 + ^
STACK CFI 18511 .cfa: $rsp 16 +
STACK CFI 1851f .cfa: $rsp 8 +
STACK CFI INIT 18520 10 .cfa: $rsp 8 + .ra: .cfa -8 + ^
STACK CFI 18521 .cfa: $rsp 16 +
STACK CFI 1852f .cfa: $rsp 8 +
STACK CFI INIT 18530 10 .cfa: $rsp 8 + .ra: .cfa -8 + ^
STACK CFI 18531 .cfa: $rsp 16 +
STACK CFI 1853f .cfa: $rsp 8 +
STACK CFI INIT 18540 10 .cfa: $rsp 8 + .ra: .cfa -8 + ^
STACK CFI 18541 .cfa: $rsp 16 +
STACK CFI 1854f .cfa: $rsp 8 +
STACK CFI INIT 18550 7 .cfa: $rsp 8 + .ra: .cfa -8 + ^
STACK CFI 18551 .cfa: $rsp 16 +
STACK CFI 18556 .cfa: $rsp 8 +
STACK CFI INIT 18560 4d .cfa: $rsp 8 + .ra: .cfa -8 + ^
STACK CFI 18564 .cfa: $rsp 32 +
STACK CFI 18583 .cfa: $rsp 8 +
STACK CFI 18584 .cfa: $rsp 32 +
STACK CFI INIT 185b0 10 .cfa: $rsp 8 + .ra: .cfa -8 + ^
STACK CFI 185b1 .cfa: $rsp 16 +
STACK CFI 185bf .cfa: $rsp 8 +
STACK CFI INIT 185c0 55 .cfa: $rsp 8 + .ra: .cfa -8 + ^
STACK CFI 185c4 .cfa: $rsp 32 +
STACK CFI 185e3 .cfa: $rsp 8 +
STACK CFI 185e4 .cfa: $rsp 32 +
STACK CFI INIT 18620 6d .cfa: $rsp 8 + .ra: .cfa -8 + ^
STACK CFI 18624 .cfa: $rsp 48 +
STACK CFI 1864d .cfa: $rsp 8 +
STACK CFI 1864e .cfa: $rsp 48 +
STACK CFI INIT 18690 10 .cfa: $rsp 8 + .ra: .cfa -8 + ^
STACK CFI 18691 .cfa: $rsp 16 +
STACK CFI 1869f .cfa: $rsp 8 +
STACK CFI INIT 186a0 10 .cfa: $rsp 8 + .ra: .cfa -8 + ^
STACK CFI 186a1 .cfa: $rsp 16 +
STACK CFI 186af .cfa: $rsp 8 +
STACK CFI INIT 186b0 10 .cfa: $rsp 8 + .ra: .cfa -8 + ^
STACK CFI 186b1 .cfa: $rsp 16 +
STACK CFI 186bf .cfa: $rsp 8 +
STACK CFI INIT 186c0 10 .cfa: $rsp 8 + .ra: .cfa -8 + ^
STACK CFI 186c1 .cfa: $rsp 16 +
STACK CFI 186cf .cfa: $rsp 8 +
STACK CFI INIT 186d0 1d .cfa: $rsp 8 + .ra: .cfa -8 + ^
STACK CFI 186d4 .cfa: $rsp 32 +
STACK CFI 186ec .cfa: $rsp 8 +
STACK CFI INIT 186f0 2e .cfa: $rsp 8 + .ra: .cfa -8 + ^
STACK CFI 186f4 .cfa: $rsp 48 +
STACK CFI 1871d .cfa: $rsp 8 +
STACK CFI INIT 18720 298 .cfa: $rsp 8 + .ra: .cfa -8 + ^
STACK CFI 18727 .cfa: $rsp 288 +
STACK CFI 18990 .cfa: $rsp 8 +
STACK CFI 18991 .cfa: $rsp 288 +
STACK CFI INIT 189c0 11 .cfa: $rsp 8 + .ra: .cfa -8 + ^
STACK CFI 189c1 .cfa: $rsp 16 +
STACK CFI INIT 189e0 8 .cfa: $rsp 8 + .ra: .cfa -8 + ^
STACK CFI 189e1 .cfa: $rsp 16 +
STACK CFI INIT 189f0 84 .cfa: $rsp 8 + .ra: .cfa -8 + ^
STACK CFI 189f4 .cfa: $rsp 80 +
STACK CFI 18a73 .cfa: $rsp 8 +
STACK CFI INIT 18a80 af .cfa: $rsp 8 + .ra: .cfa -8 + ^
STACK CFI 18a84 .cfa: $rsp 80 +
STACK CFI 18b2e .cfa: $rsp 8 +
STACK CFI INIT 18b30 741 .cfa: $rsp 8 + .ra: .cfa -8 + ^
STACK CFI 18b37 .cfa: $rsp 640 +
STACK CFI 18c31 .cfa: $rsp 8 +
STACK CFI 18c32 .cfa: $rsp 640 +
STACK CFI INIT 19280 17 .cfa: $rsp 8 + .ra: .cfa -8 + ^
STACK CFI 19284 .cfa: $rsp 24 +
STACK CFI 19296 .cfa: $rsp 8 +
STACK CFI INIT 192a0 141 .cfa: $rsp 8 + .ra: .cfa -8 + ^
STACK CFI 192a7 .cfa: $rsp 160 +
STACK CFI 193cd .cfa: $rsp 8 +
STACK CFI 193ce .cfa: $rsp 160 +
STACK CFI INIT 193f0 25 .cfa: $rsp 8 + .ra: .cfa -8 + ^
STACK CFI 193f4 .cfa: $rsp 32 +
STACK CFI 19414 .cfa: $rsp 8 +
STACK CFI INIT 19420 c4 .cfa: $rsp 8 + .ra: .cfa -8 + ^
STACK CFI 19424 .cfa: $rsp 80 +
STACK CFI 194a6 .cfa: $rsp 8 +
STACK CFI 194a7 .cfa: $rsp 80 +
STACK CFI INIT 194f0 10 .cfa: $rsp 8 + .ra: .cfa -8 + ^
STACK CFI 194f1 .cfa: $rsp 16 +
STACK CFI 194ff .cfa: $rsp 8 +
STACK CFI INIT 19500 13e .cfa: $rsp 8 + .ra: .cfa -8 + ^
STACK CFI 19504 .cfa: $rsp 80 +
STACK CFI 1960e .cfa: $rsp 8 +
STACK CFI 1960f .cfa: $rsp 80 +
STACK CFI INIT 19640 69 .cfa: $rsp 8 + .ra: .cfa -8 + ^
STACK CFI 19644 .cfa: $rsp 64 +
STACK CFI 196a8 .cfa: $rsp 8 +
STACK CFI INIT 196b0 82 .cfa: $rsp 8 + .ra: .cfa -8 + ^
STACK CFI 196b4 .cfa: $rsp 80 +
STACK CFI 19731 .cfa: $rsp 8 +
STACK CFI INIT 19740 b .cfa: $rsp 8 + .ra: .cfa -8 + ^
STACK CFI 19741 .cfa: $rsp 16 +
STACK CFI 1974a .cfa: $rsp 8 +
STACK CFI INIT 19750 e .cfa: $rsp 8 + .ra: .cfa -8 + ^
STACK CFI 19751 .cfa: $rsp 16 +
STACK CFI 1975d .cfa: $rsp 8 +
STACK CFI INIT 19760 50 .cfa: $rsp 8 + .ra: .cfa -8 + ^
STACK CFI 19764 .cfa: $rsp 40 +
STACK CFI 197af .cfa: $rsp 8 +
STACK CFI INIT 197b0 43 .cfa: $rsp 8 + .ra: .cfa -8 + ^
STACK CFI 197b4 .cfa: $rsp 56 +
STACK CFI 197f2 .cfa: $rsp 8 +
STACK CFI INIT 19800 34 .cfa: $rsp 8 + .ra: .cfa -8 + ^
STACK CFI 19804 .cfa: $rsp 32 +
STACK CFI 19833 .cfa: $rsp 8 +
STACK CFI INIT 19840 76 .cfa: $rsp 8 + .ra: .cfa -8 + ^
STACK CFI 19844 .cfa: $rsp 72 +
STACK CFI 198b5 .cfa: $rsp 8 +
STACK CFI INIT 198c0 24 .cfa: $rsp 8 + .ra: .cfa -8 + ^
STACK CFI 198c4 .cfa: $rsp 32 +
STACK CFI 198e3 .cfa: $rsp 8 +
STACK CFI INIT 198f0 24 .cfa: $rsp 8 + .ra: .cfa -8 + ^
STACK CFI 198f4 .cfa: $rsp 32 +
STACK CFI 19913 .cfa: $rsp 8 +
STACK CFI INIT 19920 d .cfa: $rsp 8 + .ra: .cfa -8 + ^
STACK CFI 19921 .cfa: $rsp 16 +
STACK CFI 1992c .cfa: $rsp 8 +
STACK CFI INIT 19930 d .cfa: $rsp 8 + .ra: .cfa -8 + ^
STACK CFI 19931 .cfa: $rsp 16 +
STACK CFI 1993c .cfa: $rsp 8 +
STACK CFI INIT 19940 1f .cfa: $rsp 8 + .ra: .cfa -8 + ^
STACK CFI 19944 .cfa: $rsp 24 +
STACK CFI 1995e .cfa: $rsp 8 +
STACK CFI INIT 19960 1f .cfa: $rsp 8 + .ra: .cfa -8 + ^
STACK CFI 19964 .cfa: $rsp 24 +
STACK CFI 1997e .cfa: $rsp 8 +
STACK CFI INIT 19980 e0 .cfa: $rsp 8 + .ra: .cfa -8 + ^
STACK CFI 19984 .cfa: $rsp 96 +
STACK CFI 19a42 .cfa: $rsp 8 +
STACK CFI 19a43 .cfa: $rsp 96 +
STACK CFI INIT 19a60 5d .cfa: $rsp 8 + .ra: .cfa -8 + ^
STACK CFI 19a64 .cfa: $rsp 48 +
STACK CFI 19abc .cfa: $rsp 8 +
STACK CFI INIT 19ac0 93 .cfa: $rsp 8 + .ra: .cfa -8 + ^
STACK CFI 19ac4 .cfa: $rsp 80 +
STACK CFI 19b41 .cfa: $rsp 8 +
STACK CFI 19b42 .cfa: $rsp 80 +
STACK CFI INIT 19b60 9c .cfa: $rsp 8 + .ra: .cfa -8 + ^
STACK CFI 19b64 .cfa: $rsp 64 +
STACK CFI 19bea .cfa: $rsp 8 +
STACK CFI 19beb .cfa: $rsp 64 +
STACK CFI INIT 19c00 22 .cfa: $rsp 8 + .ra: .cfa -8 + ^
STACK CFI 19c04 .cfa: $rsp 32 +
STACK CFI 19c21 .cfa: $rsp 8 +
STACK CFI INIT 19c30 ce .cfa: $rsp 8 + .ra: .cfa -8 + ^
STACK CFI 19c34 .cfa: $rsp 96 +
STACK CFI 19cfd .cfa: $rsp 8 +
STACK CFI INIT 19d00 6a .cfa: $rsp 8 + .ra: .cfa -8 + ^
STACK CFI 19d04 .cfa: $rsp 48 +
STACK CFI 19d5d .cfa: $rsp 8 +
STACK CFI 19d5e .cfa: $rsp 48 +
STACK CFI INIT 19d70 44 .cfa: $rsp 8 + .ra: .cfa -8 + ^
STACK CFI 19d74 .cfa: $rsp 48 +
STACK CFI 19db3 .cfa: $rsp 8 +
STACK CFI INIT 19dc0 68 .cfa: $rsp 8 + .ra: .cfa -8 + ^
STACK CFI 19dc4 .cfa: $rsp 48 +
STACK CFI 19e27 .cfa: $rsp 8 +
STACK CFI INIT 19e30 57 .cfa: $rsp 8 + .ra: .cfa -8 + ^
STACK CFI 19e34 .cfa: $rsp 72 +
STACK CFI 19e86 .cfa: $rsp 8 +
STACK CFI INIT 19e90 1b .cfa: $rsp 8 + .ra: .cfa -8 + ^
STACK CFI 19e94 .cfa: $rsp 24 +
STACK CFI 19eaa .cfa: $rsp 8 +
STACK CFI INIT 19eb0 1b .cfa: $rsp 8 + .ra: .cfa -8 + ^
STACK CFI 19eb4 .cfa: $rsp 32 +
STACK CFI 19eca .cfa: $rsp 8 +
STACK CFI INIT 19ed0 b .cfa: $rsp 8 + .ra: .cfa -8 + ^
STACK CFI 19ed1 .cfa: $rsp 16 +
STACK CFI 19eda .cfa: $rsp 8 +
STACK CFI INIT 19ee0 b .cfa: $rsp 8 + .ra: .cfa -8 + ^
STACK CFI 19ee1 .cfa: $rsp 16 +
STACK CFI 19eea .cfa: $rsp 8 +
STACK CFI INIT 19ef0 1b .cfa: $rsp 8 + .ra: .cfa -8 + ^
STACK CFI 19ef4 .cfa: $rsp 24 +
STACK CFI 19f0a .cfa: $rsp 8 +
STACK CFI INIT 19f10 25 .cfa: $rsp 8 + .ra: .cfa -8 + ^
STACK CFI 19f14 .cfa: $rsp 32 +
STACK CFI 19f34 .cfa: $rsp 8 +
STACK CFI INIT 19f40 32 .cfa: $rsp 8 + .ra: .cfa -8 + ^
STACK CFI 19f44 .cfa: $rsp 32 +
STACK CFI 19f71 .cfa: $rsp 8 +
STACK CFI INIT 19f80 32 .cfa: $rsp 8 + .ra: .cfa -8 + ^
STACK CFI 19f84 .cfa: $rsp 32 +
STACK CFI 19fb1 .cfa: $rsp 8 +
STACK CFI INIT 19fc0 32 .cfa: $rsp 8 + .ra: .cfa -8 + ^
STACK CFI 19fc4 .cfa: $rsp 32 +
STACK CFI 19ff1 .cfa: $rsp 8 +
STACK CFI INIT 1a000 25 .cfa: $rsp 8 + .ra: .cfa -8 + ^
STACK CFI 1a004 .cfa: $rsp 32 +
STACK CFI 1a024 .cfa: $rsp 8 +
STACK CFI INIT 1a030 b .cfa: $rsp 8 + .ra: .cfa -8 + ^
STACK CFI 1a031 .cfa: $rsp 16 +
STACK CFI 1a03a .cfa: $rsp 8 +
STACK CFI INIT 1a040 b .cfa: $rsp 8 + .ra: .cfa -8 + ^
STACK CFI 1a041 .cfa: $rsp 16 +
STACK CFI 1a04a .cfa: $rsp 8 +
STACK CFI INIT 1a050 25 .cfa: $rsp 8 + .ra: .cfa -8 + ^
STACK CFI 1a054 .cfa: $rsp 32 +
STACK CFI 1a074 .cfa: $rsp 8 +
STACK CFI INIT 1a080 2f .cfa: $rsp 8 + .ra: .cfa -8 + ^
STACK CFI 1a084 .cfa: $rsp 32 +
STACK CFI 1a0ae .cfa: $rsp 8 +
STACK CFI INIT 1a0b0 1e .cfa: $rsp 8 + .ra: .cfa -8 + ^
STACK CFI 1a0b4 .cfa: $rsp 24 +
STACK CFI 1a0cd .cfa: $rsp 8 +
STACK CFI INIT 1a0d0 22 .cfa: $rsp 8 + .ra: .cfa -8 + ^
STACK CFI 1a0d4 .cfa: $rsp 32 +
STACK CFI 1a0f1 .cfa: $rsp 8 +
STACK CFI INIT 1a100 30 .cfa: $rsp 8 + .ra: .cfa -8 + ^
STACK CFI 1a104 .cfa: $rsp 40 +
STACK CFI 1a12f .cfa: $rsp 8 +
STACK CFI INIT 1a130 99 .cfa: $rsp 8 + .ra: .cfa -8 + ^
STACK CFI 1a134 .cfa: $rsp 96 +
STACK CFI 1a190 .cfa: $rsp 8 +
STACK CFI 1a191 .cfa: $rsp 96 +
STACK CFI INIT 1a1d0 91 .cfa: $rsp 8 + .ra: .cfa -8 + ^
STACK CFI 1a1d4 .cfa: $rsp 80 +
STACK CFI 1a260 .cfa: $rsp 8 +
STACK CFI INIT 1a270 4a .cfa: $rsp 8 + .ra: .cfa -8 + ^
STACK CFI 1a274 .cfa: $rsp 64 +
STACK CFI 1a2b9 .cfa: $rsp 8 +
STACK CFI INIT 1a2c0 e .cfa: $rsp 8 + .ra: .cfa -8 + ^
STACK CFI 1a2c1 .cfa: $rsp 16 +
STACK CFI 1a2cd .cfa: $rsp 8 +
STACK CFI INIT 1a2d0 26 .cfa: $rsp 8 + .ra: .cfa -8 + ^
STACK CFI 1a2d4 .cfa: $rsp 32 +
STACK CFI 1a2f5 .cfa: $rsp 8 +
STACK CFI INIT 1a300 29a .cfa: $rsp 8 + .ra: .cfa -8 + ^
STACK CFI 1a307 .cfa: $rsp 336 +
STACK CFI 1a46a .cfa: $rsp 8 +
STACK CFI 1a46b .cfa: $rsp 336 +
STACK CFI INIT 1a5a0 3b .cfa: $rsp 8 + .ra: .cfa -8 + ^
STACK CFI 1a5a4 .cfa: $rsp 48 +
STACK CFI 1a5da .cfa: $rsp 8 +
STACK CFI INIT 1a5e0 4f .cfa: $rsp 8 + .ra: .cfa -8 + ^
STACK CFI 1a5e4 .cfa: $rsp 64 +
STACK CFI 1a62e .cfa: $rsp 8 +
STACK CFI INIT 1a630 4d .cfa: $rsp 8 + .ra: .cfa -8 + ^
STACK CFI 1a634 .cfa: $rsp 80 +
STACK CFI 1a67c .cfa: $rsp 8 +
STACK CFI INIT 1a680 2d .cfa: $rsp 8 + .ra: .cfa -8 + ^
STACK CFI 1a684 .cfa: $rsp 40 +
STACK CFI 1a6ac .cfa: $rsp 8 +
STACK CFI INIT 1a6b0 75 .cfa: $rsp 8 + .ra: .cfa -8 + ^
STACK CFI 1a6b4 .cfa: $rsp 80 +
STACK CFI 1a724 .cfa: $rsp 8 +
STACK CFI INIT 1a730 4d .cfa: $rsp 8 + .ra: .cfa -8 + ^
STACK CFI 1a734 .cfa: $rsp 64 +
STACK CFI 1a77c .cfa: $rsp 8 +
STACK CFI INIT 1a780 4d .cfa: $rsp 8 + .ra: .cfa -8 + ^
STACK CFI 1a784 .cfa: $rsp 64 +
STACK CFI 1a7cc .cfa: $rsp 8 +
STACK CFI INIT 1a7d0 3e .cfa: $rsp 8 + .ra: .cfa -8 + ^
STACK CFI 1a7d4 .cfa: $rsp 48 +
STACK CFI 1a80d .cfa: $rsp 8 +
STACK CFI INIT 1a810 72 .cfa: $rsp 8 + .ra: .cfa -8 + ^
STACK CFI 1a814 .cfa: $rsp 96 +
STACK CFI 1a881 .cfa: $rsp 8 +
STACK CFI INIT 1a890 48 .cfa: $rsp 8 + .ra: .cfa -8 + ^
STACK CFI 1a894 .cfa: $rsp 48 +
STACK CFI 1a8d7 .cfa: $rsp 8 +
STACK CFI INIT 1a8e0 48 .cfa: $rsp 8 + .ra: .cfa -8 + ^
STACK CFI 1a8e4 .cfa: $rsp 48 +
STACK CFI 1a927 .cfa: $rsp 8 +
STACK CFI INIT 1a930 57 .cfa: $rsp 8 + .ra: .cfa -8 + ^
STACK CFI 1a934 .cfa: $rsp 64 +
STACK CFI 1a986 .cfa: $rsp 8 +
STACK CFI INIT 1a990 6b .cfa: $rsp 8 + .ra: .cfa -8 + ^
STACK CFI 1a994 .cfa: $rsp 80 +
STACK CFI 1a9fa .cfa: $rsp 8 +
STACK CFI INIT 1aa00 6e .cfa: $rsp 8 + .ra: .cfa -8 + ^
STACK CFI 1aa04 .cfa: $rsp 48 +
STACK CFI 1aa6d .cfa: $rsp 8 +
STACK CFI INIT 1aa70 11 .cfa: $rsp 8 + .ra: .cfa -8 + ^
STACK CFI 1aa71 .cfa: $rsp 16 +
STACK CFI 1aa80 .cfa: $rsp 8 +
STACK CFI INIT 1aa90 25 .cfa: $rsp 8 + .ra: .cfa -8 + ^
STACK CFI 1aa94 .cfa: $rsp 32 +
STACK CFI 1aab4 .cfa: $rsp 8 +
STACK CFI INIT 1aac0 b .cfa: $rsp 8 + .ra: .cfa -8 + ^
STACK CFI 1aac1 .cfa: $rsp 16 +
STACK CFI 1aaca .cfa: $rsp 8 +
STACK CFI INIT 1aad0 6f .cfa: $rsp 8 + .ra: .cfa -8 + ^
STACK CFI 1aad4 .cfa: $rsp 80 +
STACK CFI 1ab3e .cfa: $rsp 8 +
STACK CFI INIT 1ab40 6f .cfa: $rsp 8 + .ra: .cfa -8 + ^
STACK CFI 1ab44 .cfa: $rsp 80 +
STACK CFI 1abae .cfa: $rsp 8 +
STACK CFI INIT 1abb0 2f .cfa: $rsp 8 + .ra: .cfa -8 + ^
STACK CFI 1abb4 .cfa: $rsp 40 +
STACK CFI 1abde .cfa: $rsp 8 +
STACK CFI INIT 1abe0 2f .cfa: $rsp 8 + .ra: .cfa -8 + ^
STACK CFI 1abe4 .cfa: $rsp 40 +
STACK CFI 1ac0e .cfa: $rsp 8 +
STACK CFI INIT 1ac10 5e .cfa: $rsp 8 + .ra: .cfa -8 + ^
STACK CFI 1ac14 .cfa: $rsp 32 +
STACK CFI 1ac5c .cfa: $rsp 8 +
STACK CFI 1ac5d .cfa: $rsp 32 +
STACK CFI INIT 1ac70 70 .cfa: $rsp 8 + .ra: .cfa -8 + ^
STACK CFI 1ac74 .cfa: $rsp 88 +
STACK CFI 1acdf .cfa: $rsp 8 +
STACK CFI INIT 1ace0 71 .cfa: $rsp 8 + .ra: .cfa -8 + ^
STACK CFI 1ace4 .cfa: $rsp 88 +
STACK CFI 1ad50 .cfa: $rsp 8 +
STACK CFI INIT 1ad60 1bc .cfa: $rsp 8 + .ra: .cfa -8 + ^
STACK CFI 1ad67 .cfa: $rsp 240 +
STACK CFI 1aee0 .cfa: $rsp 8 +
STACK CFI 1aee1 .cfa: $rsp 240 +
STACK CFI INIT 1af20 e1 .cfa: $rsp 8 + .ra: .cfa -8 + ^
STACK CFI 1af24 .cfa: $rsp 96 +
STACK CFI 1afef .cfa: $rsp 8 +
STACK CFI 1aff0 .cfa: $rsp 96 +
STACK CFI INIT 1b010 156 .cfa: $rsp 8 + .ra: .cfa -8 + ^
STACK CFI 1b017 .cfa: $rsp 224 +
STACK CFI INIT 1b170 15a .cfa: $rsp 8 + .ra: .cfa -8 + ^
STACK CFI 1b177 .cfa: $rsp 224 +
STACK CFI INIT 1b2d0 1e .cfa: $rsp 8 + .ra: .cfa -8 + ^
STACK CFI 1b2d4 .cfa: $rsp 10 +
STACK CFI 1b2ed .cfa: $rsp 8 +
STACK CFI INIT 1b2f0 22 .cfa: $rsp 8 + .ra: .cfa -8 + ^
STACK CFI 1b2f4 .cfa: $rsp 9 +
STACK CFI 1b311 .cfa: $rsp 8 +
STACK CFI INIT 1b320 e .cfa: $rsp 8 + .ra: .cfa -8 + ^
STACK CFI 1b321 .cfa: $rsp 16 +
STACK CFI 1b32d .cfa: $rsp 8 +
STACK CFI INIT 1b330 b .cfa: $rsp 8 + .ra: .cfa -8 + ^
STACK CFI 1b331 .cfa: $rsp 16 +
STACK CFI 1b33a .cfa: $rsp 8 +
STACK CFI INIT 1b340 1b .cfa: $rsp 8 + .ra: .cfa -8 + ^
STACK CFI 1b344 .cfa: $rsp 24 +
STACK CFI 1b35a .cfa: $rsp 8 +
STACK CFI INIT 1b360 1a .cfa: $rsp 8 + .ra: .cfa -8 + ^
STACK CFI INIT 1b380 12 .cfa: $rsp 8 + .ra: .cfa -8 + ^
STACK CFI 1b384 .cfa: $rsp 9 +
STACK CFI 1b391 .cfa: $rsp 8 +
STACK CFI INIT 1b3a0 12 .cfa: $rsp 8 + .ra: .cfa -8 + ^
STACK CFI INIT 1b3c0 32 .cfa: $rsp 8 + .ra: .cfa -8 + ^
STACK CFI 1b3c4 .cfa: $rsp 32 +
STACK CFI 1b3f1 .cfa: $rsp 8 +
STACK CFI INIT 1b400 10 .cfa: $rsp 8 + .ra: .cfa -8 + ^
STACK CFI 1b401 .cfa: $rsp 16 +
STACK CFI 1b40f .cfa: $rsp 8 +
STACK CFI INIT 1b410 16 .cfa: $rsp 8 + .ra: .cfa -8 + ^
STACK CFI 1b411 .cfa: $rsp 16 +
STACK CFI 1b425 .cfa: $rsp 8 +
STACK CFI INIT 1b430 c8 .cfa: $rsp 8 + .ra: .cfa -8 + ^
STACK CFI 1b434 .cfa: $rsp 64 +
STACK CFI 1b4d6 .cfa: $rsp 8 +
STACK CFI 1b4d7 .cfa: $rsp 64 +
STACK CFI INIT 1b500 6cf .cfa: $rsp 8 + .ra: .cfa -8 + ^
STACK CFI 1b504 .cfa: $rsp 32 +
STACK CFI 1bbce .cfa: $rsp 8 +
STACK CFI INIT 1bbd0 203d .cfa: $rsp 8 + .ra: .cfa -8 + ^
STACK CFI 1bbd7 .cfa: $rsp 3232 +
STACK CFI 1cfc4 .cfa: $rsp 8 +
STACK CFI 1cfc5 .cfa: $rsp 3232 +
STACK CFI INIT 1dc10 75 .cfa: $rsp 8 + .ra: .cfa -8 + ^
STACK CFI 1dc14 .cfa: $rsp 80 +
STACK CFI 1dc84 .cfa: $rsp 8 +
STACK CFI INIT 1dc90 40 .cfa: $rsp 8 + .ra: .cfa -8 + ^
STACK CFI 1dc94 .cfa: $rsp 48 +
STACK CFI 1dccf .cfa: $rsp 8 +
STACK CFI INIT 1dcd0 4f .cfa: $rsp 8 + .ra: .cfa -8 + ^
STACK CFI 1dcd4 .cfa: $rsp 64 +
STACK CFI 1dd1e .cfa: $rsp 8 +
STACK CFI INIT 1dd20 4f .cfa: $rsp 8 + .ra: .cfa -8 + ^
STACK CFI 1dd24 .cfa: $rsp 64 +
STACK CFI 1dd6e .cfa: $rsp 8 +
STACK CFI INIT 1dd70 2f .cfa: $rsp 8 + .ra: .cfa -8 + ^
STACK CFI 1dd74 .cfa: $rsp 40 +
STACK CFI 1dd9e .cfa: $rsp 8 +
STACK CFI INIT 1dda0 84 .cfa: $rsp 8 + .ra: .cfa -8 + ^
STACK CFI 1dda4 .cfa: $rsp 80 +
STACK CFI 1de23 .cfa: $rsp 8 +
STACK CFI INIT 1de30 af .cfa: $rsp 8 + .ra: .cfa -8 + ^
STACK CFI 1de34 .cfa: $rsp 80 +
STACK CFI 1dede .cfa: $rsp 8 +
STACK CFI INIT 1dee0 25 .cfa: $rsp 8 + .ra: .cfa -8 + ^
STACK CFI 1dee4 .cfa: $rsp 32 +
STACK CFI 1df04 .cfa: $rsp 8 +
STACK CFI INIT 1df10 d .cfa: $rsp 8 + .ra: .cfa -8 + ^
STACK CFI 1df11 .cfa: $rsp 16 +
STACK CFI 1df1c .cfa: $rsp 8 +
STACK CFI INIT 1df20 d .cfa: $rsp 8 + .ra: .cfa -8 + ^
STACK CFI 1df21 .cfa: $rsp 16 +
STACK CFI 1df2c .cfa: $rsp 8 +
STACK CFI INIT 1df30 25 .cfa: $rsp 8 + .ra: .cfa -8 + ^
STACK CFI 1df34 .cfa: $rsp 40 +
STACK CFI 1df54 .cfa: $rsp 8 +
STACK CFI INIT 1df60 d .cfa: $rsp 8 + .ra: .cfa -8 + ^
STACK CFI 1df61 .cfa: $rsp 16 +
STACK CFI 1df6c .cfa: $rsp 8 +
STACK CFI INIT 1df70 d .cfa: $rsp 8 + .ra: .cfa -8 + ^
STACK CFI 1df71 .cfa: $rsp 16 +
STACK CFI 1df7c .cfa: $rsp 8 +
STACK CFI INIT 1df80 d .cfa: $rsp 8 + .ra: .cfa -8 + ^
STACK CFI 1df81 .cfa: $rsp 16 +
STACK CFI 1df8c .cfa: $rsp 8 +
STACK CFI INIT 1df90 22 .cfa: $rsp 8 + .ra: .cfa -8 + ^
STACK CFI 1df94 .cfa: $rsp 32 +
STACK CFI 1dfb1 .cfa: $rsp 8 +
STACK CFI INIT 1dfc0 2c .cfa: $rsp 8 + .ra: .cfa -8 + ^
STACK CFI 1dfc4 .cfa: $rsp 48 +
STACK CFI 1dfeb .cfa: $rsp 8 +
STACK CFI INIT 1dff0 4c .cfa: $rsp 8 + .ra: .cfa -8 + ^
STACK CFI 1dff4 .cfa: $rsp 48 +
STACK CFI 1e02c .cfa: $rsp 8 +
STACK CFI 1e02d .cfa: $rsp 48 +
STACK CFI INIT 1e040 1f .cfa: $rsp 8 + .ra: .cfa -8 + ^
STACK CFI 1e044 .cfa: $rsp 24 +
STACK CFI 1e05e .cfa: $rsp 8 +
STACK CFI INIT 1e060 1f .cfa: $rsp 8 + .ra: .cfa -8 + ^
STACK CFI 1e064 .cfa: $rsp 24 +
STACK CFI 1e07e .cfa: $rsp 8 +
STACK CFI INIT 1e080 1f .cfa: $rsp 8 + .ra: .cfa -8 + ^
STACK CFI 1e084 .cfa: $rsp 24 +
STACK CFI 1e09e .cfa: $rsp 8 +
STACK CFI INIT 1e0a0 1f .cfa: $rsp 8 + .ra: .cfa -8 + ^
STACK CFI 1e0a4 .cfa: $rsp 24 +
STACK CFI 1e0be .cfa: $rsp 8 +
STACK CFI INIT 1e0c0 1f .cfa: $rsp 8 + .ra: .cfa -8 + ^
STACK CFI 1e0c4 .cfa: $rsp 24 +
STACK CFI 1e0de .cfa: $rsp 8 +
STACK CFI INIT 1e0e0 1f .cfa: $rsp 8 + .ra: .cfa -8 + ^
STACK CFI 1e0e4 .cfa: $rsp 24 +
STACK CFI 1e0fe .cfa: $rsp 8 +
STACK CFI INIT 1e100 10 .cfa: $rsp 8 + .ra: .cfa -8 + ^
STACK CFI 1e101 .cfa: $rsp 16 +
STACK CFI 1e10f .cfa: $rsp 8 +
STACK CFI INIT 1e110 1d .cfa: $rsp 8 + .ra: .cfa -8 + ^
STACK CFI 1e114 .cfa: $rsp 32 +
STACK CFI 1e12c .cfa: $rsp 8 +
STACK CFI INIT 1e130 70 .cfa: $rsp 8 + .ra: .cfa -8 + ^
STACK CFI 1e134 .cfa: $rsp 80 +
STACK CFI 1e19f .cfa: $rsp 8 +
STACK CFI INIT 1e1a0 ca .cfa: $rsp 8 + .ra: .cfa -8 + ^
STACK CFI 1e1a4 .cfa: $rsp 96 +
STACK CFI 1e269 .cfa: $rsp 8 +
STACK CFI INIT 1e270 1d .cfa: $rsp 8 + .ra: .cfa -8 + ^
STACK CFI 1e274 .cfa: $rsp 32 +
STACK CFI 1e28c .cfa: $rsp 8 +
STACK CFI INIT 1e290 1d .cfa: $rsp 8 + .ra: .cfa -8 + ^
STACK CFI 1e294 .cfa: $rsp 32 +
STACK CFI 1e2ac .cfa: $rsp 8 +
STACK CFI INIT 1e2b0 71 .cfa: $rsp 8 + .ra: .cfa -8 + ^
STACK CFI 1e2b4 .cfa: $rsp 80 +
STACK CFI INIT 1e330 2f .cfa: $rsp 8 + .ra: .cfa -8 + ^
STACK CFI 1e334 .cfa: $rsp 32 +
STACK CFI 1e35e .cfa: $rsp 8 +
STACK CFI INIT 1e360 2f .cfa: $rsp 8 + .ra: .cfa -8 + ^
STACK CFI 1e364 .cfa: $rsp 32 +
STACK CFI 1e38e .cfa: $rsp 8 +
STACK CFI INIT 1e390 b7 .cfa: $rsp 8 + .ra: .cfa -8 + ^
STACK CFI 1e394 .cfa: $rsp 64 +
STACK CFI 1e424 .cfa: $rsp 8 +
STACK CFI 1e425 .cfa: $rsp 64 +
STACK CFI INIT 1e450 2a .cfa: $rsp 8 + .ra: .cfa -8 + ^
STACK CFI 1e454 .cfa: $rsp 32 +
STACK CFI 1e479 .cfa: $rsp 8 +
STACK CFI INIT 1e480 57 .cfa: $rsp 8 + .ra: .cfa -8 + ^
STACK CFI 1e484 .cfa: $rsp 72 +
STACK CFI 1e4d6 .cfa: $rsp 8 +
STACK CFI INIT 1e4e0 57 .cfa: $rsp 8 + .ra: .cfa -8 + ^
STACK CFI 1e4e4 .cfa: $rsp 72 +
STACK CFI 1e536 .cfa: $rsp 8 +
STACK CFI INIT 1e540 57 .cfa: $rsp 8 + .ra: .cfa -8 + ^
STACK CFI 1e544 .cfa: $rsp 72 +
STACK CFI 1e596 .cfa: $rsp 8 +
STACK CFI INIT 1e5a0 57 .cfa: $rsp 8 + .ra: .cfa -8 + ^
STACK CFI 1e5a4 .cfa: $rsp 72 +
STACK CFI 1e5f6 .cfa: $rsp 8 +
STACK CFI INIT 1e600 57 .cfa: $rsp 8 + .ra: .cfa -8 + ^
STACK CFI 1e604 .cfa: $rsp 72 +
STACK CFI 1e656 .cfa: $rsp 8 +
STACK CFI INIT 1e660 76 .cfa: $rsp 8 + .ra: .cfa -8 + ^
STACK CFI 1e664 .cfa: $rsp 72 +
STACK CFI 1e6d5 .cfa: $rsp 8 +
STACK CFI INIT 1e6e0 19 .cfa: $rsp 8 + .ra: .cfa -8 + ^
STACK CFI 1e6e4 .cfa: $rsp 9 +
STACK CFI 1e6f8 .cfa: $rsp 8 +
STACK CFI INIT 1e700 32 .cfa: $rsp 8 + .ra: .cfa -8 + ^
STACK CFI 1e704 .cfa: $rsp 32 +
STACK CFI 1e731 .cfa: $rsp 8 +
STACK CFI INIT 1e740 36 .cfa: $rsp 8 + .ra: .cfa -8 + ^
STACK CFI 1e744 .cfa: $rsp 32 +
STACK CFI 1e775 .cfa: $rsp 8 +
STACK CFI INIT 1e780 43 .cfa: $rsp 8 + .ra: .cfa -8 + ^
STACK CFI 1e784 .cfa: $rsp 56 +
STACK CFI 1e7c2 .cfa: $rsp 8 +
STACK CFI INIT 1e7d0 81 .cfa: $rsp 8 + .ra: .cfa -8 + ^
STACK CFI 1e7d4 .cfa: $rsp 56 +
STACK CFI 1e850 .cfa: $rsp 8 +
STACK CFI INIT 1e860 287 .cfa: $rsp 8 + .ra: .cfa -8 + ^
STACK CFI 1e867 .cfa: $rsp 192 +
STACK CFI 1ea23 .cfa: $rsp 8 +
STACK CFI 1ea24 .cfa: $rsp 192 +
STACK CFI INIT 1eaf0 3d .cfa: $rsp 8 + .ra: .cfa -8 + ^
STACK CFI 1eaf4 .cfa: $rsp 48 +
STACK CFI 1eb2c .cfa: $rsp 8 +
STACK CFI INIT 1eb30 b7 .cfa: $rsp 8 + .ra: .cfa -8 + ^
STACK CFI 1eb34 .cfa: $rsp 80 +
STACK CFI 1ebd6 .cfa: $rsp 8 +
STACK CFI 1ebd7 .cfa: $rsp 80 +
STACK CFI INIT 1ebf0 af .cfa: $rsp 8 + .ra: .cfa -8 + ^
STACK CFI 1ebf4 .cfa: $rsp 96 +
STACK CFI 1ec8e .cfa: $rsp 8 +
STACK CFI 1ec8f .cfa: $rsp 96 +
STACK CFI INIT 1eca0 c5 .cfa: $rsp 8 + .ra: .cfa -8 + ^
STACK CFI 1eca4 .cfa: $rsp 96 +
STACK CFI 1ed54 .cfa: $rsp 8 +
STACK CFI 1ed55 .cfa: $rsp 96 +
STACK CFI INIT 1ed70 28 .cfa: $rsp 8 + .ra: .cfa -8 + ^
STACK CFI 1ed74 .cfa: $rsp 24 +
STACK CFI 1ed97 .cfa: $rsp 8 +
STACK CFI INIT 1eda0 29 .cfa: $rsp 8 + .ra: .cfa -8 + ^
STACK CFI 1eda4 .cfa: $rsp 24 +
STACK CFI 1edc8 .cfa: $rsp 8 +
STACK CFI INIT 1edd0 9b .cfa: $rsp 8 + .ra: .cfa -8 + ^
STACK CFI 1edd4 .cfa: $rsp 48 +
STACK CFI 1ee6a .cfa: $rsp 8 +
STACK CFI INIT 1ee70 7 .cfa: $rsp 8 + .ra: .cfa -8 + ^
STACK CFI 1ee71 .cfa: $rsp 16 +
STACK CFI 1ee76 .cfa: $rsp 8 +
STACK CFI INIT 1ee80 7 .cfa: $rsp 8 + .ra: .cfa -8 + ^
STACK CFI 1ee81 .cfa: $rsp 16 +
STACK CFI 1ee86 .cfa: $rsp 8 +
STACK CFI INIT 1ee90 7 .cfa: $rsp 8 + .ra: .cfa -8 + ^
STACK CFI 1ee91 .cfa: $rsp 16 +
STACK CFI 1ee96 .cfa: $rsp 8 +
STACK CFI INIT 1eea0 6d .cfa: $rsp 8 + .ra: .cfa -8 + ^
STACK CFI 1eea4 .cfa: $rsp 48 +
STACK CFI 1eecd .cfa: $rsp 8 +
STACK CFI 1eece .cfa: $rsp 48 +
STACK CFI INIT 1ef10 7 .cfa: $rsp 8 + .ra: .cfa -8 + ^
STACK CFI 1ef11 .cfa: $rsp 16 +
STACK CFI 1ef16 .cfa: $rsp 8 +
STACK CFI INIT 1ef20 4a .cfa: $rsp 8 + .ra: .cfa -8 + ^
STACK CFI 1ef24 .cfa: $rsp 64 +
STACK CFI 1ef69 .cfa: $rsp 8 +
STACK CFI INIT 1ef70 e .cfa: $rsp 8 + .ra: .cfa -8 + ^
STACK CFI 1ef71 .cfa: $rsp 16 +
STACK CFI 1ef7d .cfa: $rsp 8 +
STACK CFI INIT 1ef80 26 .cfa: $rsp 8 + .ra: .cfa -8 + ^
STACK CFI 1ef84 .cfa: $rsp 32 +
STACK CFI 1efa5 .cfa: $rsp 8 +
STACK CFI INIT 1efb0 3 .cfa: $rsp 8 + .ra: .cfa -8 + ^
STACK CFI 1efb1 .cfa: $rsp 16 +
STACK CFI 1efb2 .cfa: $rsp 8 +
STACK CFI INIT 1efc0 80 .cfa: $rsp 8 + .ra: .cfa -8 + ^
STACK CFI 1efc7 .cfa: $rsp 304 +
STACK CFI 1f03f .cfa: $rsp 8 +
STACK CFI INIT 1f040 1eb .cfa: $rsp 8 + .ra: .cfa -8 + ^
STACK CFI 1f047 .cfa: $rsp 592 +
STACK CFI 1f1f8 .cfa: $rsp 8 +
STACK CFI 1f1f9 .cfa: $rsp 592 +
STACK CFI INIT 1f230 8f .cfa: $rsp 8 + .ra: .cfa -8 + ^
STACK CFI 1f237 .cfa: $rsp 224 +
STACK CFI 1f2be .cfa: $rsp 8 +
STACK CFI INIT 1f2c0 6c .cfa: $rsp 8 + .ra: .cfa -8 + ^
STACK CFI 1f2c7 .cfa: $rsp 208 +
STACK CFI 1f32b .cfa: $rsp 8 +
STACK CFI INIT 1f330 d .cfa: $rsp 8 + .ra: .cfa -8 + ^
STACK CFI 1f331 .cfa: $rsp 16 +
STACK CFI 1f33c .cfa: $rsp 8 +
STACK CFI INIT 1f340 1f .cfa: $rsp 8 + .ra: .cfa -8 + ^
STACK CFI 1f344 .cfa: $rsp 20 +
STACK CFI 1f35e .cfa: $rsp 8 +
STACK CFI INIT 1f360 24 .cfa: $rsp 8 + .ra: .cfa -8 + ^
STACK CFI 1f364 .cfa: $rsp 20 +
STACK CFI 1f383 .cfa: $rsp 8 +
STACK CFI INIT 1f390 18e .cfa: $rsp 8 + .ra: .cfa -8 + ^
STACK CFI 1f397 .cfa: $rsp 192 +
STACK CFI 1f4a1 .cfa: $rsp 8 +
STACK CFI 1f4a2 .cfa: $rsp 192 +
STACK CFI INIT 1f520 2f .cfa: $rsp 8 + .ra: .cfa -8 + ^
STACK CFI 1f524 .cfa: $rsp 40 +
STACK CFI 1f54e .cfa: $rsp 8 +
STACK CFI INIT 1f550 1b .cfa: $rsp 8 + .ra: .cfa -8 + ^
STACK CFI 1f554 .cfa: $rsp 24 +
STACK CFI 1f56a .cfa: $rsp 8 +
STACK CFI INIT 1f570 1b .cfa: $rsp 8 + .ra: .cfa -8 + ^
STACK CFI 1f574 .cfa: $rsp 32 +
STACK CFI 1f58a .cfa: $rsp 8 +
STACK CFI INIT 1f590 b .cfa: $rsp 8 + .ra: .cfa -8 + ^
STACK CFI 1f591 .cfa: $rsp 16 +
STACK CFI 1f59a .cfa: $rsp 8 +
STACK CFI INIT 1f5a0 1b .cfa: $rsp 8 + .ra: .cfa -8 + ^
STACK CFI 1f5a4 .cfa: $rsp 24 +
STACK CFI 1f5ba .cfa: $rsp 8 +
STACK CFI INIT 1f5c0 25 .cfa: $rsp 8 + .ra: .cfa -8 + ^
STACK CFI 1f5c4 .cfa: $rsp 32 +
STACK CFI 1f5e4 .cfa: $rsp 8 +
STACK CFI INIT 1f5f0 56 .cfa: $rsp 8 + .ra: .cfa -8 + ^
STACK CFI 1f5f4 .cfa: $rsp 48 +
STACK CFI 1f645 .cfa: $rsp 8 +
STACK CFI INIT 1f650 2f .cfa: $rsp 8 + .ra: .cfa -8 + ^
STACK CFI 1f654 .cfa: $rsp 32 +
STACK CFI 1f67e .cfa: $rsp 8 +
STACK CFI INIT 1f680 b .cfa: $rsp 8 + .ra: .cfa -8 + ^
STACK CFI 1f681 .cfa: $rsp 16 +
STACK CFI 1f68a .cfa: $rsp 8 +
STACK CFI INIT 1f690 1b .cfa: $rsp 8 + .ra: .cfa -8 + ^
STACK CFI 1f694 .cfa: $rsp 24 +
STACK CFI 1f6aa .cfa: $rsp 8 +
STACK CFI INIT 1f6b0 25 .cfa: $rsp 8 + .ra: .cfa -8 + ^
STACK CFI 1f6b4 .cfa: $rsp 32 +
STACK CFI 1f6d4 .cfa: $rsp 8 +
STACK CFI INIT 1f6e0 b .cfa: $rsp 8 + .ra: .cfa -8 + ^
STACK CFI 1f6e1 .cfa: $rsp 16 +
STACK CFI 1f6ea .cfa: $rsp 8 +
STACK CFI INIT 1f6f0 58 .cfa: $rsp 8 + .ra: .cfa -8 + ^
STACK CFI 1f6f4 .cfa: $rsp 64 +
STACK CFI 1f747 .cfa: $rsp 8 +
STACK CFI INIT 1f750 cd .cfa: $rsp 8 + .ra: .cfa -8 + ^
STACK CFI 1f754 .cfa: $rsp 80 +
STACK CFI 1f7f9 .cfa: $rsp 8 +
STACK CFI 1f7fa .cfa: $rsp 80 +
STACK CFI INIT 1f820 1da .cfa: $rsp 8 + .ra: .cfa -8 + ^
STACK CFI 1f821 $rbp: .cfa -16 + ^ .cfa: $rsp 16 +
STACK CFI 1f824 .cfa: $rbp 16 +
STACK CFI 1f9f9 .cfa: $rsp 8 +
STACK CFI INIT 1fa00 2f .cfa: $rsp 8 + .ra: .cfa -8 + ^
STACK CFI 1fa04 .cfa: $rsp 40 +
STACK CFI 1fa2e .cfa: $rsp 8 +
STACK CFI INIT 1fa30 2f .cfa: $rsp 8 + .ra: .cfa -8 + ^
STACK CFI 1fa34 .cfa: $rsp 40 +
STACK CFI 1fa5e .cfa: $rsp 8 +
STACK CFI INIT 1fa60 36 .cfa: $rsp 8 + .ra: .cfa -8 + ^
STACK CFI 1fa64 .cfa: $rsp 32 +
STACK CFI 1fa95 .cfa: $rsp 8 +
STACK CFI INIT 1faa0 2f .cfa: $rsp 8 + .ra: .cfa -8 + ^
STACK CFI 1faa4 .cfa: $rsp 40 +
STACK CFI 1face .cfa: $rsp 8 +
STACK CFI INIT 1fad0 3 .cfa: $rsp 8 + .ra: .cfa -8 + ^
STACK CFI INIT 1fae0 3b .cfa: $rsp 8 + .ra: .cfa -8 + ^
STACK CFI 1fae4 .cfa: $rsp 48 +
STACK CFI 1fb1a .cfa: $rsp 8 +
STACK CFI INIT 1fb20 2c .cfa: $rsp 8 + .ra: .cfa -8 + ^
STACK CFI 1fb24 .cfa: $rsp 32 +
STACK CFI 1fb4b .cfa: $rsp 8 +
STACK CFI INIT 1fb50 3 .cfa: $rsp 8 + .ra: .cfa -8 + ^
STACK CFI INIT 1fb60 36 .cfa: $rsp 8 + .ra: .cfa -8 + ^
STACK CFI 1fb64 .cfa: $rsp 48 +
STACK CFI 1fb95 .cfa: $rsp 8 +
STACK CFI INIT 1fba0 22 .cfa: $rsp 8 + .ra: .cfa -8 + ^
STACK CFI 1fba4 .cfa: $rsp 32 +
STACK CFI 1fbc1 .cfa: $rsp 8 +
STACK CFI INIT 1fbd0 3e .cfa: $rsp 8 + .ra: .cfa -8 + ^
STACK CFI 1fbd4 .cfa: $rsp 48 +
STACK CFI 1fc0d .cfa: $rsp 8 +
STACK CFI INIT 1fc10 90 .cfa: $rsp 8 + .ra: .cfa -8 + ^
STACK CFI 1fc14 .cfa: $rsp 64 +
STACK CFI 1fc9f .cfa: $rsp 8 +
STACK CFI INIT 1fca0 48 .cfa: $rsp 8 + .ra: .cfa -8 + ^
STACK CFI 1fca4 .cfa: $rsp 48 +
STACK CFI 1fce7 .cfa: $rsp 8 +
STACK CFI INIT 1fcf0 57 .cfa: $rsp 8 + .ra: .cfa -8 + ^
STACK CFI 1fcf4 .cfa: $rsp 64 +
STACK CFI 1fd46 .cfa: $rsp 8 +
STACK CFI INIT 1fd50 82 .cfa: $rsp 8 + .ra: .cfa -8 + ^
STACK CFI 1fd54 .cfa: $rsp 80 +
STACK CFI 1fdd1 .cfa: $rsp 8 +
STACK CFI INIT 1fde0 12 .cfa: $rsp 8 + .ra: .cfa -8 + ^
STACK CFI 1fde1 .cfa: $rsp 16 +
STACK CFI 1fdf1 .cfa: $rsp 8 +
STACK CFI INIT 1fe00 6 .cfa: $rsp 8 + .ra: .cfa -8 + ^
STACK CFI INIT 1fe10 1b .cfa: $rsp 8 + .ra: .cfa -8 + ^
STACK CFI 1fe11 .cfa: $rsp 16 +
STACK CFI 1fe2a .cfa: $rsp 8 +
STACK CFI INIT 1fe30 10 .cfa: $rsp 8 + .ra: .cfa -8 + ^
STACK CFI 1fe31 .cfa: $rsp 16 +
STACK CFI 1fe3f .cfa: $rsp 8 +
STACK CFI INIT 1fe40 1f .cfa: $rsp 8 + .ra: .cfa -8 + ^
STACK CFI 1fe44 .cfa: $rsp 24 +
STACK CFI 1fe5e .cfa: $rsp 8 +
STACK CFI INIT 1fe60 43 .cfa: $rsp 8 + .ra: .cfa -8 + ^
STACK CFI 1fe64 .cfa: $rsp 56 +
STACK CFI 1fea2 .cfa: $rsp 8 +
STACK CFI INIT 1feb0 43 .cfa: $rsp 8 + .ra: .cfa -8 + ^
STACK CFI 1feb4 .cfa: $rsp 56 +
STACK CFI 1fef2 .cfa: $rsp 8 +
STACK CFI INIT 1ff00 19 .cfa: $rsp 8 + .ra: .cfa -8 + ^
STACK CFI 1ff04 .cfa: $rsp 24 +
STACK CFI 1ff18 .cfa: $rsp 8 +
STACK CFI INIT 1ff20 2a .cfa: $rsp 8 + .ra: .cfa -8 + ^
STACK CFI 1ff24 .cfa: $rsp 40 +
STACK CFI 1ff49 .cfa: $rsp 8 +
STACK CFI INIT 1ff50 19 .cfa: $rsp 8 + .ra: .cfa -8 + ^
STACK CFI 1ff54 .cfa: $rsp 24 +
STACK CFI 1ff68 .cfa: $rsp 8 +
STACK CFI INIT 1ff70 3e .cfa: $rsp 8 + .ra: .cfa -8 + ^
STACK CFI 1ff74 .cfa: $rsp 48 +
STACK CFI 1ffad .cfa: $rsp 8 +
STACK CFI INIT 1ffb0 34 .cfa: $rsp 8 + .ra: .cfa -8 + ^
STACK CFI 1ffb4 .cfa: $rsp 48 +
STACK CFI 1ffe3 .cfa: $rsp 8 +
STACK CFI INIT 1fff0 24 .cfa: $rsp 8 + .ra: .cfa -8 + ^
STACK CFI 1fff4 .cfa: $rsp 48 +
STACK CFI 20013 .cfa: $rsp 8 +
STACK CFI INIT 20020 50 .cfa: $rsp 8 + .ra: .cfa -8 + ^
STACK CFI 20024 .cfa: $rsp 48 +
STACK CFI 2006f .cfa: $rsp 8 +
STACK CFI INIT 20070 50 .cfa: $rsp 8 + .ra: .cfa -8 + ^
STACK CFI 20074 .cfa: $rsp 48 +
STACK CFI 200bf .cfa: $rsp 8 +
STACK CFI INIT 200c0 81 .cfa: $rsp 8 + .ra: .cfa -8 + ^
STACK CFI 200c4 .cfa: $rsp 80 +
STACK CFI 20123 .cfa: $rsp 8 +
STACK CFI 20124 .cfa: $rsp 80 +
STACK CFI INIT 20150 1e .cfa: $rsp 8 + .ra: .cfa -8 + ^
STACK CFI INIT 20170 17 .cfa: $rsp 8 + .ra: .cfa -8 + ^
STACK CFI INIT 20190 7 .cfa: $rsp 8 + .ra: .cfa -8 + ^
STACK CFI INIT 201a0 1d .cfa: $rsp 8 + .ra: .cfa -8 + ^
STACK CFI INIT 201c0 1bf .cfa: $rsp 8 + .ra: .cfa -8 + ^
STACK CFI 201c1 .cfa: $rsp 16 +
STACK CFI 201c3 .cfa: $rsp 24 +
STACK CFI 201c5 .cfa: $rsp 32 +
STACK CFI 201c7 .cfa: $rsp 40 +
STACK CFI 201c9 .cfa: $rsp 48 +
STACK CFI 201ca .cfa: $rsp 56 +
STACK CFI 201d1 $r12: .cfa -48 + ^ $r13: .cfa -40 + ^ $r14: .cfa -32 + ^ $r15: .cfa -24 + ^ $rbp: .cfa -16 + ^ $rbx: .cfa -56 + ^ .cfa: $rsp 640 +
STACK CFI 201eb .cfa: $rsp 56 +
STACK CFI 201ec .cfa: $rsp 48 +
STACK CFI 201ee .cfa: $rsp 40 +
STACK CFI 201f0 .cfa: $rsp 32 +
STACK CFI 201f2 .cfa: $rsp 24 +
STACK CFI 201f4 .cfa: $rsp 16 +
STACK CFI 201f5 .cfa: $rsp 8 +
STACK CFI 201f6 .cfa: $rsp 640 +
STACK CFI INIT 20380 8 .cfa: $rsp 8 + .ra: .cfa -8 + ^
STACK CFI INIT 20390 f4 .cfa: $rsp 8 + .ra: .cfa -8 + ^
STACK CFI 20392 .cfa: $rsp 16 +
STACK CFI 20394 .cfa: $rsp 24 +
STACK CFI 20396 .cfa: $rsp 32 +
STACK CFI 20397 .cfa: $rsp 40 +
STACK CFI 2039b $r12: .cfa -32 + ^ $r14: .cfa -24 + ^ $r15: .cfa -16 + ^ $rbx: .cfa -40 + ^ .cfa: $rsp 144 +
STACK CFI 20465 .cfa: $rsp 40 +
STACK CFI 20466 .cfa: $rsp 32 +
STACK CFI 20468 .cfa: $rsp 24 +
STACK CFI 2046a .cfa: $rsp 16 +
STACK CFI 2046c .cfa: $rsp 8 +
STACK CFI 2046d .cfa: $rsp 144 +
STACK CFI INIT 20490 2eb .cfa: $rsp 8 + .ra: .cfa -8 + ^
STACK CFI 20491 .cfa: $rsp 16 +
STACK CFI 20493 .cfa: $rsp 24 +
STACK CFI 20495 .cfa: $rsp 32 +
STACK CFI 20496 .cfa: $rsp 40 +
STACK CFI 2049a $r14: .cfa -32 + ^ $r15: .cfa -24 + ^ $rbp: .cfa -16 + ^ $rbx: .cfa -40 + ^ .cfa: $rsp 160 +
STACK CFI 2075d .cfa: $rsp 40 +
STACK CFI 2075e .cfa: $rsp 32 +
STACK CFI 20760 .cfa: $rsp 24 +
STACK CFI 20762 .cfa: $rsp 16 +
STACK CFI 20763 .cfa: $rsp 8 +
STACK CFI 20764 .cfa: $rsp 160 +
STACK CFI INIT 20780 1a6 .cfa: $rsp 8 + .ra: .cfa -8 + ^
STACK CFI 20782 .cfa: $rsp 16 +
STACK CFI 20784 .cfa: $rsp 24 +
STACK CFI 20786 .cfa: $rsp 32 +
STACK CFI 20788 .cfa: $rsp 40 +
STACK CFI 20789 .cfa: $rsp 48 +
STACK CFI 2078d $r12: .cfa -40 + ^ $r13: .cfa -32 + ^ $r14: .cfa -24 + ^ $r15: .cfa -16 + ^ $rbx: .cfa -48 + ^ .cfa: $rsp 144 +
STACK CFI 208f4 .cfa: $rsp 48 +
STACK CFI 208f5 .cfa: $rsp 40 +
STACK CFI 208f7 .cfa: $rsp 32 +
STACK CFI 208f9 .cfa: $rsp 24 +
STACK CFI 208fb .cfa: $rsp 16 +
STACK CFI 208fd .cfa: $rsp 8 +
STACK CFI 208fe .cfa: $rsp 144 +
STACK CFI INIT 20930 9d .cfa: $rsp 8 + .ra: .cfa -8 + ^
STACK CFI 20932 .cfa: $rsp 16 +
STACK CFI 20933 .cfa: $rsp 24 +
STACK CFI 20934 $r14: .cfa -16 + ^ $rbx: .cfa -24 + ^ .cfa: $rsp 32 +
STACK CFI 20997 .cfa: $rsp 24 +
STACK CFI 20998 .cfa: $rsp 16 +
STACK CFI 2099a .cfa: $rsp 8 +
STACK CFI 2099b .cfa: $rsp 32 +
STACK CFI INIT 209d0 51 .cfa: $rsp 8 + .ra: .cfa -8 + ^
STACK CFI 209d2 .cfa: $rsp 16 +
STACK CFI 209d3 .cfa: $rsp 24 +
STACK CFI 209d4 $r14: .cfa -16 + ^ $rbx: .cfa -24 + ^ .cfa: $rsp 32 +
STACK CFI 209f8 .cfa: $rsp 24 +
STACK CFI 209f9 .cfa: $rsp 16 +
STACK CFI 209fb .cfa: $rsp 8 +
STACK CFI 20a00 .cfa: $rsp 32 +
STACK CFI 20a04 .cfa: $rsp 24 +
STACK CFI 20a05 .cfa: $rsp 16 +
STACK CFI 20a07 .cfa: $rsp 8 +
STACK CFI 20a08 .cfa: $rsp 32 +
STACK CFI INIT 20a30 65 .cfa: $rsp 8 + .ra: .cfa -8 + ^
STACK CFI 20a32 .cfa: $rsp 16 +
STACK CFI 20a34 .cfa: $rsp 24 +
STACK CFI 20a35 $r14: .cfa -24 + ^ $r15: .cfa -16 + ^ $rbx: .cfa -32 + ^ .cfa: $rsp 32 +
STACK CFI 20a6b .cfa: $rsp 24 +
STACK CFI 20a6d .cfa: $rsp 16 +
STACK CFI 20a6f .cfa: $rsp 8 +
STACK CFI 20a74 .cfa: $rsp 32 +
STACK CFI INIT 20aa0 1 .cfa: $rsp 8 + .ra: .cfa -8 + ^
STACK CFI INIT 20ab0 18 .cfa: $rsp 8 + .ra: .cfa -8 + ^
STACK CFI INIT 20ad0 17 .cfa: $rsp 8 + .ra: .cfa -8 + ^
STACK CFI INIT 20af0 73 .cfa: $rsp 8 + .ra: .cfa -8 + ^
STACK CFI 20af2 .cfa: $rsp 16 +
STACK CFI 20af4 .cfa: $rsp 24 +
STACK CFI 20af5 $r14: .cfa -24 + ^ $r15: .cfa -16 + ^ $rbx: .cfa -32 + ^ .cfa: $rsp 32 +
STACK CFI 20afb .cfa: $rsp 24 +
STACK CFI 20afd .cfa: $rsp 16 +
STACK CFI 20aff .cfa: $rsp 8 +
STACK CFI 20b00 .cfa: $rsp 32 +
STACK CFI 20b38 .cfa: $rsp 24 +
STACK CFI 20b3a .cfa: $rsp 16 +
STACK CFI 20b3c .cfa: $rsp 8 +
STACK CFI 20b41 .cfa: $rsp 32 +
STACK CFI INIT 20b70 20 .cfa: $rsp 8 + .ra: .cfa -8 + ^
STACK CFI INIT 20b90 56 .cfa: $rsp 8 + .ra: .cfa -8 + ^
STACK CFI 20b92 .cfa: $rsp 16 +
STACK CFI 20b93 .cfa: $rsp 24 +
STACK CFI 20b94 $r14: .cfa -16 + ^ $rbx: .cfa -24 + ^ .cfa: $rsp 32 +
STACK CFI 20bbd .cfa: $rsp 24 +
STACK CFI 20bbe .cfa: $rsp 16 +
STACK CFI 20bc0 .cfa: $rsp 8 +
STACK CFI 20bc5 .cfa: $rsp 32 +
STACK CFI 20bc9 .cfa: $rsp 24 +
STACK CFI 20bca .cfa: $rsp 16 +
STACK CFI 20bcc .cfa: $rsp 8 +
STACK CFI 20bcd .cfa: $rsp 32 +
STACK CFI INIT 20bf0 17 .cfa: $rsp 8 + .ra: .cfa -8 + ^
STACK CFI INIT 20c10 75 .cfa: $rsp 8 + .ra: .cfa -8 + ^
STACK CFI 20c12 .cfa: $rsp 16 +
STACK CFI 20c14 .cfa: $rsp 24 +
STACK CFI 20c16 .cfa: $rsp 32 +
STACK CFI 20c18 .cfa: $rsp 40 +
STACK CFI 20c19 .cfa: $rsp 48 +
STACK CFI 20c1d $r12: .cfa -40 + ^ $r13: .cfa -32 + ^ $r14: .cfa -24 + ^ $r15: .cfa -16 + ^ $rbx: .cfa -48 + ^ .cfa: $rsp 80 +
STACK CFI 20c7b .cfa: $rsp 48 +
STACK CFI 20c7c .cfa: $rsp 40 +
STACK CFI 20c7e .cfa: $rsp 32 +
STACK CFI 20c80 .cfa: $rsp 24 +
STACK CFI 20c82 .cfa: $rsp 16 +
STACK CFI 20c84 .cfa: $rsp 8 +
STACK CFI INIT 20c90 f .cfa: $rsp 8 + .ra: .cfa -8 + ^
STACK CFI INIT 20ca0 16 .cfa: $rsp 8 + .ra: .cfa -8 + ^
STACK CFI INIT 20cc0 16 .cfa: $rsp 8 + .ra: .cfa -8 + ^
STACK CFI INIT 20ce0 f .cfa: $rsp 8 + .ra: .cfa -8 + ^
STACK CFI INIT 20cf0 d5 .cfa: $rsp 8 + .ra: .cfa -8 + ^
STACK CFI 20cf2 .cfa: $rsp 16 +
STACK CFI 20cf4 .cfa: $rsp 24 +
STACK CFI 20cf5 .cfa: $rsp 32 +
STACK CFI 20cf9 $r14: .cfa -24 + ^ $r15: .cfa -16 + ^ $rbx: .cfa -32 + ^ .cfa: $rsp 64 +
STACK CFI 20d8f .cfa: $rsp 32 +
STACK CFI 20d90 .cfa: $rsp 24 +
STACK CFI 20d92 .cfa: $rsp 16 +
STACK CFI 20d94 .cfa: $rsp 8 +
STACK CFI 20d95 .cfa: $rsp 64 +
STACK CFI INIT 20dd0 67 .cfa: $rsp 8 + .ra: .cfa -8 + ^
STACK CFI 20dd1 $rbx: .cfa -16 + ^ .cfa: $rsp 16 +
STACK CFI 20e36 .cfa: $rsp 8 +
STACK CFI INIT 20e40 7 .cfa: $rsp 8 + .ra: .cfa -8 + ^
STACK CFI INIT 20e50 11 .cfa: $rsp 8 + .ra: .cfa -8 + ^
STACK CFI 20e51 $rbx: .cfa -16 + ^ .cfa: $rsp 16 +
STACK CFI 20e60 .cfa: $rsp 8 +
STACK CFI INIT 20e70 35 .cfa: $rsp 8 + .ra: .cfa -8 + ^
STACK CFI 20e71 .cfa: $rsp 16 +
STACK CFI 20e75 $rbx: .cfa -16 + ^ .cfa: $rsp 64 +
STACK CFI 20ea3 .cfa: $rsp 16 +
STACK CFI 20ea4 .cfa: $rsp 8 +
STACK CFI INIT 20eb0 338 .cfa: $rsp 8 + .ra: .cfa -8 + ^
STACK CFI 20eb1 .cfa: $rsp 16 +
STACK CFI 20eb3 .cfa: $rsp 24 +
STACK CFI 20eb4 .cfa: $rsp 32 +
STACK CFI 20ebb $r14: .cfa -24 + ^ $rbp: .cfa -16 + ^ $rbx: .cfa -32 + ^ .cfa: $rsp 176 +
STACK CFI 21128 .cfa: $rsp 32 +
STACK CFI 21129 .cfa: $rsp 24 +
STACK CFI 2112b .cfa: $rsp 16 +
STACK CFI 2112c .cfa: $rsp 8 +
STACK CFI 2112d .cfa: $rsp 176 +
STACK CFI INIT 211f0 1fa .cfa: $rsp 8 + .ra: .cfa -8 + ^
STACK CFI 211f2 .cfa: $rsp 16 +
STACK CFI 211f4 .cfa: $rsp 24 +
STACK CFI 211f6 .cfa: $rsp 32 +
STACK CFI 211f8 .cfa: $rsp 40 +
STACK CFI 211f9 .cfa: $rsp 48 +
STACK CFI 211fd $r12: .cfa -40 + ^ $r13: .cfa -32 + ^ $r14: .cfa -24 + ^ $r15: .cfa -16 + ^ $rbx: .cfa -48 + ^ .cfa: $rsp 160 +
STACK CFI 213a7 .cfa: $rsp 48 +
STACK CFI 213a8 .cfa: $rsp 40 +
STACK CFI 213aa .cfa: $rsp 32 +
STACK CFI 213ac .cfa: $rsp 24 +
STACK CFI 213ae .cfa: $rsp 16 +
STACK CFI 213b0 .cfa: $rsp 8 +
STACK CFI 213b1 .cfa: $rsp 160 +
STACK CFI INIT 213f0 53 .cfa: $rsp 8 + .ra: .cfa -8 + ^
STACK CFI 213f1 $rbx: .cfa -16 + ^ .cfa: $rsp 16 +
STACK CFI 21442 .cfa: $rsp 8 +
STACK CFI INIT 21450 17 .cfa: $rsp 8 + .ra: .cfa -8 + ^
STACK CFI 21451 $rbx: .cfa -16 + ^ .cfa: $rsp 16 +
STACK CFI 21466 .cfa: $rsp 8 +
STACK CFI INIT 21470 50 .cfa: $rsp 8 + .ra: .cfa -8 + ^
STACK CFI 21471 .cfa: $rsp 16 +
STACK CFI 214bf .cfa: $rsp 8 +
STACK CFI INIT 214c0 8 .cfa: $rsp 8 + .ra: .cfa -8 + ^
STACK CFI 214c1 .cfa: $rsp 16 +
STACK CFI INIT 214d0 60 .cfa: $rsp 8 + .ra: .cfa -8 + ^
STACK CFI 214d1 .cfa: $rsp 16 +
STACK CFI 214d5 $rbx: .cfa -16 + ^ .cfa: $rsp 96 +
STACK CFI INIT 21530 b3 .cfa: $rsp 8 + .ra: .cfa -8 + ^
STACK CFI 21531 .cfa: $rsp 16 +
STACK CFI 21533 .cfa: $rsp 24 +
STACK CFI 21535 .cfa: $rsp 32 +
STACK CFI 21537 .cfa: $rsp 40 +
STACK CFI 21539 .cfa: $rsp 48 +
STACK CFI 2153a .cfa: $rsp 56 +
STACK CFI 2153e $r12: .cfa -48 + ^ $r13: .cfa -40 + ^ $r14: .cfa -32 + ^ $r15: .cfa -24 + ^ $rbp: .cfa -16 + ^ $rbx: .cfa -56 + ^ .cfa: $rsp 112 +
STACK CFI INIT 215f0 fe .cfa: $rsp 8 + .ra: .cfa -8 + ^
STACK CFI 215f2 .cfa: $rsp 16 +
STACK CFI 215f3 .cfa: $rsp 24 +
STACK CFI 215f7 $r14: .cfa -16 + ^ $rbx: .cfa -24 + ^ .cfa: $rsp 112 +
STACK CFI 216c4 .cfa: $rsp 24 +
STACK CFI 216c5 .cfa: $rsp 16 +
STACK CFI 216c7 .cfa: $rsp 8 +
STACK CFI 216c8 .cfa: $rsp 112 +
STACK CFI INIT 216f0 a4 .cfa: $rsp 8 + .ra: .cfa -8 + ^
STACK CFI 216f1 .cfa: $rsp 16 +
STACK CFI 216f5 $rbx: .cfa -16 + ^ .cfa: $rsp 96 +
STACK CFI 2177d .cfa: $rsp 16 +
STACK CFI 2177e .cfa: $rsp 8 +
STACK CFI 2177f .cfa: $rsp 96 +
STACK CFI INIT 217a0 29 .cfa: $rsp 8 + .ra: .cfa -8 + ^
STACK CFI 217a4 .cfa: $rsp 32 +
STACK CFI INIT 217d0 60 .cfa: $rsp 8 + .ra: .cfa -8 + ^
STACK CFI 217d2 .cfa: $rsp 16 +
STACK CFI 217d3 .cfa: $rsp 24 +
STACK CFI 217d4 $r14: .cfa -16 + ^ $rbx: .cfa -24 + ^ .cfa: $rsp 32 +
STACK CFI 2181b .cfa: $rsp 24 +
STACK CFI 2181c .cfa: $rsp 16 +
STACK CFI 2181e .cfa: $rsp 8 +
STACK CFI 2181f .cfa: $rsp 32 +
STACK CFI INIT 21830 22 .cfa: $rsp 8 + .ra: .cfa -8 + ^
STACK CFI INIT 21860 216 .cfa: $rsp 8 + .ra: .cfa -8 + ^
STACK CFI 21861 .cfa: $rsp 16 +
STACK CFI 21863 .cfa: $rsp 24 +
STACK CFI 21865 .cfa: $rsp 32 +
STACK CFI 21867 .cfa: $rsp 40 +
STACK CFI 21869 .cfa: $rsp 48 +
STACK CFI 2186a .cfa: $rsp 56 +
STACK CFI 2186e $r12: .cfa -48 + ^ $r13: .cfa -40 + ^ $r14: .cfa -32 + ^ $r15: .cfa -24 + ^ $rbp: .cfa -16 + ^ $rbx: .cfa -56 + ^ .cfa: $rsp 144 +
STACK CFI INIT 21a80 7b .cfa: $rsp 8 + .ra: .cfa -8 + ^
STACK CFI 21a84 .cfa: $rsp 96 +
STACK CFI INIT 21b00 426 .cfa: $rsp 8 + .ra: .cfa -8 + ^
STACK CFI 21b01 .cfa: $rsp 16 +
STACK CFI 21b03 .cfa: $rsp 24 +
STACK CFI 21b05 .cfa: $rsp 32 +
STACK CFI 21b07 .cfa: $rsp 40 +
STACK CFI 21b09 .cfa: $rsp 48 +
STACK CFI 21b0a .cfa: $rsp 56 +
STACK CFI 21b11 $r12: .cfa -48 + ^ $r13: .cfa -40 + ^ $r14: .cfa -32 + ^ $r15: .cfa -24 + ^ $rbp: .cfa -16 + ^ $rbx: .cfa -56 + ^ .cfa: $rsp 240 +
STACK CFI 21d06 .cfa: $rsp 56 +
STACK CFI 21d07 .cfa: $rsp 48 +
STACK CFI 21d09 .cfa: $rsp 40 +
STACK CFI 21d0b .cfa: $rsp 32 +
STACK CFI 21d0d .cfa: $rsp 24 +
STACK CFI 21d0f .cfa: $rsp 16 +
STACK CFI 21d10 .cfa: $rsp 8 +
STACK CFI 21d11 .cfa: $rsp 240 +
STACK CFI INIT 21f30 a .cfa: $rsp 8 + .ra: .cfa -8 + ^
STACK CFI 21f31 .cfa: $rsp 16 +
STACK CFI 21f39 .cfa: $rsp 8 +
STACK CFI INIT 21f40 16 .cfa: $rsp 8 + .ra: .cfa -8 + ^
STACK CFI INIT 21f60 129 .cfa: $rsp 8 + .ra: .cfa -8 + ^
STACK CFI 21f62 .cfa: $rsp 16 +
STACK CFI 21f64 .cfa: $rsp 24 +
STACK CFI 21f66 .cfa: $rsp 32 +
STACK CFI 21f68 .cfa: $rsp 40 +
STACK CFI 21f69 .cfa: $rsp 48 +
STACK CFI 21f70 $r12: .cfa -40 + ^ $r13: .cfa -32 + ^ $r14: .cfa -24 + ^ $r15: .cfa -16 + ^ $rbx: .cfa -48 + ^ .cfa: $rsp 176 +
STACK CFI 2200a .cfa: $rsp 48 +
STACK CFI 2200b .cfa: $rsp 40 +
STACK CFI 2200d .cfa: $rsp 32 +
STACK CFI 2200f .cfa: $rsp 24 +
STACK CFI 22011 .cfa: $rsp 16 +
STACK CFI 22013 .cfa: $rsp 8 +
STACK CFI 22014 .cfa: $rsp 176 +
STACK CFI INIT 22090 97 .cfa: $rsp 8 + .ra: .cfa -8 + ^
STACK CFI 22091 .cfa: $rsp 16 +
STACK CFI 22095 $rbx: .cfa -16 + ^ .cfa: $rsp 96 +
STACK CFI 220a4 .cfa: $rsp 16 +
STACK CFI 220a5 .cfa: $rsp 8 +
STACK CFI 220a6 .cfa: $rsp 96 +
STACK CFI INIT 22130 8 .cfa: $rsp 8 + .ra: .cfa -8 + ^
STACK CFI INIT 22140 a .cfa: $rsp 8 + .ra: .cfa -8 + ^
STACK CFI INIT 22150 78 .cfa: $rsp 8 + .ra: .cfa -8 + ^
STACK CFI 22151 $rbx: .cfa -16 + ^ .cfa: $rsp 16 +
STACK CFI 22169 .cfa: $rsp 8 +
STACK CFI 2216a .cfa: $rsp 16 +
STACK CFI 2217e .cfa: $rsp 8 +
STACK CFI 2217f .cfa: $rsp 16 +
STACK CFI 221c7 .cfa: $rsp 8 +
STACK CFI INIT 221d0 3 .cfa: $rsp 8 + .ra: .cfa -8 + ^
STACK CFI INIT 221e0 16 .cfa: $rsp 8 + .ra: .cfa -8 + ^
STACK CFI 221e1 .cfa: $rsp 16 +
STACK CFI 221f5 .cfa: $rsp 8 +
STACK CFI INIT 22200 5 .cfa: $rsp 8 + .ra: .cfa -8 + ^
STACK CFI INIT 22210 17 .cfa: $rsp 8 + .ra: .cfa -8 + ^
STACK CFI INIT 22230 1 .cfa: $rsp 8 + .ra: .cfa -8 + ^
STACK CFI INIT 22240 46 .cfa: $rsp 8 + .ra: .cfa -8 + ^
STACK CFI 22241 .cfa: $rsp 16 +
STACK CFI 22245 $rbx: .cfa -16 + ^ .cfa: $rsp 48 +
STACK CFI 22284 .cfa: $rsp 16 +
STACK CFI 22285 .cfa: $rsp 8 +
STACK CFI INIT 22290 1f .cfa: $rsp 8 + .ra: .cfa -8 + ^
STACK CFI INIT 222b0 17 .cfa: $rsp 8 + .ra: .cfa -8 + ^
STACK CFI INIT 222d0 8 .cfa: $rsp 8 + .ra: .cfa -8 + ^
STACK CFI INIT 222e0 59 .cfa: $rsp 8 + .ra: .cfa -8 + ^
STACK CFI 222e2 .cfa: $rsp 16 +
STACK CFI 222e3 .cfa: $rsp 24 +
STACK CFI 222e4 $r14: .cfa -16 + ^ $rbx: .cfa -24 + ^ .cfa: $rsp 32 +
STACK CFI 2230f .cfa: $rsp 24 +
STACK CFI 22310 .cfa: $rsp 16 +
STACK CFI 22312 .cfa: $rsp 8 +
STACK CFI 22317 .cfa: $rsp 32 +
STACK CFI 2231b .cfa: $rsp 24 +
STACK CFI 2231c .cfa: $rsp 16 +
STACK CFI 2231e .cfa: $rsp 8 +
STACK CFI 2231f .cfa: $rsp 32 +
STACK CFI INIT 22340 82 .cfa: $rsp 8 + .ra: .cfa -8 + ^
STACK CFI 22342 .cfa: $rsp 16 +
STACK CFI 22344 .cfa: $rsp 24 +
STACK CFI 22345 $r14: .cfa -24 + ^ $r15: .cfa -16 + ^ $rbx: .cfa -32 + ^ .cfa: $rsp 32 +
STACK CFI 2239c .cfa: $rsp 24 +
STACK CFI 2239e .cfa: $rsp 16 +
STACK CFI 223a0 .cfa: $rsp 8 +
STACK CFI 223a5 .cfa: $rsp 32 +
STACK CFI INIT 223d0 10 .cfa: $rsp 8 + .ra: .cfa -8 + ^
STACK CFI INIT 223e0 f .cfa: $rsp 8 + .ra: .cfa -8 + ^
STACK CFI INIT 223f0 16 .cfa: $rsp 8 + .ra: .cfa -8 + ^
STACK CFI INIT 22410 f .cfa: $rsp 8 + .ra: .cfa -8 + ^
STACK CFI INIT 22420 3 .cfa: $rsp 8 + .ra: .cfa -8 + ^
STACK CFI INIT 22430 b .cfa: $rsp 8 + .ra: .cfa -8 + ^
STACK CFI INIT 22440 8 .cfa: $rsp 8 + .ra: .cfa -8 + ^
STACK CFI INIT 22450 15 .cfa: $rsp 8 + .ra: .cfa -8 + ^
STACK CFI INIT 22470 6e .cfa: $rsp 8 + .ra: .cfa -8 + ^
STACK CFI 22474 .cfa: $rsp 64 +
STACK CFI 224cc .cfa: $rsp 8 +
STACK CFI 224cd .cfa: $rsp 64 +
STACK CFI INIT 224e0 64 .cfa: $rsp 8 + .ra: .cfa -8 + ^
STACK CFI 224e1 $rbx: .cfa -16 + ^ .cfa: $rsp 16 +
STACK CFI 22543 .cfa: $rsp 8 +
STACK CFI INIT 22550 1e .cfa: $rsp 8 + .ra: .cfa -8 + ^
STACK CFI INIT 22570 8 .cfa: $rsp 8 + .ra: .cfa -8 + ^
STACK CFI INIT 22580 55 .cfa: $rsp 8 + .ra: .cfa -8 + ^
STACK CFI 22581 .cfa: $rsp 16 +
STACK CFI 22585 $rbx: .cfa -16 + ^ .cfa: $rsp 64 +
STACK CFI 225d3 .cfa: $rsp 16 +
STACK CFI 225d4 .cfa: $rsp 8 +
STACK CFI INIT 225e0 a0 .cfa: $rsp 8 + .ra: .cfa -8 + ^
STACK CFI 225e2 .cfa: $rsp 16 +
STACK CFI 225e3 .cfa: $rsp 24 +
STACK CFI 225ea $r14: .cfa -16 + ^ $rbx: .cfa -24 + ^ .cfa: $rsp 928 +
STACK CFI 2267c .cfa: $rsp 24 +
STACK CFI 2267d .cfa: $rsp 16 +
STACK CFI 2267f .cfa: $rsp 8 +
STACK CFI INIT 22680 45 .cfa: $rsp 8 + .ra: .cfa -8 + ^
STACK CFI 22682 .cfa: $rsp 16 +
STACK CFI 22683 .cfa: $rsp 24 +
STACK CFI 22684 $r14: .cfa -16 + ^ $rbx: .cfa -24 + ^ .cfa: $rsp 32 +
STACK CFI 226b1 .cfa: $rsp 24 +
STACK CFI 226b2 .cfa: $rsp 16 +
STACK CFI 226b4 .cfa: $rsp 8 +
STACK CFI 226b5 .cfa: $rsp 32 +
STACK CFI INIT 226d0 d3 .cfa: $rsp 8 + .ra: .cfa -8 + ^
STACK CFI 226d1 .cfa: $rsp 16 +
STACK CFI 226d3 .cfa: $rsp 24 +
STACK CFI 226d4 .cfa: $rsp 32 +
STACK CFI 226d8 $r14: .cfa -24 + ^ $rbp: .cfa -16 + ^ $rbx: .cfa -32 + ^ .cfa: $rsp 48 +
STACK CFI 22772 .cfa: $rsp 32 +
STACK CFI 22773 .cfa: $rsp 24 +
STACK CFI 22775 .cfa: $rsp 16 +
STACK CFI 22776 .cfa: $rsp 8 +
STACK CFI 22777 .cfa: $rsp 48 +
STACK CFI INIT 227b0 113 .cfa: $rsp 8 + .ra: .cfa -8 + ^
STACK CFI 227b2 .cfa: $rsp 16 +
STACK CFI 227b3 .cfa: $rsp 24 +
STACK CFI 227b7 $r14: .cfa -16 + ^ $rbx: .cfa -24 + ^ .cfa: $rsp 64 +
STACK CFI 22886 .cfa: $rsp 24 +
STACK CFI 22887 .cfa: $rsp 16 +
STACK CFI 22889 .cfa: $rsp 8 +
STACK CFI 2288a .cfa: $rsp 64 +
STACK CFI INIT 228d0 1a9 .cfa: $rsp 8 + .ra: .cfa -8 + ^
STACK CFI 228d1 .cfa: $rsp 16 +
STACK CFI 228d3 .cfa: $rsp 24 +
STACK CFI 228d4 .cfa: $rsp 32 +
STACK CFI 228db $r14: .cfa -24 + ^ $rbp: .cfa -16 + ^ $rbx: .cfa -32 + ^ .cfa: $rsp 192 +
STACK CFI 22a27 .cfa: $rsp 32 +
STACK CFI 22a28 .cfa: $rsp 24 +
STACK CFI 22a2a .cfa: $rsp 16 +
STACK CFI 22a2b .cfa: $rsp 8 +
STACK CFI 22a2c .cfa: $rsp 192 +
STACK CFI INIT 22a80 68 .cfa: $rsp 8 + .ra: .cfa -8 + ^
STACK CFI 22a84 .cfa: $rsp 80 +
STACK CFI 22ae7 .cfa: $rsp 8 +
STACK CFI INIT 22af0 1f .cfa: $rsp 8 + .ra: .cfa -8 + ^
STACK CFI 22af1 .cfa: $rsp 16 +
STACK CFI INIT 22b10 263 .cfa: $rsp 8 + .ra: .cfa -8 + ^
STACK CFI 22b11 .cfa: $rsp 16 +
STACK CFI 22b13 .cfa: $rsp 24 +
STACK CFI 22b15 .cfa: $rsp 32 +
STACK CFI 22b16 .cfa: $rsp 40 +
STACK CFI 22b1a $r14: .cfa -32 + ^ $r15: .cfa -24 + ^ $rbp: .cfa -16 + ^ $rbx: .cfa -40 + ^ .cfa: $rsp 160 +
STACK CFI 22d09 .cfa: $rsp 40 +
STACK CFI 22d0a .cfa: $rsp 32 +
STACK CFI 22d0c .cfa: $rsp 24 +
STACK CFI 22d0e .cfa: $rsp 16 +
STACK CFI 22d0f .cfa: $rsp 8 +
STACK CFI 22d10 .cfa: $rsp 160 +
STACK CFI INIT 22d80 4c .cfa: $rsp 8 + .ra: .cfa -8 + ^
STACK CFI 22d82 .cfa: $rsp 16 +
STACK CFI 22d83 .cfa: $rsp 24 +
STACK CFI 22d87 $r14: .cfa -16 + ^ $rbx: .cfa -24 + ^ .cfa: $rsp 64 +
STACK CFI 22dc8 .cfa: $rsp 24 +
STACK CFI 22dc9 .cfa: $rsp 16 +
STACK CFI 22dcb .cfa: $rsp 8 +
STACK CFI INIT 22dd0 5 .cfa: $rsp 8 + .ra: .cfa -8 + ^
STACK CFI INIT 22de0 17 .cfa: $rsp 8 + .ra: .cfa -8 + ^
STACK CFI INIT 22e00 23 .cfa: $rsp 8 + .ra: .cfa -8 + ^
STACK CFI 22e01 .cfa: $rsp 16 +
STACK CFI INIT 22e30 1a .cfa: $rsp 8 + .ra: .cfa -8 + ^
STACK CFI 22e31 .cfa: $rsp 16 +
STACK CFI INIT 22e50 1cb .cfa: $rsp 8 + .ra: .cfa -8 + ^
STACK CFI 22e51 .cfa: $rsp 16 +
STACK CFI 22e53 .cfa: $rsp 24 +
STACK CFI 22e55 .cfa: $rsp 32 +
STACK CFI 22e57 .cfa: $rsp 40 +
STACK CFI 22e59 .cfa: $rsp 48 +
STACK CFI 22e5a .cfa: $rsp 56 +
STACK CFI 22e5e $r12: .cfa -48 + ^ $r13: .cfa -40 + ^ $r14: .cfa -32 + ^ $r15: .cfa -24 + ^ $rbp: .cfa -16 + ^ $rbx: .cfa -56 + ^ .cfa: $rsp 80 +
STACK CFI 22fd6 .cfa: $rsp 56 +
STACK CFI 22fd7 .cfa: $rsp 48 +
STACK CFI 22fd9 .cfa: $rsp 40 +
STACK CFI 22fdb .cfa: $rsp 32 +
STACK CFI 22fdd .cfa: $rsp 24 +
STACK CFI 22fdf .cfa: $rsp 16 +
STACK CFI 22fe0 .cfa: $rsp 8 +
STACK CFI 22fe1 .cfa: $rsp 80 +
STACK CFI INIT 23020 29a .cfa: $rsp 8 + .ra: .cfa -8 + ^
STACK CFI 23022 .cfa: $rsp 16 +
STACK CFI 23024 .cfa: $rsp 24 +
STACK CFI 23025 .cfa: $rsp 32 +
STACK CFI 23029 $r14: .cfa -24 + ^ $r15: .cfa -16 + ^ $rbx: .cfa -32 + ^ .cfa: $rsp 96 +
STACK CFI 23039 .cfa: $rsp 32 +
STACK CFI 2303a .cfa: $rsp 24 +
STACK CFI 2303c .cfa: $rsp 16 +
STACK CFI 2303e .cfa: $rsp 8 +
STACK CFI 2303f .cfa: $rsp 96 +
STACK CFI INIT 232c0 f .cfa: $rsp 8 + .ra: .cfa -8 + ^
STACK CFI INIT 232d0 16 .cfa: $rsp 8 + .ra: .cfa -8 + ^
STACK CFI INIT 232f0 10a3 .cfa: $rsp 8 + .ra: .cfa -8 + ^
STACK CFI 232f1 .cfa: $rsp 16 +
STACK CFI 232f3 .cfa: $rsp 24 +
STACK CFI 232f5 .cfa: $rsp 32 +
STACK CFI 232f7 .cfa: $rsp 40 +
STACK CFI 232f9 .cfa: $rsp 48 +
STACK CFI 232fa .cfa: $rsp 56 +
STACK CFI 23301 $r12: .cfa -48 + ^ $r13: .cfa -40 + ^ $r14: .cfa -32 + ^ $r15: .cfa -24 + ^ $rbp: .cfa -16 + ^ $rbx: .cfa -56 + ^ .cfa: $rsp 2672 +
STACK CFI 24331 .cfa: $rsp 56 +
STACK CFI 24332 .cfa: $rsp 48 +
STACK CFI 24334 .cfa: $rsp 40 +
STACK CFI 24336 .cfa: $rsp 32 +
STACK CFI 24338 .cfa: $rsp 24 +
STACK CFI 2433a .cfa: $rsp 16 +
STACK CFI 2433b .cfa: $rsp 8 +
STACK CFI 2433c .cfa: $rsp 2672 +
STACK CFI INIT 243a0 3 .cfa: $rsp 8 + .ra: .cfa -8 + ^
STACK CFI INIT 243b0 d1 .cfa: $rsp 8 + .ra: .cfa -8 + ^
STACK CFI 243b1 .cfa: $rsp 16 +
STACK CFI 243b5 $rbx: .cfa -16 + ^ .cfa: $rsp 64 +
STACK CFI 2447f .cfa: $rsp 16 +
STACK CFI 24480 .cfa: $rsp 8 +
STACK CFI INIT 24490 23a7 .cfa: $rsp 8 + .ra: .cfa -8 + ^
STACK CFI 24491 .cfa: $rsp 16 +
STACK CFI 24493 .cfa: $rsp 24 +
STACK CFI 24495 .cfa: $rsp 32 +
STACK CFI 24497 .cfa: $rsp 40 +
STACK CFI 24499 .cfa: $rsp 48 +
STACK CFI 2449a .cfa: $rsp 56 +
STACK CFI 244a1 $r12: .cfa -48 + ^ $r13: .cfa -40 + ^ $r14: .cfa -32 + ^ $r15: .cfa -24 + ^ $rbp: .cfa -16 + ^ $rbx: .cfa -56 + ^ .cfa: $rsp 448 +
STACK CFI 2668b .cfa: $rsp 56 +
STACK CFI 2668c .cfa: $rsp 48 +
STACK CFI 2668e .cfa: $rsp 40 +
STACK CFI 26690 .cfa: $rsp 32 +
STACK CFI 26692 .cfa: $rsp 24 +
STACK CFI 26694 .cfa: $rsp 16 +
STACK CFI 26695 .cfa: $rsp 8 +
STACK CFI 26696 .cfa: $rsp 448 +
STACK CFI INIT 26840 5a5 .cfa: $rsp 8 + .ra: .cfa -8 + ^
STACK CFI 26841 .cfa: $rsp 16 +
STACK CFI 26843 .cfa: $rsp 24 +
STACK CFI 26845 .cfa: $rsp 32 +
STACK CFI 26847 .cfa: $rsp 40 +
STACK CFI 26849 .cfa: $rsp 48 +
STACK CFI 2684a .cfa: $rsp 56 +
STACK CFI 26851 $r12: .cfa -48 + ^ $r13: .cfa -40 + ^ $r14: .cfa -32 + ^ $r15: .cfa -24 + ^ $rbp: .cfa -16 + ^ $rbx: .cfa -56 + ^ .cfa: $rsp 384 +
STACK CFI 26d6f .cfa: $rsp 56 +
STACK CFI 26d70 .cfa: $rsp 48 +
STACK CFI 26d72 .cfa: $rsp 40 +
STACK CFI 26d74 .cfa: $rsp 32 +
STACK CFI 26d76 .cfa: $rsp 24 +
STACK CFI 26d78 .cfa: $rsp 16 +
STACK CFI 26d79 .cfa: $rsp 8 +
STACK CFI 26d7a .cfa: $rsp 384 +
STACK CFI INIT 26df0 4e .cfa: $rsp 8 + .ra: .cfa -8 + ^
STACK CFI 26df2 .cfa: $rsp 16 +
STACK CFI 26df3 .cfa: $rsp 24 +
STACK CFI 26df4 $r14: .cfa -16 + ^ $rbx: .cfa -24 + ^ .cfa: $rsp 32 +
STACK CFI 26e10 .cfa: $rsp 24 +
STACK CFI 26e11 .cfa: $rsp 16 +
STACK CFI 26e13 .cfa: $rsp 8 +
STACK CFI 26e18 .cfa: $rsp 32 +
STACK CFI 26e2e .cfa: $rsp 24 +
STACK CFI 26e2f .cfa: $rsp 16 +
STACK CFI 26e31 .cfa: $rsp 8 +
STACK CFI 26e36 .cfa: $rsp 24 +
STACK CFI 26e37 .cfa: $rsp 16 +
STACK CFI 26e39 .cfa: $rsp 8 +
STACK CFI INIT 26e40 18 .cfa: $rsp 8 + .ra: .cfa -8 + ^
STACK CFI INIT 26e60 1 .cfa: $rsp 8 + .ra: .cfa -8 + ^
STACK CFI INIT 26e70 17 .cfa: $rsp 8 + .ra: .cfa -8 + ^
STACK CFI INIT 26e90 113 .cfa: $rsp 8 + .ra: .cfa -8 + ^
STACK CFI 26e97 .cfa: $rsp 192 +
STACK CFI 26ecf .cfa: $rsp 8 +
STACK CFI 26ed0 .cfa: $rsp 192 +
STACK CFI INIT 26fb0 8 .cfa: $rsp 8 + .ra: .cfa -8 + ^
STACK CFI INIT 26fc0 15 .cfa: $rsp 8 + .ra: .cfa -8 + ^
STACK CFI INIT 26fe0 15 .cfa: $rsp 8 + .ra: .cfa -8 + ^
STACK CFI INIT 27000 10a .cfa: $rsp 8 + .ra: .cfa -8 + ^
STACK CFI 27002 .cfa: $rsp 16 +
STACK CFI 27004 .cfa: $rsp 24 +
STACK CFI 27005 .cfa: $rsp 32 +
STACK CFI 27009 $r14: .cfa -24 + ^ $r15: .cfa -16 + ^ $rbx: .cfa -32 + ^ .cfa: $rsp 80 +
STACK CFI 270de .cfa: $rsp 32 +
STACK CFI 270df .cfa: $rsp 24 +
STACK CFI 270e1 .cfa: $rsp 16 +
STACK CFI 270e3 .cfa: $rsp 8 +
STACK CFI 270e4 .cfa: $rsp 80 +
STACK CFI INIT 27110 5 .cfa: $rsp 8 + .ra: .cfa -8 + ^
STACK CFI INIT 27120 cf .cfa: $rsp 8 + .ra: .cfa -8 + ^
STACK CFI 27121 .cfa: $rsp 16 +
STACK CFI 27123 .cfa: $rsp 24 +
STACK CFI 27124 .cfa: $rsp 32 +
STACK CFI 27128 $r14: .cfa -24 + ^ $rbp: .cfa -16 + ^ $rbx: .cfa -32 + ^ .cfa: $rsp 80 +
STACK CFI 271d9 .cfa: $rsp 32 +
STACK CFI 271da .cfa: $rsp 24 +
STACK CFI 271dc .cfa: $rsp 16 +
STACK CFI 271dd .cfa: $rsp 8 +
STACK CFI 271de .cfa: $rsp 80 +
STACK CFI INIT 271f0 89 .cfa: $rsp 8 + .ra: .cfa -8 + ^
STACK CFI 271f1 .cfa: $rsp 16 +
STACK CFI 271f3 .cfa: $rsp 24 +
STACK CFI 271f5 .cfa: $rsp 32 +
STACK CFI 271f6 .cfa: $rsp 40 +
STACK CFI 271fa $r14: .cfa -32 + ^ $r15: .cfa -24 + ^ $rbp: .cfa -16 + ^ $rbx: .cfa -40 + ^ .cfa: $rsp 64 +
STACK CFI 27261 .cfa: $rsp 40 +
STACK CFI 27262 .cfa: $rsp 32 +
STACK CFI 27264 .cfa: $rsp 24 +
STACK CFI 27266 .cfa: $rsp 16 +
STACK CFI 27267 .cfa: $rsp 8 +
STACK CFI 27268 .cfa: $rsp 64 +
STACK CFI INIT 27280 16 .cfa: $rsp 8 + .ra: .cfa -8 + ^
STACK CFI 27281 $rbx: .cfa -16 + ^ .cfa: $rsp 16 +
STACK CFI 27295 .cfa: $rsp 8 +
STACK CFI INIT 272a0 c .cfa: $rsp 8 + .ra: .cfa -8 + ^
STACK CFI INIT 272b0 1e .cfa: $rsp 8 + .ra: .cfa -8 + ^
STACK CFI INIT 272d0 1b7 .cfa: $rsp 8 + .ra: .cfa -8 + ^
STACK CFI 272d2 .cfa: $rsp 16 +
STACK CFI 272d4 .cfa: $rsp 24 +
STACK CFI 272d5 .cfa: $rsp 32 +
STACK CFI 272d9 $r14: .cfa -24 + ^ $r15: .cfa -16 + ^ $rbx: .cfa -32 + ^ .cfa: $rsp 80 +
STACK CFI 2746a .cfa: $rsp 32 +
STACK CFI 2746b .cfa: $rsp 24 +
STACK CFI 2746d .cfa: $rsp 16 +
STACK CFI 2746f .cfa: $rsp 8 +
STACK CFI 27470 .cfa: $rsp 80 +
STACK CFI INIT 27490 2ac .cfa: $rsp 8 + .ra: .cfa -8 + ^
STACK CFI 27492 .cfa: $rsp 16 +
STACK CFI 27493 .cfa: $rsp 24 +
STACK CFI 27497 $r14: .cfa -16 + ^ $rbx: .cfa -24 + ^ .cfa: $rsp 144 +
STACK CFI 27707 .cfa: $rsp 24 +
STACK CFI 27708 .cfa: $rsp 16 +
STACK CFI 2770a .cfa: $rsp 8 +
STACK CFI 2770b .cfa: $rsp 144 +
STACK CFI INIT 27740 155 .cfa: $rsp 8 + .ra: .cfa -8 + ^
STACK CFI 27741 .cfa: $rsp 16 +
STACK CFI 27745 $rbx: .cfa -16 + ^ .cfa: $rsp 48 +
STACK CFI 27893 .cfa: $rsp 16 +
STACK CFI 27894 .cfa: $rsp 8 +
STACK CFI INIT 278a0 211 .cfa: $rsp 8 + .ra: .cfa -8 + ^
STACK CFI 278a1 .cfa: $rsp 16 +
STACK CFI 278a3 .cfa: $rsp 24 +
STACK CFI 278a5 .cfa: $rsp 32 +
STACK CFI 278a7 .cfa: $rsp 40 +
STACK CFI 278a9 .cfa: $rsp 48 +
STACK CFI 278aa .cfa: $rsp 56 +
STACK CFI 278b1 $r12: .cfa -48 + ^ $r13: .cfa -40 + ^ $r14: .cfa -32 + ^ $r15: .cfa -24 + ^ $rbp: .cfa -16 + ^ $rbx: .cfa -56 + ^ .cfa: $rsp 336 +
STACK CFI 27aa6 .cfa: $rsp 56 +
STACK CFI 27aa7 .cfa: $rsp 48 +
STACK CFI 27aa9 .cfa: $rsp 40 +
STACK CFI 27aab .cfa: $rsp 32 +
STACK CFI 27aad .cfa: $rsp 24 +
STACK CFI 27aaf .cfa: $rsp 16 +
STACK CFI 27ab0 .cfa: $rsp 8 +
STACK CFI INIT 27ac0 b4 .cfa: $rsp 8 + .ra: .cfa -8 + ^
STACK CFI 27ac2 .cfa: $rsp 16 +
STACK CFI 27ac3 .cfa: $rsp 24 +
STACK CFI 27ac4 $r14: .cfa -16 + ^ $rbx: .cfa -24 + ^ .cfa: $rsp 32 +
STACK CFI 27b6c .cfa: $rsp 24 +
STACK CFI 27b6d .cfa: $rsp 16 +
STACK CFI 27b6f .cfa: $rsp 8 +
STACK CFI 27b70 .cfa: $rsp 32 +
STACK CFI INIT 27b80 26a .cfa: $rsp 8 + .ra: .cfa -8 + ^
STACK CFI 27b81 .cfa: $rsp 16 +
STACK CFI 27b83 .cfa: $rsp 24 +
STACK CFI 27b85 .cfa: $rsp 32 +
STACK CFI 27b87 .cfa: $rsp 40 +
STACK CFI 27b89 .cfa: $rsp 48 +
STACK CFI 27b8a .cfa: $rsp 56 +
STACK CFI 27b91 $r12: .cfa -48 + ^ $r13: .cfa -40 + ^ $r14: .cfa -32 + ^ $r15: .cfa -24 + ^ $rbp: .cfa -16 + ^ $rbx: .cfa -56 + ^ .cfa: $rsp 208 +
STACK CFI 27dd5 .cfa: $rsp 56 +
STACK CFI 27dd6 .cfa: $rsp 48 +
STACK CFI 27dd8 .cfa: $rsp 40 +
STACK CFI 27dda .cfa: $rsp 32 +
STACK CFI 27ddc .cfa: $rsp 24 +
STACK CFI 27dde .cfa: $rsp 16 +
STACK CFI 27ddf .cfa: $rsp 8 +
STACK CFI 27de0 .cfa: $rsp 208 +
STACK CFI INIT 27df0 fa .cfa: $rsp 8 + .ra: .cfa -8 + ^
STACK CFI 27df1 .cfa: $rsp 16 +
STACK CFI 27ec0 .cfa: $rsp 8 +
STACK CFI 27ec1 .cfa: $rsp 16 +
STACK CFI 27ee2 .cfa: $rsp 8 +
STACK CFI 27ee3 .cfa: $rsp 16 +
STACK CFI INIT 27ef0 191 .cfa: $rsp 8 + .ra: .cfa -8 + ^
STACK CFI 27ef1 .cfa: $rsp 16 +
STACK CFI 27ef5 $rbx: .cfa -16 + ^ .cfa: $rsp 64 +
STACK CFI 2807f .cfa: $rsp 16 +
STACK CFI 28080 .cfa: $rsp 8 +
STACK CFI INIT 28090 262 .cfa: $rsp 8 + .ra: .cfa -8 + ^
STACK CFI 28092 .cfa: $rsp 16 +
STACK CFI 28094 .cfa: $rsp 24 +
STACK CFI 28096 .cfa: $rsp 32 +
STACK CFI 28097 .cfa: $rsp 40 +
STACK CFI 2809b $r12: .cfa -32 + ^ $r14: .cfa -24 + ^ $r15: .cfa -16 + ^ $rbx: .cfa -40 + ^ .cfa: $rsp 80 +
STACK CFI 282e3 .cfa: $rsp 40 +
STACK CFI 282e4 .cfa: $rsp 32 +
STACK CFI 282e6 .cfa: $rsp 24 +
STACK CFI 282e8 .cfa: $rsp 16 +
STACK CFI 282ea .cfa: $rsp 8 +
STACK CFI 282eb .cfa: $rsp 80 +
STACK CFI INIT 28300 421 .cfa: $rsp 8 + .ra: .cfa -8 + ^
STACK CFI 28301 .cfa: $rsp 16 +
STACK CFI 28303 .cfa: $rsp 24 +
STACK CFI 28305 .cfa: $rsp 32 +
STACK CFI 28307 .cfa: $rsp 40 +
STACK CFI 28309 .cfa: $rsp 48 +
STACK CFI 2830a .cfa: $rsp 56 +
STACK CFI 28311 $r12: .cfa -48 + ^ $r13: .cfa -40 + ^ $r14: .cfa -32 + ^ $r15: .cfa -24 + ^ $rbp: .cfa -16 + ^ $rbx: .cfa -56 + ^ .cfa: $rsp 208 +
STACK CFI 286b4 .cfa: $rsp 56 +
STACK CFI 286b5 .cfa: $rsp 48 +
STACK CFI 286b7 .cfa: $rsp 40 +
STACK CFI 286b9 .cfa: $rsp 32 +
STACK CFI 286bb .cfa: $rsp 24 +
STACK CFI 286bd .cfa: $rsp 16 +
STACK CFI 286be .cfa: $rsp 8 +
STACK CFI 286bf .cfa: $rsp 208 +
STACK CFI INIT 28730 7 .cfa: $rsp 8 + .ra: .cfa -8 + ^
STACK CFI INIT 28740 3f .cfa: $rsp 8 + .ra: .cfa -8 + ^
STACK CFI 28744 .cfa: $rsp 23 +
STACK CFI 2877e .cfa: $rsp 8 +
STACK CFI INIT 28780 7 .cfa: $rsp 8 + .ra: .cfa -8 + ^
STACK CFI INIT 28790 5 .cfa: $rsp 8 + .ra: .cfa -8 + ^
STACK CFI INIT 287a0 111 .cfa: $rsp 8 + .ra: .cfa -8 + ^
STACK CFI 287a1 .cfa: $rsp 16 +
STACK CFI 287a5 $rbx: .cfa -16 + ^ .cfa: $rsp 64 +
STACK CFI 2889d .cfa: $rsp 16 +
STACK CFI 2889e .cfa: $rsp 8 +
STACK CFI 2889f .cfa: $rsp 64 +
STACK CFI INIT 288c0 111 .cfa: $rsp 8 + .ra: .cfa -8 + ^
STACK CFI 288c1 .cfa: $rsp 16 +
STACK CFI 288c5 $rbx: .cfa -16 + ^ .cfa: $rsp 64 +
STACK CFI 289bd .cfa: $rsp 16 +
STACK CFI 289be .cfa: $rsp 8 +
STACK CFI 289bf .cfa: $rsp 64 +
STACK CFI INIT 289e0 3e .cfa: $rsp 8 + .ra: .cfa -8 + ^
STACK CFI 289e4 .cfa: $rsp 80 +
STACK CFI 28a1d .cfa: $rsp 8 +
STACK CFI INIT 28a20 3e .cfa: $rsp 8 + .ra: .cfa -8 + ^
STACK CFI 28a24 .cfa: $rsp 80 +
STACK CFI 28a5d .cfa: $rsp 8 +
STACK CFI INIT 28a60 13 .cfa: $rsp 8 + .ra: .cfa -8 + ^
STACK CFI INIT 28a80 1 .cfa: $rsp 8 + .ra: .cfa -8 + ^
STACK CFI INIT 28a90 73 .cfa: $rsp 8 + .ra: .cfa -8 + ^
STACK CFI 28a92 .cfa: $rsp 16 +
STACK CFI 28a94 .cfa: $rsp 24 +
STACK CFI 28a95 $r14: .cfa -24 + ^ $r15: .cfa -16 + ^ $rbx: .cfa -32 + ^ .cfa: $rsp 32 +
STACK CFI 28a9b .cfa: $rsp 24 +
STACK CFI 28a9d .cfa: $rsp 16 +
STACK CFI 28a9f .cfa: $rsp 8 +
STACK CFI 28aa0 .cfa: $rsp 32 +
STACK CFI 28ad8 .cfa: $rsp 24 +
STACK CFI 28ada .cfa: $rsp 16 +
STACK CFI 28adc .cfa: $rsp 8 +
STACK CFI 28ae1 .cfa: $rsp 32 +
STACK CFI INIT 28b10 78 .cfa: $rsp 8 + .ra: .cfa -8 + ^
STACK CFI 28b11 .cfa: $rsp 16 +
STACK CFI 28b13 .cfa: $rsp 24 +
STACK CFI 28b15 .cfa: $rsp 32 +
STACK CFI 28b17 .cfa: $rsp 40 +
STACK CFI 28b18 .cfa: $rsp 48 +
STACK CFI 28b1c $r12: .cfa -40 + ^ $r14: .cfa -32 + ^ $r15: .cfa -24 + ^ $rbp: .cfa -16 + ^ $rbx: .cfa -48 + ^ .cfa: $rsp 64 +
STACK CFI 28b7f .cfa: $rsp 48 +
STACK CFI 28b80 .cfa: $rsp 40 +
STACK CFI 28b82 .cfa: $rsp 32 +
STACK CFI 28b84 .cfa: $rsp 24 +
STACK CFI 28b86 .cfa: $rsp 16 +
STACK CFI 28b87 .cfa: $rsp 8 +
STACK CFI INIT 28b90 4e .cfa: $rsp 8 + .ra: .cfa -8 + ^
STACK CFI 28b92 .cfa: $rsp 16 +
STACK CFI 28b93 .cfa: $rsp 24 +
STACK CFI 28b94 $r14: .cfa -16 + ^ $rbx: .cfa -24 + ^ .cfa: $rsp 32 +
STACK CFI 28bb0 .cfa: $rsp 24 +
STACK CFI 28bb1 .cfa: $rsp 16 +
STACK CFI 28bb3 .cfa: $rsp 8 +
STACK CFI 28bb8 .cfa: $rsp 32 +
STACK CFI 28bce .cfa: $rsp 24 +
STACK CFI 28bcf .cfa: $rsp 16 +
STACK CFI 28bd1 .cfa: $rsp 8 +
STACK CFI 28bd6 .cfa: $rsp 24 +
STACK CFI 28bd7 .cfa: $rsp 16 +
STACK CFI 28bd9 .cfa: $rsp 8 +
STACK CFI INIT 28be0 4e .cfa: $rsp 8 + .ra: .cfa -8 + ^
STACK CFI 28be2 .cfa: $rsp 16 +
STACK CFI 28be3 .cfa: $rsp 24 +
STACK CFI 28be4 $r14: .cfa -16 + ^ $rbx: .cfa -24 + ^ .cfa: $rsp 32 +
STACK CFI 28c00 .cfa: $rsp 24 +
STACK CFI 28c01 .cfa: $rsp 16 +
STACK CFI 28c03 .cfa: $rsp 8 +
STACK CFI 28c08 .cfa: $rsp 32 +
STACK CFI 28c1e .cfa: $rsp 24 +
STACK CFI 28c1f .cfa: $rsp 16 +
STACK CFI 28c21 .cfa: $rsp 8 +
STACK CFI 28c26 .cfa: $rsp 24 +
STACK CFI 28c27 .cfa: $rsp 16 +
STACK CFI 28c29 .cfa: $rsp 8 +
STACK CFI INIT 28c30 4e .cfa: $rsp 8 + .ra: .cfa -8 + ^
STACK CFI 28c32 .cfa: $rsp 16 +
STACK CFI 28c33 .cfa: $rsp 24 +
STACK CFI 28c34 $r14: .cfa -16 + ^ $rbx: .cfa -24 + ^ .cfa: $rsp 32 +
STACK CFI 28c50 .cfa: $rsp 24 +
STACK CFI 28c51 .cfa: $rsp 16 +
STACK CFI 28c53 .cfa: $rsp 8 +
STACK CFI 28c58 .cfa: $rsp 32 +
STACK CFI 28c6e .cfa: $rsp 24 +
STACK CFI 28c6f .cfa: $rsp 16 +
STACK CFI 28c71 .cfa: $rsp 8 +
STACK CFI 28c76 .cfa: $rsp 24 +
STACK CFI 28c77 .cfa: $rsp 16 +
STACK CFI 28c79 .cfa: $rsp 8 +
STACK CFI INIT 28c80 15 .cfa: $rsp 8 + .ra: .cfa -8 + ^
STACK CFI INIT 28ca0 8 .cfa: $rsp 8 + .ra: .cfa -8 + ^
STACK CFI INIT 28cb0 f .cfa: $rsp 8 + .ra: .cfa -8 + ^
STACK CFI INIT 28cc0 16 .cfa: $rsp 8 + .ra: .cfa -8 + ^
STACK CFI INIT 28ce0 8 .cfa: $rsp 8 + .ra: .cfa -8 + ^
STACK CFI INIT 28cf0 13c .cfa: $rsp 8 + .ra: .cfa -8 + ^
STACK CFI 28cf1 .cfa: $rsp 16 +
STACK CFI 28cf2 .cfa: $rsp 24 +
STACK CFI 28cf3 $rbp: .cfa -16 + ^ $rbx: .cfa -24 + ^ .cfa: $rsp 32 +
STACK CFI 28e10 .cfa: $rsp 24 +
STACK CFI 28e11 .cfa: $rsp 16 +
STACK CFI 28e12 .cfa: $rsp 8 +
STACK CFI 28e13 .cfa: $rsp 32 +
STACK CFI INIT 28e30 8 .cfa: $rsp 8 + .ra: .cfa -8 + ^
STACK CFI INIT 28e40 41 .cfa: $rsp 8 + .ra: .cfa -8 + ^
STACK CFI 28e44 .cfa: $rsp 80 +
STACK CFI 28e80 .cfa: $rsp 8 +
STACK CFI INIT 28e90 41 .cfa: $rsp 8 + .ra: .cfa -8 + ^
STACK CFI 28e94 .cfa: $rsp 80 +
STACK CFI 28ed0 .cfa: $rsp 8 +
STACK CFI INIT 28ee0 41 .cfa: $rsp 8 + .ra: .cfa -8 + ^
STACK CFI 28ee4 .cfa: $rsp 80 +
STACK CFI 28f20 .cfa: $rsp 8 +
STACK CFI INIT 28f30 61 .cfa: $rsp 8 + .ra: .cfa -8 + ^
STACK CFI 28f32 .cfa: $rsp 16 +
STACK CFI 28f34 .cfa: $rsp 24 +
STACK CFI 28f35 $r14: .cfa -24 + ^ $r15: .cfa -16 + ^ $rbx: .cfa -32 + ^ .cfa: $rsp 32 +
STACK CFI 28f73 .cfa: $rsp 24 +
STACK CFI 28f75 .cfa: $rsp 16 +
STACK CFI 28f77 .cfa: $rsp 8 +
STACK CFI 28f78 .cfa: $rsp 32 +
STACK CFI INIT 28fa0 67 .cfa: $rsp 8 + .ra: .cfa -8 + ^
STACK CFI 28fa1 .cfa: $rsp 16 +
STACK CFI 28fa5 $rbx: .cfa -16 + ^ .cfa: $rsp 48 +
STACK CFI 28ff4 .cfa: $rsp 16 +
STACK CFI 28ff5 .cfa: $rsp 8 +
STACK CFI 28ff6 .cfa: $rsp 48 +
STACK CFI INIT 29010 67 .cfa: $rsp 8 + .ra: .cfa -8 + ^
STACK CFI 29011 .cfa: $rsp 16 +
STACK CFI 29015 $rbx: .cfa -16 + ^ .cfa: $rsp 48 +
STACK CFI 29064 .cfa: $rsp 16 +
STACK CFI 29065 .cfa: $rsp 8 +
STACK CFI 29066 .cfa: $rsp 48 +
STACK CFI INIT 29080 c .cfa: $rsp 8 + .ra: .cfa -8 + ^
STACK CFI INIT 29090 67 .cfa: $rsp 8 + .ra: .cfa -8 + ^
STACK CFI 29091 .cfa: $rsp 16 +
STACK CFI 29095 $rbx: .cfa -16 + ^ .cfa: $rsp 48 +
STACK CFI 290e4 .cfa: $rsp 16 +
STACK CFI 290e5 .cfa: $rsp 8 +
STACK CFI 290e6 .cfa: $rsp 48 +
STACK CFI INIT 29100 67 .cfa: $rsp 8 + .ra: .cfa -8 + ^
STACK CFI 29101 .cfa: $rsp 16 +
STACK CFI 29105 $rbx: .cfa -16 + ^ .cfa: $rsp 48 +
STACK CFI 29154 .cfa: $rsp 16 +
STACK CFI 29155 .cfa: $rsp 8 +
STACK CFI 29156 .cfa: $rsp 48 +
STACK CFI INIT 29170 9f .cfa: $rsp 8 + .ra: .cfa -8 + ^
STACK CFI 29172 .cfa: $rsp 16 +
STACK CFI 29174 .cfa: $rsp 24 +
STACK CFI 29175 .cfa: $rsp 32 +
STACK CFI 29179 $r14: .cfa -24 + ^ $r15: .cfa -16 + ^ $rbx: .cfa -32 + ^ .cfa: $rsp 48 +
STACK CFI 291f8 .cfa: $rsp 32 +
STACK CFI 291f9 .cfa: $rsp 24 +
STACK CFI 291fb .cfa: $rsp 16 +
STACK CFI 291fd .cfa: $rsp 8 +
STACK CFI 291fe .cfa: $rsp 48 +
STACK CFI INIT 29210 62 .cfa: $rsp 8 + .ra: .cfa -8 + ^
STACK CFI 29211 .cfa: $rsp 16 +
STACK CFI 29215 $rbx: .cfa -16 + ^ .cfa: $rsp 64 +
STACK CFI 29259 .cfa: $rsp 16 +
STACK CFI 2925a .cfa: $rsp 8 +
STACK CFI 2925b .cfa: $rsp 64 +
STACK CFI INIT 29280 13 .cfa: $rsp 8 + .ra: .cfa -8 + ^
STACK CFI INIT 292a0 78 .cfa: $rsp 8 + .ra: .cfa -8 + ^
STACK CFI 292a1 $rbx: .cfa -16 + ^ .cfa: $rsp 16 +
STACK CFI 292b9 .cfa: $rsp 8 +
STACK CFI 292ba .cfa: $rsp 16 +
STACK CFI 292ce .cfa: $rsp 8 +
STACK CFI 292cf .cfa: $rsp 16 +
STACK CFI 29317 .cfa: $rsp 8 +
STACK CFI INIT 29320 b .cfa: $rsp 8 + .ra: .cfa -8 + ^
STACK CFI INIT 29330 96 .cfa: $rsp 8 + .ra: .cfa -8 + ^
STACK CFI 29332 .cfa: $rsp 16 +
STACK CFI 29334 .cfa: $rsp 24 +
STACK CFI 29336 .cfa: $rsp 32 +
STACK CFI 29338 .cfa: $rsp 40 +
STACK CFI 29339 $r12: .cfa -40 + ^ $r13: .cfa -32 + ^ $r14: .cfa -24 + ^ $r15: .cfa -16 + ^ $rbx: .cfa -48 + ^ .cfa: $rsp 48 +
STACK CFI 29397 .cfa: $rsp 40 +
STACK CFI 29399 .cfa: $rsp 32 +
STACK CFI 2939b .cfa: $rsp 24 +
STACK CFI 2939d .cfa: $rsp 16 +
STACK CFI 2939f .cfa: $rsp 8 +
STACK CFI 293a4 .cfa: $rsp 48 +
STACK CFI 293a5 .cfa: $rsp 40 +
STACK CFI 293a7 .cfa: $rsp 32 +
STACK CFI 293a9 .cfa: $rsp 24 +
STACK CFI 293ab .cfa: $rsp 16 +
STACK CFI 293ad .cfa: $rsp 8 +
STACK CFI 293ae .cfa: $rsp 48 +
STACK CFI INIT 293d0 73 .cfa: $rsp 8 + .ra: .cfa -8 + ^
STACK CFI 293d2 .cfa: $rsp 16 +
STACK CFI 293d4 .cfa: $rsp 24 +
STACK CFI 293d5 $r14: .cfa -24 + ^ $r15: .cfa -16 + ^ $rbx: .cfa -32 + ^ .cfa: $rsp 32 +
STACK CFI 293db .cfa: $rsp 24 +
STACK CFI 293dd .cfa: $rsp 16 +
STACK CFI 293df .cfa: $rsp 8 +
STACK CFI 293e0 .cfa: $rsp 32 +
STACK CFI 29418 .cfa: $rsp 24 +
STACK CFI 2941a .cfa: $rsp 16 +
STACK CFI 2941c .cfa: $rsp 8 +
STACK CFI 29421 .cfa: $rsp 32 +
STACK CFI INIT 29450 51 .cfa: $rsp 8 + .ra: .cfa -8 + ^
STACK CFI 29452 .cfa: $rsp 16 +
STACK CFI 29453 .cfa: $rsp 24 +
STACK CFI 29454 $r14: .cfa -16 + ^ $rbx: .cfa -24 + ^ .cfa: $rsp 32 +
STACK CFI 29478 .cfa: $rsp 24 +
STACK CFI 29479 .cfa: $rsp 16 +
STACK CFI 2947b .cfa: $rsp 8 +
STACK CFI 29480 .cfa: $rsp 32 +
STACK CFI 29484 .cfa: $rsp 24 +
STACK CFI 29485 .cfa: $rsp 16 +
STACK CFI 29487 .cfa: $rsp 8 +
STACK CFI 29488 .cfa: $rsp 32 +
STACK CFI INIT 294b0 8 .cfa: $rsp 8 + .ra: .cfa -8 + ^
STACK CFI INIT 294c0 10 .cfa: $rsp 8 + .ra: .cfa -8 + ^
STACK CFI INIT 294d0 f .cfa: $rsp 8 + .ra: .cfa -8 + ^
STACK CFI INIT 294e0 16 .cfa: $rsp 8 + .ra: .cfa -8 + ^
STACK CFI INIT 29500 16 .cfa: $rsp 8 + .ra: .cfa -8 + ^
STACK CFI INIT 29520 1f2 .cfa: $rsp 8 + .ra: .cfa -8 + ^
STACK CFI 29521 .cfa: $rsp 16 +
STACK CFI 29523 .cfa: $rsp 24 +
STACK CFI 29525 .cfa: $rsp 32 +
STACK CFI 29527 .cfa: $rsp 40 +
STACK CFI 29529 .cfa: $rsp 48 +
STACK CFI 2952a .cfa: $rsp 56 +
STACK CFI 2952e $r12: .cfa -48 + ^ $r13: .cfa -40 + ^ $r14: .cfa -32 + ^ $r15: .cfa -24 + ^ $rbp: .cfa -16 + ^ $rbx: .cfa -56 + ^ .cfa: $rsp 128 +
STACK CFI 296ba .cfa: $rsp 56 +
STACK CFI 296bb .cfa: $rsp 48 +
STACK CFI 296bd .cfa: $rsp 40 +
STACK CFI 296bf .cfa: $rsp 32 +
STACK CFI 296c1 .cfa: $rsp 24 +
STACK CFI 296c3 .cfa: $rsp 16 +
STACK CFI 296c4 .cfa: $rsp 8 +
STACK CFI 296c5 .cfa: $rsp 128 +
STACK CFI INIT 29720 153 .cfa: $rsp 8 + .ra: .cfa -8 + ^
STACK CFI 29722 .cfa: $rsp 16 +
STACK CFI 29724 .cfa: $rsp 24 +
STACK CFI 29726 .cfa: $rsp 32 +
STACK CFI 29727 .cfa: $rsp 40 +
STACK CFI 2972b $r12: .cfa -32 + ^ $r14: .cfa -24 + ^ $r15: .cfa -16 + ^ $rbx: .cfa -40 + ^ .cfa: $rsp 80 +
STACK CFI 29844 .cfa: $rsp 40 +
STACK CFI 29845 .cfa: $rsp 32 +
STACK CFI 29847 .cfa: $rsp 24 +
STACK CFI 29849 .cfa: $rsp 16 +
STACK CFI 2984b .cfa: $rsp 8 +
STACK CFI 2984c .cfa: $rsp 80 +
STACK CFI INIT 29880 92 .cfa: $rsp 8 + .ra: .cfa -8 + ^
STACK CFI 29882 .cfa: $rsp 16 +
STACK CFI 29883 .cfa: $rsp 24 +
STACK CFI 29887 $r14: .cfa -16 + ^ $rbx: .cfa -24 + ^ .cfa: $rsp 48 +
STACK CFI 298ed .cfa: $rsp 24 +
STACK CFI 298ee .cfa: $rsp 16 +
STACK CFI 298f0 .cfa: $rsp 8 +
STACK CFI 298f1 .cfa: $rsp 48 +
STACK CFI INIT 29920 2c8 .cfa: $rsp 8 + .ra: .cfa -8 + ^
STACK CFI 29921 .cfa: $rsp 16 +
STACK CFI 29923 .cfa: $rsp 24 +
STACK CFI 29925 .cfa: $rsp 32 +
STACK CFI 29927 .cfa: $rsp 40 +
STACK CFI 29929 .cfa: $rsp 48 +
STACK CFI 2992a .cfa: $rsp 56 +
STACK CFI 2992e $r12: .cfa -48 + ^ $r13: .cfa -40 + ^ $r14: .cfa -32 + ^ $r15: .cfa -24 + ^ $rbp: .cfa -16 + ^ $rbx: .cfa -56 + ^ .cfa: $rsp 112 +
STACK CFI 29a7b .cfa: $rsp 56 +
STACK CFI 29a7c .cfa: $rsp 48 +
STACK CFI 29a7e .cfa: $rsp 40 +
STACK CFI 29a80 .cfa: $rsp 32 +
STACK CFI 29a82 .cfa: $rsp 24 +
STACK CFI 29a84 .cfa: $rsp 16 +
STACK CFI 29a85 .cfa: $rsp 8 +
STACK CFI 29a86 .cfa: $rsp 112 +
STACK CFI INIT 29bf0 16e .cfa: $rsp 8 + .ra: .cfa -8 + ^
STACK CFI 29bf1 .cfa: $rsp 16 +
STACK CFI 29bf3 .cfa: $rsp 24 +
STACK CFI 29bf5 .cfa: $rsp 32 +
STACK CFI 29bf7 .cfa: $rsp 40 +
STACK CFI 29bf9 .cfa: $rsp 48 +
STACK CFI 29bfa .cfa: $rsp 56 +
STACK CFI 29bfe $r12: .cfa -48 + ^ $r13: .cfa -40 + ^ $r14: .cfa -32 + ^ $r15: .cfa -24 + ^ $rbp: .cfa -16 + ^ $rbx: .cfa -56 + ^ .cfa: $rsp 112 +
STACK CFI 29d14 .cfa: $rsp 56 +
STACK CFI 29d15 .cfa: $rsp 48 +
STACK CFI 29d17 .cfa: $rsp 40 +
STACK CFI 29d19 .cfa: $rsp 32 +
STACK CFI 29d1b .cfa: $rsp 24 +
STACK CFI 29d1d .cfa: $rsp 16 +
STACK CFI 29d1e .cfa: $rsp 8 +
STACK CFI 29d1f .cfa: $rsp 112 +
STACK CFI INIT 29d60 127 .cfa: $rsp 8 + .ra: .cfa -8 + ^
STACK CFI 29d62 .cfa: $rsp 16 +
STACK CFI 29d64 .cfa: $rsp 24 +
STACK CFI 29d65 .cfa: $rsp 32 +
STACK CFI 29d69 $r14: .cfa -24 + ^ $r15: .cfa -16 + ^ $rbx: .cfa -32 + ^ .cfa: $rsp 64 +
STACK CFI 29e3a .cfa: $rsp 32 +
STACK CFI 29e3b .cfa: $rsp 24 +
STACK CFI 29e3d .cfa: $rsp 16 +
STACK CFI 29e3f .cfa: $rsp 8 +
STACK CFI 29e40 .cfa: $rsp 64 +
STACK CFI INIT 29e90 91 .cfa: $rsp 8 + .ra: .cfa -8 + ^
STACK CFI 29e92 .cfa: $rsp 16 +
STACK CFI 29e93 .cfa: $rsp 24 +
STACK CFI 29e94 $r14: .cfa -16 + ^ $rbx: .cfa -24 + ^ .cfa: $rsp 32 +
STACK CFI 29f11 .cfa: $rsp 24 +
STACK CFI 29f12 .cfa: $rsp 16 +
STACK CFI 29f14 .cfa: $rsp 8 +
STACK CFI 29f19 .cfa: $rsp 32 +
STACK CFI 29f1d .cfa: $rsp 24 +
STACK CFI 29f1e .cfa: $rsp 16 +
STACK CFI 29f20 .cfa: $rsp 8 +
STACK CFI INIT 29f30 56 .cfa: $rsp 8 + .ra: .cfa -8 + ^
STACK CFI 29f32 .cfa: $rsp 16 +
STACK CFI 29f33 .cfa: $rsp 24 +
STACK CFI 29f34 $r14: .cfa -16 + ^ $rbx: .cfa -24 + ^ .cfa: $rsp 32 +
STACK CFI 29f76 .cfa: $rsp 24 +
STACK CFI 29f77 .cfa: $rsp 16 +
STACK CFI 29f79 .cfa: $rsp 8 +
STACK CFI 29f7e .cfa: $rsp 32 +
STACK CFI 29f82 .cfa: $rsp 24 +
STACK CFI 29f83 .cfa: $rsp 16 +
STACK CFI 29f85 .cfa: $rsp 8 +
STACK CFI INIT 29f90 86 .cfa: $rsp 8 + .ra: .cfa -8 + ^
STACK CFI 29f92 .cfa: $rsp 16 +
STACK CFI 29f94 .cfa: $rsp 24 +
STACK CFI 29f95 $r14: .cfa -24 + ^ $r15: .cfa -16 + ^ $rbx: .cfa -32 + ^ .cfa: $rsp 32 +
STACK CFI 29ff2 .cfa: $rsp 24 +
STACK CFI 29ff4 .cfa: $rsp 16 +
STACK CFI 29ff6 .cfa: $rsp 8 +
STACK CFI 29ffb .cfa: $rsp 32 +
STACK CFI 29ffc .cfa: $rsp 24 +
STACK CFI 29ffe .cfa: $rsp 16 +
STACK CFI 2a000 .cfa: $rsp 8 +
STACK CFI 2a001 .cfa: $rsp 32 +
STACK CFI INIT 2a020 b .cfa: $rsp 8 + .ra: .cfa -8 + ^
STACK CFI INIT 2a030 9 .cfa: $rsp 8 + .ra: .cfa -8 + ^
STACK CFI INIT 2a040 17 .cfa: $rsp 8 + .ra: .cfa -8 + ^
STACK CFI INIT 2a060 13 .cfa: $rsp 8 + .ra: .cfa -8 + ^
STACK CFI INIT 2a080 18 .cfa: $rsp 8 + .ra: .cfa -8 + ^
STACK CFI INIT 2a0a0 73 .cfa: $rsp 8 + .ra: .cfa -8 + ^
STACK CFI 2a0a2 .cfa: $rsp 16 +
STACK CFI 2a0a4 .cfa: $rsp 24 +
STACK CFI 2a0a5 $r14: .cfa -24 + ^ $r15: .cfa -16 + ^ $rbx: .cfa -32 + ^ .cfa: $rsp 32 +
STACK CFI 2a0ab .cfa: $rsp 24 +
STACK CFI 2a0ad .cfa: $rsp 16 +
STACK CFI 2a0af .cfa: $rsp 8 +
STACK CFI 2a0b0 .cfa: $rsp 32 +
STACK CFI 2a0e8 .cfa: $rsp 24 +
STACK CFI 2a0ea .cfa: $rsp 16 +
STACK CFI 2a0ec .cfa: $rsp 8 +
STACK CFI 2a0f1 .cfa: $rsp 32 +
STACK CFI INIT 2a120 18 .cfa: $rsp 8 + .ra: .cfa -8 + ^
STACK CFI INIT 2a140 56 .cfa: $rsp 8 + .ra: .cfa -8 + ^
STACK CFI 2a142 .cfa: $rsp 16 +
STACK CFI 2a143 .cfa: $rsp 24 +
STACK CFI 2a144 $r14: .cfa -16 + ^ $rbx: .cfa -24 + ^ .cfa: $rsp 32 +
STACK CFI 2a16d .cfa: $rsp 24 +
STACK CFI 2a16e .cfa: $rsp 16 +
STACK CFI 2a170 .cfa: $rsp 8 +
STACK CFI 2a175 .cfa: $rsp 32 +
STACK CFI 2a179 .cfa: $rsp 24 +
STACK CFI 2a17a .cfa: $rsp 16 +
STACK CFI 2a17c .cfa: $rsp 8 +
STACK CFI 2a17d .cfa: $rsp 32 +
STACK CFI INIT 2a1a0 10 .cfa: $rsp 8 + .ra: .cfa -8 + ^
STACK CFI INIT 2a1b0 75 .cfa: $rsp 8 + .ra: .cfa -8 + ^
STACK CFI 2a1b2 .cfa: $rsp 16 +
STACK CFI 2a1b3 .cfa: $rsp 24 +
STACK CFI 2a1b4 $r14: .cfa -16 + ^ $rbx: .cfa -24 + ^ .cfa: $rsp 32 +
STACK CFI 2a20a .cfa: $rsp 24 +
STACK CFI 2a20b .cfa: $rsp 16 +
STACK CFI 2a20d .cfa: $rsp 8 +
STACK CFI 2a212 .cfa: $rsp 32 +
STACK CFI INIT 2a230 1e .cfa: $rsp 8 + .ra: .cfa -8 + ^
STACK CFI INIT 2a250 10 .cfa: $rsp 8 + .ra: .cfa -8 + ^
STACK CFI INIT 2a260 f .cfa: $rsp 8 + .ra: .cfa -8 + ^
STACK CFI INIT 2a270 16 .cfa: $rsp 8 + .ra: .cfa -8 + ^
STACK CFI INIT 2a290 2a .cfa: $rsp 8 + .ra: .cfa -8 + ^
STACK CFI 2a291 .cfa: $rsp 16 +
STACK CFI 2a295 $rbx: .cfa -16 + ^ .cfa: $rsp 32 +
STACK CFI 2a2b8 .cfa: $rsp 16 +
STACK CFI 2a2b9 .cfa: $rsp 8 +
STACK CFI INIT 2a2c0 1a8 .cfa: $rsp 8 + .ra: .cfa -8 + ^
STACK CFI 2a2c2 .cfa: $rsp 16 +
STACK CFI 2a2c4 .cfa: $rsp 24 +
STACK CFI 2a2c5 .cfa: $rsp 32 +
STACK CFI 2a2cc $r14: .cfa -24 + ^ $r15: .cfa -16 + ^ $rbx: .cfa -32 + ^ .cfa: $rsp 192 +
STACK CFI 2a3e7 .cfa: $rsp 32 +
STACK CFI 2a3e8 .cfa: $rsp 24 +
STACK CFI 2a3ea .cfa: $rsp 16 +
STACK CFI 2a3ec .cfa: $rsp 8 +
STACK CFI 2a3ed .cfa: $rsp 192 +
STACK CFI INIT 2a470 191 .cfa: $rsp 8 + .ra: .cfa -8 + ^
STACK CFI 2a472 .cfa: $rsp 16 +
STACK CFI 2a474 .cfa: $rsp 24 +
STACK CFI 2a476 .cfa: $rsp 32 +
STACK CFI 2a477 .cfa: $rsp 40 +
STACK CFI 2a47b $r12: .cfa -32 + ^ $r14: .cfa -24 + ^ $r15: .cfa -16 + ^ $rbx: .cfa -40 + ^ .cfa: $rsp 80 +
STACK CFI 2a57c .cfa: $rsp 40 +
STACK CFI 2a57d .cfa: $rsp 32 +
STACK CFI 2a57f .cfa: $rsp 24 +
STACK CFI 2a581 .cfa: $rsp 16 +
STACK CFI 2a583 .cfa: $rsp 8 +
STACK CFI 2a584 .cfa: $rsp 80 +
STACK CFI INIT 2a610 101 .cfa: $rsp 8 + .ra: .cfa -8 + ^
STACK CFI 2a612 .cfa: $rsp 16 +
STACK CFI 2a613 .cfa: $rsp 24 +
STACK CFI 2a617 $r14: .cfa -16 + ^ $rbx: .cfa -24 + ^ .cfa: $rsp 112 +
STACK CFI 2a6bf .cfa: $rsp 24 +
STACK CFI 2a6c0 .cfa: $rsp 16 +
STACK CFI 2a6c2 .cfa: $rsp 8 +
STACK CFI 2a6c3 .cfa: $rsp 112 +
STACK CFI INIT 2a720 10b .cfa: $rsp 8 + .ra: .cfa -8 + ^
STACK CFI 2a722 .cfa: $rsp 16 +
STACK CFI 2a724 .cfa: $rsp 24 +
STACK CFI 2a725 .cfa: $rsp 32 +
STACK CFI 2a729 $r14: .cfa -24 + ^ $r15: .cfa -16 + ^ $rbx: .cfa -32 + ^ .cfa: $rsp 64 +
STACK CFI 2a7d9 .cfa: $rsp 32 +
STACK CFI 2a7da .cfa: $rsp 24 +
STACK CFI 2a7dc .cfa: $rsp 16 +
STACK CFI 2a7de .cfa: $rsp 8 +
STACK CFI 2a7df .cfa: $rsp 64 +
STACK CFI INIT 2a830 22e .cfa: $rsp 8 + .ra: .cfa -8 + ^
STACK CFI 2a832 .cfa: $rsp 16 +
STACK CFI 2a834 .cfa: $rsp 24 +
STACK CFI 2a836 .cfa: $rsp 32 +
STACK CFI 2a837 .cfa: $rsp 40 +
STACK CFI 2a83b $r12: .cfa -32 + ^ $r14: .cfa -24 + ^ $r15: .cfa -16 + ^ $rbx: .cfa -40 + ^ .cfa: $rsp 128 +
STACK CFI 2a9d4 .cfa: $rsp 40 +
STACK CFI 2a9d5 .cfa: $rsp 32 +
STACK CFI 2a9d7 .cfa: $rsp 24 +
STACK CFI 2a9d9 .cfa: $rsp 16 +
STACK CFI 2a9db .cfa: $rsp 8 +
STACK CFI 2a9dc .cfa: $rsp 128 +
STACK CFI INIT 2aa60 20f .cfa: $rsp 8 + .ra: .cfa -8 + ^
STACK CFI 2aa62 .cfa: $rsp 16 +
STACK CFI 2aa64 .cfa: $rsp 24 +
STACK CFI 2aa65 .cfa: $rsp 32 +
STACK CFI 2aa69 $r14: .cfa -24 + ^ $r15: .cfa -16 + ^ $rbx: .cfa -32 + ^ .cfa: $rsp 128 +
STACK CFI 2abe3 .cfa: $rsp 32 +
STACK CFI 2abe4 .cfa: $rsp 24 +
STACK CFI 2abe6 .cfa: $rsp 16 +
STACK CFI 2abe8 .cfa: $rsp 8 +
STACK CFI 2abe9 .cfa: $rsp 128 +
STACK CFI INIT 2ac70 1a1 .cfa: $rsp 8 + .ra: .cfa -8 + ^
STACK CFI 2ac72 .cfa: $rsp 16 +
STACK CFI 2ac74 .cfa: $rsp 24 +
STACK CFI 2ac75 .cfa: $rsp 32 +
STACK CFI 2ac79 $r14: .cfa -24 + ^ $r15: .cfa -16 + ^ $rbx: .cfa -32 + ^ .cfa: $rsp 80 +
STACK CFI 2ade2 .cfa: $rsp 32 +
STACK CFI 2ade3 .cfa: $rsp 24 +
STACK CFI 2ade5 .cfa: $rsp 16 +
STACK CFI 2ade7 .cfa: $rsp 8 +
STACK CFI 2ade8 .cfa: $rsp 80 +
STACK CFI INIT 2ae20 206 .cfa: $rsp 8 + .ra: .cfa -8 + ^
STACK CFI 2ae21 .cfa: $rsp 16 +
STACK CFI 2ae23 .cfa: $rsp 24 +
STACK CFI 2ae25 .cfa: $rsp 32 +
STACK CFI 2ae27 .cfa: $rsp 40 +
STACK CFI 2ae29 .cfa: $rsp 48 +
STACK CFI 2ae2a .cfa: $rsp 56 +
STACK CFI 2ae2e $r12: .cfa -48 + ^ $r13: .cfa -40 + ^ $r14: .cfa -32 + ^ $r15: .cfa -24 + ^ $rbp: .cfa -16 + ^ $rbx: .cfa -56 + ^ .cfa: $rsp 160 +
STACK CFI 2afc6 .cfa: $rsp 56 +
STACK CFI 2afc7 .cfa: $rsp 48 +
STACK CFI 2afc9 .cfa: $rsp 40 +
STACK CFI 2afcb .cfa: $rsp 32 +
STACK CFI 2afcd .cfa: $rsp 24 +
STACK CFI 2afcf .cfa: $rsp 16 +
STACK CFI 2afd0 .cfa: $rsp 8 +
STACK CFI 2afd1 .cfa: $rsp 160 +
STACK CFI INIT 2b030 4b9 .cfa: $rsp 8 + .ra: .cfa -8 + ^
STACK CFI 2b032 .cfa: $rsp 16 +
STACK CFI 2b034 .cfa: $rsp 24 +
STACK CFI 2b036 .cfa: $rsp 32 +
STACK CFI 2b037 .cfa: $rsp 40 +
STACK CFI 2b03e $r12: .cfa -32 + ^ $r14: .cfa -24 + ^ $r15: .cfa -16 + ^ $rbx: .cfa -40 + ^ .cfa: $rsp 224 +
STACK CFI 2b30b .cfa: $rsp 40 +
STACK CFI 2b30c .cfa: $rsp 32 +
STACK CFI 2b30e .cfa: $rsp 24 +
STACK CFI 2b310 .cfa: $rsp 16 +
STACK CFI 2b312 .cfa: $rsp 8 +
STACK CFI 2b313 .cfa: $rsp 224 +
STACK CFI INIT 2b4f0 1ef .cfa: $rsp 8 + .ra: .cfa -8 + ^
STACK CFI 2b4f1 .cfa: $rsp 16 +
STACK CFI 2b4f3 .cfa: $rsp 24 +
STACK CFI 2b4f5 .cfa: $rsp 32 +
STACK CFI 2b4f7 .cfa: $rsp 40 +
STACK CFI 2b4f9 .cfa: $rsp 48 +
STACK CFI 2b4fa .cfa: $rsp 56 +
STACK CFI 2b4fe $r12: .cfa -48 + ^ $r13: .cfa -40 + ^ $r14: .cfa -32 + ^ $r15: .cfa -24 + ^ $rbp: .cfa -16 + ^ $rbx: .cfa -56 + ^ .cfa: $rsp 112 +
STACK CFI 2b677 .cfa: $rsp 56 +
STACK CFI 2b678 .cfa: $rsp 48 +
STACK CFI 2b67a .cfa: $rsp 40 +
STACK CFI 2b67c .cfa: $rsp 32 +
STACK CFI 2b67e .cfa: $rsp 24 +
STACK CFI 2b680 .cfa: $rsp 16 +
STACK CFI 2b681 .cfa: $rsp 8 +
STACK CFI 2b682 .cfa: $rsp 112 +
STACK CFI INIT 2b6e0 348 .cfa: $rsp 8 + .ra: .cfa -8 + ^
STACK CFI 2b6e1 .cfa: $rsp 16 +
STACK CFI 2b6e3 .cfa: $rsp 24 +
STACK CFI 2b6e5 .cfa: $rsp 32 +
STACK CFI 2b6e7 .cfa: $rsp 40 +
STACK CFI 2b6e9 .cfa: $rsp 48 +
STACK CFI 2b6ea .cfa: $rsp 56 +
STACK CFI 2b6ee $r12: .cfa -48 + ^ $r13: .cfa -40 + ^ $r14: .cfa -32 + ^ $r15: .cfa -24 + ^ $rbp: .cfa -16 + ^ $rbx: .cfa -56 + ^ .cfa: $rsp 160 +
STACK CFI 2ba1d .cfa: $rsp 56 +
STACK CFI 2ba1e .cfa: $rsp 48 +
STACK CFI 2ba20 .cfa: $rsp 40 +
STACK CFI 2ba22 .cfa: $rsp 32 +
STACK CFI 2ba24 .cfa: $rsp 24 +
STACK CFI 2ba26 .cfa: $rsp 16 +
STACK CFI 2ba27 .cfa: $rsp 8 +
STACK CFI INIT 2ba30 265 .cfa: $rsp 8 + .ra: .cfa -8 + ^
STACK CFI 2ba32 .cfa: $rsp 16 +
STACK CFI 2ba33 .cfa: $rsp 24 +
STACK CFI 2ba37 $r14: .cfa -16 + ^ $rbx: .cfa -24 + ^ .cfa: $rsp 144 +
STACK CFI 2bad5 .cfa: $rsp 24 +
STACK CFI 2bad6 .cfa: $rsp 16 +
STACK CFI 2bad8 .cfa: $rsp 8 +
STACK CFI 2bad9 .cfa: $rsp 144 +
STACK CFI INIT 2bca0 45 .cfa: $rsp 8 + .ra: .cfa -8 + ^
STACK CFI INIT 2bcf0 95 .cfa: $rsp 8 + .ra: .cfa -8 + ^
STACK CFI 2bcf2 .cfa: $rsp 16 +
STACK CFI 2bcf4 .cfa: $rsp 24 +
STACK CFI 2bcf6 .cfa: $rsp 32 +
STACK CFI 2bcf7 .cfa: $rsp 40 +
STACK CFI 2bcfb $r12: .cfa -32 + ^ $r14: .cfa -24 + ^ $r15: .cfa -16 + ^ $rbx: .cfa -40 + ^ .cfa: $rsp 64 +
STACK CFI 2bd7d .cfa: $rsp 40 +
STACK CFI 2bd7e .cfa: $rsp 32 +
STACK CFI 2bd80 .cfa: $rsp 24 +
STACK CFI 2bd82 .cfa: $rsp 16 +
STACK CFI 2bd84 .cfa: $rsp 8 +
STACK CFI INIT 2bd90 8 .cfa: $rsp 8 + .ra: .cfa -8 + ^
STACK CFI 2bd91 .cfa: $rsp 16 +
STACK CFI INIT 2bda0 b .cfa: $rsp 8 + .ra: .cfa -8 + ^
STACK CFI INIT 2bdb0 13 .cfa: $rsp 8 + .ra: .cfa -8 + ^
STACK CFI INIT 2bdd0 1 .cfa: $rsp 8 + .ra: .cfa -8 + ^
STACK CFI INIT 2bde0 75 .cfa: $rsp 8 + .ra: .cfa -8 + ^
STACK CFI 2bde2 .cfa: $rsp 16 +
STACK CFI 2bde3 .cfa: $rsp 24 +
STACK CFI 2bde4 $r14: .cfa -16 + ^ $rbx: .cfa -24 + ^ .cfa: $rsp 32 +
STACK CFI 2be3a .cfa: $rsp 24 +
STACK CFI 2be3b .cfa: $rsp 16 +
STACK CFI 2be3d .cfa: $rsp 8 +
STACK CFI 2be42 .cfa: $rsp 32 +
STACK CFI INIT 2be60 18 .cfa: $rsp 8 + .ra: .cfa -8 + ^
STACK CFI INIT 2be80 18 .cfa: $rsp 8 + .ra: .cfa -8 + ^
STACK CFI INIT 2bea0 22 .cfa: $rsp 8 + .ra: .cfa -8 + ^
STACK CFI INIT 2bed0 1f .cfa: $rsp 8 + .ra: .cfa -8 + ^
STACK CFI 2bed1 $rbx: .cfa -16 + ^ .cfa: $rsp 16 +
STACK CFI 2beea .cfa: $rsp 8 +
STACK CFI INIT 2bef0 8 .cfa: $rsp 8 + .ra: .cfa -8 + ^
STACK CFI INIT 2bf00 1f .cfa: $rsp 8 + .ra: .cfa -8 + ^
STACK CFI 2bf01 $rbx: .cfa -16 + ^ .cfa: $rsp 16 +
STACK CFI 2bf1a .cfa: $rsp 8 +
STACK CFI INIT 2bf20 1a .cfa: $rsp 8 + .ra: .cfa -8 + ^
STACK CFI 2bf21 .cfa: $rsp 16 +
STACK CFI INIT 2bf40 23 .cfa: $rsp 8 + .ra: .cfa -8 + ^
STACK CFI 2bf41 .cfa: $rsp 16 +
STACK CFI INIT 2bf70 88 .cfa: $rsp 8 + .ra: .cfa -8 + ^
STACK CFI 2bf74 .cfa: $rsp 112 +
STACK CFI INIT 2c000 88 .cfa: $rsp 8 + .ra: .cfa -8 + ^
STACK CFI 2c004 .cfa: $rsp 112 +
STACK CFI INIT 2c090 85 .cfa: $rsp 8 + .ra: .cfa -8 + ^
STACK CFI 2c094 .cfa: $rsp 112 +
STACK CFI INIT 2c120 b2 .cfa: $rsp 8 + .ra: .cfa -8 + ^
STACK CFI 2c121 .cfa: $rsp 16 +
STACK CFI 2c125 $rbx: .cfa -16 + ^ .cfa: $rsp 128 +
STACK CFI INIT 2c1e0 a0 .cfa: $rsp 8 + .ra: .cfa -8 + ^
STACK CFI 2c1e2 .cfa: $rsp 16 +
STACK CFI 2c1e3 .cfa: $rsp 24 +
STACK CFI 2c1e7 $r14: .cfa -16 + ^ $rbx: .cfa -24 + ^ .cfa: $rsp 128 +
STACK CFI INIT 2c280 88 .cfa: $rsp 8 + .ra: .cfa -8 + ^
STACK CFI 2c284 .cfa: $rsp 112 +
STACK CFI INIT 2c310 8e .cfa: $rsp 8 + .ra: .cfa -8 + ^
STACK CFI 2c314 .cfa: $rsp 112 +
STACK CFI INIT 2c3a0 15 .cfa: $rsp 8 + .ra: .cfa -8 + ^
STACK CFI INIT 2c3c0 f .cfa: $rsp 8 + .ra: .cfa -8 + ^
STACK CFI INIT 2c3d0 16 .cfa: $rsp 8 + .ra: .cfa -8 + ^
STACK CFI INIT 2c3f0 13 .cfa: $rsp 8 + .ra: .cfa -8 + ^
STACK CFI INIT 2c410 5 .cfa: $rsp 8 + .ra: .cfa -8 + ^
STACK CFI INIT 2c420 2a7 .cfa: $rsp 8 + .ra: .cfa -8 + ^
STACK CFI 2c422 .cfa: $rsp 16 +
STACK CFI 2c424 .cfa: $rsp 24 +
STACK CFI 2c425 .cfa: $rsp 32 +
STACK CFI 2c429 $r14: .cfa -24 + ^ $r15: .cfa -16 + ^ $rbx: .cfa -32 + ^ .cfa: $rsp 80 +
STACK CFI 2c5e9 .cfa: $rsp 32 +
STACK CFI 2c5ea .cfa: $rsp 24 +
STACK CFI 2c5ec .cfa: $rsp 16 +
STACK CFI 2c5ee .cfa: $rsp 8 +
STACK CFI 2c5ef .cfa: $rsp 80 +
STACK CFI INIT 2c6d0 218 .cfa: $rsp 8 + .ra: .cfa -8 + ^
STACK CFI 2c6d2 .cfa: $rsp 16 +
STACK CFI 2c6d4 .cfa: $rsp 24 +
STACK CFI 2c6d6 .cfa: $rsp 32 +
STACK CFI 2c6d7 .cfa: $rsp 40 +
STACK CFI 2c6db $r12: .cfa -32 + ^ $r14: .cfa -24 + ^ $r15: .cfa -16 + ^ $rbx: .cfa -40 + ^ .cfa: $rsp 160 +
STACK CFI 2c83d .cfa: $rsp 40 +
STACK CFI 2c83e .cfa: $rsp 32 +
STACK CFI 2c840 .cfa: $rsp 24 +
STACK CFI 2c842 .cfa: $rsp 16 +
STACK CFI 2c844 .cfa: $rsp 8 +
STACK CFI 2c845 .cfa: $rsp 160 +
STACK CFI INIT 2c8f0 221 .cfa: $rsp 8 + .ra: .cfa -8 + ^
STACK CFI 2c8f1 .cfa: $rsp 16 +
STACK CFI 2c8f3 .cfa: $rsp 24 +
STACK CFI 2c8f5 .cfa: $rsp 32 +
STACK CFI 2c8f7 .cfa: $rsp 40 +
STACK CFI 2c8f9 .cfa: $rsp 48 +
STACK CFI 2c8fa .cfa: $rsp 56 +
STACK CFI 2c8fe $r12: .cfa -48 + ^ $r13: .cfa -40 + ^ $r14: .cfa -32 + ^ $r15: .cfa -24 + ^ $rbp: .cfa -16 + ^ $rbx: .cfa -56 + ^ .cfa: $rsp 80 +
STACK CFI 2caa4 .cfa: $rsp 56 +
STACK CFI 2caa5 .cfa: $rsp 48 +
STACK CFI 2caa7 .cfa: $rsp 40 +
STACK CFI 2caa9 .cfa: $rsp 32 +
STACK CFI 2caab .cfa: $rsp 24 +
STACK CFI 2caad .cfa: $rsp 16 +
STACK CFI 2caae .cfa: $rsp 8 +
STACK CFI 2caaf .cfa: $rsp 80 +
STACK CFI INIT 2cb20 1f .cfa: $rsp 8 + .ra: .cfa -8 + ^
STACK CFI INIT 2cb40 8 .cfa: $rsp 8 + .ra: .cfa -8 + ^
STACK CFI INIT 2cb50 17 .cfa: $rsp 8 + .ra: .cfa -8 + ^
STACK CFI INIT 2cb70 503 .cfa: $rsp 8 + .ra: .cfa -8 + ^
STACK CFI 2cb71 .cfa: $rsp 16 +
STACK CFI 2cb73 .cfa: $rsp 24 +
STACK CFI 2cb75 .cfa: $rsp 32 +
STACK CFI 2cb77 .cfa: $rsp 40 +
STACK CFI 2cb79 .cfa: $rsp 48 +
STACK CFI 2cb7a .cfa: $rsp 56 +
STACK CFI 2cb81 $r12: .cfa -48 + ^ $r13: .cfa -40 + ^ $r14: .cfa -32 + ^ $r15: .cfa -24 + ^ $rbp: .cfa -16 + ^ $rbx: .cfa -56 + ^ .cfa: $rsp 640 +
STACK CFI 2d02a .cfa: $rsp 56 +
STACK CFI 2d02b .cfa: $rsp 48 +
STACK CFI 2d02d .cfa: $rsp 40 +
STACK CFI 2d02f .cfa: $rsp 32 +
STACK CFI 2d031 .cfa: $rsp 24 +
STACK CFI 2d033 .cfa: $rsp 16 +
STACK CFI 2d034 .cfa: $rsp 8 +
STACK CFI 2d035 .cfa: $rsp 640 +
STACK CFI INIT 2d080 204 .cfa: $rsp 8 + .ra: .cfa -8 + ^
STACK CFI 2d082 .cfa: $rsp 16 +
STACK CFI 2d084 .cfa: $rsp 24 +
STACK CFI 2d086 .cfa: $rsp 32 +
STACK CFI 2d088 .cfa: $rsp 40 +
STACK CFI 2d089 .cfa: $rsp 48 +
STACK CFI 2d08d $r12: .cfa -40 + ^ $r13: .cfa -32 + ^ $r14: .cfa -24 + ^ $r15: .cfa -16 + ^ $rbx: .cfa -48 + ^ .cfa: $rsp 112 +
STACK CFI 2d1d1 .cfa: $rsp 120 +
STACK CFI 2d1d3 .cfa: $rsp 128 +
STACK CFI 2d1dc .cfa: $rsp 112 +
STACK CFI 2d247 .cfa: $rsp 48 +
STACK CFI 2d248 .cfa: $rsp 40 +
STACK CFI 2d24a .cfa: $rsp 32 +
STACK CFI 2d24c .cfa: $rsp 24 +
STACK CFI 2d24e .cfa: $rsp 16 +
STACK CFI 2d250 .cfa: $rsp 8 +
STACK CFI 2d251 .cfa: $rsp 112 +
STACK CFI INIT 2d290 622 .cfa: $rsp 8 + .ra: .cfa -8 + ^
STACK CFI 2d291 .cfa: $rsp 16 +
STACK CFI 2d293 .cfa: $rsp 24 +
STACK CFI 2d295 .cfa: $rsp 32 +
STACK CFI 2d297 .cfa: $rsp 40 +
STACK CFI 2d299 .cfa: $rsp 48 +
STACK CFI 2d29a .cfa: $rsp 56 +
STACK CFI 2d2a1 $r12: .cfa -48 + ^ $r13: .cfa -40 + ^ $r14: .cfa -32 + ^ $r15: .cfa -24 + ^ $rbp: .cfa -16 + ^ $rbx: .cfa -56 + ^ .cfa: $rsp 240 +
STACK CFI 2d80d .cfa: $rsp 56 +
STACK CFI 2d80e .cfa: $rsp 48 +
STACK CFI 2d810 .cfa: $rsp 40 +
STACK CFI 2d812 .cfa: $rsp 32 +
STACK CFI 2d814 .cfa: $rsp 24 +
STACK CFI 2d816 .cfa: $rsp 16 +
STACK CFI 2d817 .cfa: $rsp 8 +
STACK CFI 2d818 .cfa: $rsp 240 +
STACK CFI INIT 2d8c0 1 .cfa: $rsp 8 + .ra: .cfa -8 + ^
STACK CFI INIT 2d8d0 4 .cfa: $rsp 8 + .ra: .cfa -8 + ^
STACK CFI INIT 2d8e0 29 .cfa: $rsp 8 + .ra: .cfa -8 + ^
STACK CFI INIT 2d910 1 .cfa: $rsp 8 + .ra: .cfa -8 + ^
STACK CFI INIT 2d920 3 .cfa: $rsp 8 + .ra: .cfa -8 + ^
STACK CFI INIT 2d930 b .cfa: $rsp 8 + .ra: .cfa -8 + ^
STACK CFI INIT 2d940 cc .cfa: $rsp 8 + .ra: .cfa -8 + ^
STACK CFI 2d942 .cfa: $rsp 16 +
STACK CFI 2d944 .cfa: $rsp 24 +
STACK CFI 2d945 .cfa: $rsp 32 +
STACK CFI 2d949 $r14: .cfa -24 + ^ $r15: .cfa -16 + ^ $rbx: .cfa -32 + ^ .cfa: $rsp 128 +
STACK CFI 2da06 .cfa: $rsp 32 +
STACK CFI 2da07 .cfa: $rsp 24 +
STACK CFI 2da09 .cfa: $rsp 16 +
STACK CFI 2da0b .cfa: $rsp 8 +
STACK CFI INIT 2da10 d .cfa: $rsp 8 + .ra: .cfa -8 + ^
STACK CFI INIT 2da20 92 .cfa: $rsp 8 + .ra: .cfa -8 + ^
STACK CFI 2da24 .cfa: $rsp 112 +
STACK CFI 2dab1 .cfa: $rsp 8 +
STACK CFI INIT 2dac0 125 .cfa: $rsp 8 + .ra: .cfa -8 + ^
STACK CFI 2dac1 .cfa: $rsp 16 +
STACK CFI 2dac3 .cfa: $rsp 24 +
STACK CFI 2dac4 .cfa: $rsp 32 +
STACK CFI 2dac8 $r14: .cfa -24 + ^ $rbp: .cfa -16 + ^ $rbx: .cfa -32 + ^ .cfa: $rsp 80 +
STACK CFI 2dbbe .cfa: $rsp 32 +
STACK CFI 2dbbf .cfa: $rsp 24 +
STACK CFI 2dbc1 .cfa: $rsp 16 +
STACK CFI 2dbc2 .cfa: $rsp 8 +
STACK CFI 2dbc3 .cfa: $rsp 80 +
STACK CFI INIT 2dbf0 76 .cfa: $rsp 8 + .ra: .cfa -8 + ^
STACK CFI 2dbf2 .cfa: $rsp 16 +
STACK CFI 2dbf3 .cfa: $rsp 24 +
STACK CFI 2dbf4 $r14: .cfa -16 + ^ $rbx: .cfa -24 + ^ .cfa: $rsp 32 +
STACK CFI 2dc62 .cfa: $rsp 24 +
STACK CFI 2dc63 .cfa: $rsp 16 +
STACK CFI 2dc65 .cfa: $rsp 8 +
STACK CFI INIT 2dc70 2e1 .cfa: $rsp 8 + .ra: .cfa -8 + ^
STACK CFI 2dc72 .cfa: $rsp 16 +
STACK CFI 2dc74 .cfa: $rsp 24 +
STACK CFI 2dc76 .cfa: $rsp 32 +
STACK CFI 2dc78 .cfa: $rsp 40 +
STACK CFI 2dc79 .cfa: $rsp 48 +
STACK CFI 2dc80 $r12: .cfa -40 + ^ $r13: .cfa -32 + ^ $r14: .cfa -24 + ^ $r15: .cfa -16 + ^ $rbx: .cfa -48 + ^ .cfa: $rsp 240 +
STACK CFI 2ddd1 .cfa: $rsp 48 +
STACK CFI 2ddd2 .cfa: $rsp 40 +
STACK CFI 2ddd4 .cfa: $rsp 32 +
STACK CFI 2ddd6 .cfa: $rsp 24 +
STACK CFI 2ddd8 .cfa: $rsp 16 +
STACK CFI 2ddda .cfa: $rsp 8 +
STACK CFI 2dddb .cfa: $rsp 240 +
STACK CFI INIT 2df60 336 .cfa: $rsp 8 + .ra: .cfa -8 + ^
STACK CFI 2df61 .cfa: $rsp 16 +
STACK CFI 2df63 .cfa: $rsp 24 +
STACK CFI 2df65 .cfa: $rsp 32 +
STACK CFI 2df67 .cfa: $rsp 40 +
STACK CFI 2df69 .cfa: $rsp 48 +
STACK CFI 2df6a .cfa: $rsp 56 +
STACK CFI 2df71 $r12: .cfa -48 + ^ $r13: .cfa -40 + ^ $r14: .cfa -32 + ^ $r15: .cfa -24 + ^ $rbp: .cfa -16 + ^ $rbx: .cfa -56 + ^ .cfa: $rsp 240 +
STACK CFI 2e0ba .cfa: $rsp 56 +
STACK CFI 2e0bb .cfa: $rsp 48 +
STACK CFI 2e0bd .cfa: $rsp 40 +
STACK CFI 2e0bf .cfa: $rsp 32 +
STACK CFI 2e0c1 .cfa: $rsp 24 +
STACK CFI 2e0c3 .cfa: $rsp 16 +
STACK CFI 2e0c4 .cfa: $rsp 8 +
STACK CFI 2e0c5 .cfa: $rsp 240 +
STACK CFI INIT 2e2a0 4c .cfa: $rsp 8 + .ra: .cfa -8 + ^
STACK CFI 2e2a2 .cfa: $rsp 16 +
STACK CFI 2e2a3 .cfa: $rsp 24 +
STACK CFI 2e2a7 $r14: .cfa -16 + ^ $rbx: .cfa -24 + ^ .cfa: $rsp 64 +
STACK CFI 2e2e8 .cfa: $rsp 24 +
STACK CFI 2e2e9 .cfa: $rsp 16 +
STACK CFI 2e2eb .cfa: $rsp 8 +
STACK CFI INIT 2e2f0 b .cfa: $rsp 8 + .ra: .cfa -8 + ^
STACK CFI INIT 2e300 b .cfa: $rsp 8 + .ra: .cfa -8 + ^
STACK CFI INIT 2e310 b .cfa: $rsp 8 + .ra: .cfa -8 + ^
STACK CFI INIT 2e320 91 .cfa: $rsp 8 + .ra: .cfa -8 + ^
STACK CFI 2e321 .cfa: $rsp 16 +
STACK CFI 2e325 $rbx: .cfa -16 + ^ .cfa: $rsp 48 +
STACK CFI 2e39d .cfa: $rsp 16 +
STACK CFI 2e39e .cfa: $rsp 8 +
STACK CFI 2e3a3 .cfa: $rsp 48 +
STACK CFI INIT 2e3c0 13 .cfa: $rsp 8 + .ra: .cfa -8 + ^
STACK CFI INIT 2e3e0 1 .cfa: $rsp 8 + .ra: .cfa -8 + ^
STACK CFI INIT 2e3f0 17 .cfa: $rsp 8 + .ra: .cfa -8 + ^
STACK CFI INIT 2e410 18 .cfa: $rsp 8 + .ra: .cfa -8 + ^
STACK CFI INIT 2e430 18 .cfa: $rsp 8 + .ra: .cfa -8 + ^
STACK CFI INIT 2e450 5 .cfa: $rsp 8 + .ra: .cfa -8 + ^
STACK CFI INIT 2e460 3e .cfa: $rsp 8 + .ra: .cfa -8 + ^
STACK CFI INIT 2e4a0 23 .cfa: $rsp 8 + .ra: .cfa -8 + ^
STACK CFI 2e4a1 .cfa: $rsp 16 +
STACK CFI INIT 2e4d0 8 .cfa: $rsp 8 + .ra: .cfa -8 + ^
STACK CFI INIT 2e4e0 15 .cfa: $rsp 8 + .ra: .cfa -8 + ^
STACK CFI INIT 2e500 8 .cfa: $rsp 8 + .ra: .cfa -8 + ^
STACK CFI INIT 2e510 f .cfa: $rsp 8 + .ra: .cfa -8 + ^
STACK CFI INIT 2e520 16 .cfa: $rsp 8 + .ra: .cfa -8 + ^
STACK CFI INIT 2e540 b8 .cfa: $rsp 8 + .ra: .cfa -8 + ^
STACK CFI 2e542 .cfa: $rsp 16 +
STACK CFI 2e543 .cfa: $rsp 24 +
STACK CFI 2e547 $r14: .cfa -16 + ^ $rbx: .cfa -24 + ^ .cfa: $rsp 48 +
STACK CFI 2e5ad .cfa: $rsp 24 +
STACK CFI 2e5ae .cfa: $rsp 16 +
STACK CFI 2e5b0 .cfa: $rsp 8 +
STACK CFI 2e5b1 .cfa: $rsp 48 +
STACK CFI INIT 2e600 138 .cfa: $rsp 8 + .ra: .cfa -8 + ^
STACK CFI 2e601 .cfa: $rsp 16 +
STACK CFI 2e608 $rbx: .cfa -16 + ^ .cfa: $rsp 192 +
STACK CFI 2e721 .cfa: $rsp 16 +
STACK CFI 2e722 .cfa: $rsp 8 +
STACK CFI 2e723 .cfa: $rsp 192 +
STACK CFI INIT 2e740 15 .cfa: $rsp 8 + .ra: .cfa -8 + ^
STACK CFI INIT 2e760 d5 .cfa: $rsp 8 + .ra: .cfa -8 + ^
STACK CFI 2e762 .cfa: $rsp 16 +
STACK CFI 2e764 .cfa: $rsp 24 +
STACK CFI 2e765 .cfa: $rsp 32 +
STACK CFI 2e769 $r14: .cfa -24 + ^ $r15: .cfa -16 + ^ $rbx: .cfa -32 + ^ .cfa: $rsp 64 +
STACK CFI 2e7ff .cfa: $rsp 32 +
STACK CFI 2e800 .cfa: $rsp 24 +
STACK CFI 2e802 .cfa: $rsp 16 +
STACK CFI 2e804 .cfa: $rsp 8 +
STACK CFI 2e805 .cfa: $rsp 64 +
STACK CFI INIT 2e840 94 .cfa: $rsp 8 + .ra: .cfa -8 + ^
STACK CFI 2e841 .cfa: $rsp 16 +
STACK CFI 2e845 $rbx: .cfa -16 + ^ .cfa: $rsp 48 +
STACK CFI 2e8c0 .cfa: $rsp 16 +
STACK CFI 2e8c1 .cfa: $rsp 8 +
STACK CFI 2e8c6 .cfa: $rsp 48 +
STACK CFI INIT 2e8e0 1db .cfa: $rsp 8 + .ra: .cfa -8 + ^
STACK CFI 2e8e1 .cfa: $rsp 16 +
STACK CFI 2e8e3 .cfa: $rsp 24 +
STACK CFI 2e8e5 .cfa: $rsp 32 +
STACK CFI 2e8e7 .cfa: $rsp 40 +
STACK CFI 2e8e9 .cfa: $rsp 48 +
STACK CFI 2e8ea .cfa: $rsp 56 +
STACK CFI 2e8ee $r12: .cfa -48 + ^ $r13: .cfa -40 + ^ $r14: .cfa -32 + ^ $r15: .cfa -24 + ^ $rbp: .cfa -16 + ^ $rbx: .cfa -56 + ^ .cfa: $rsp 112 +
STACK CFI 2ea34 .cfa: $rsp 56 +
STACK CFI 2ea35 .cfa: $rsp 48 +
STACK CFI 2ea37 .cfa: $rsp 40 +
STACK CFI 2ea39 .cfa: $rsp 32 +
STACK CFI 2ea3b .cfa: $rsp 24 +
STACK CFI 2ea3d .cfa: $rsp 16 +
STACK CFI 2ea3e .cfa: $rsp 8 +
STACK CFI 2ea3f .cfa: $rsp 112 +
STACK CFI INIT 2eac0 140 .cfa: $rsp 8 + .ra: .cfa -8 + ^
STACK CFI 2eac2 .cfa: $rsp 16 +
STACK CFI 2eac3 .cfa: $rsp 24 +
STACK CFI 2eac7 $r14: .cfa -16 + ^ $rbx: .cfa -24 + ^ .cfa: $rsp 128 +
STACK CFI 2eb5a .cfa: $rsp 24 +
STACK CFI 2eb5b .cfa: $rsp 16 +
STACK CFI 2eb5d .cfa: $rsp 8 +
STACK CFI 2eb5e .cfa: $rsp 128 +
STACK CFI INIT 2ec00 156 .cfa: $rsp 8 + .ra: .cfa -8 + ^
STACK CFI 2ec01 .cfa: $rsp 16 +
STACK CFI 2ec03 .cfa: $rsp 24 +
STACK CFI 2ec05 .cfa: $rsp 32 +
STACK CFI 2ec06 .cfa: $rsp 40 +
STACK CFI 2ec0a $r14: .cfa -32 + ^ $r15: .cfa -24 + ^ $rbp: .cfa -16 + ^ $rbx: .cfa -40 + ^ .cfa: $rsp 144 +
STACK CFI 2ec9b .cfa: $rsp 40 +
STACK CFI 2ec9c .cfa: $rsp 32 +
STACK CFI 2ec9e .cfa: $rsp 24 +
STACK CFI 2eca0 .cfa: $rsp 16 +
STACK CFI 2eca1 .cfa: $rsp 8 +
STACK CFI 2eca2 .cfa: $rsp 144 +
STACK CFI INIT 2ed60 e6 .cfa: $rsp 8 + .ra: .cfa -8 + ^
STACK CFI 2ed62 .cfa: $rsp 16 +
STACK CFI 2ed64 .cfa: $rsp 24 +
STACK CFI 2ed65 $r14: .cfa -24 + ^ $r15: .cfa -16 + ^ $rbx: .cfa -32 + ^ .cfa: $rsp 32 +
STACK CFI 2ee30 .cfa: $rsp 24 +
STACK CFI 2ee32 .cfa: $rsp 16 +
STACK CFI 2ee34 .cfa: $rsp 8 +
STACK CFI 2ee35 .cfa: $rsp 32 +
STACK CFI INIT 2ee50 14e .cfa: $rsp 8 + .ra: .cfa -8 + ^
STACK CFI 2ee51 .cfa: $rsp 16 +
STACK CFI 2ee53 .cfa: $rsp 24 +
STACK CFI 2ee55 .cfa: $rsp 32 +
STACK CFI 2ee57 .cfa: $rsp 40 +
STACK CFI 2ee59 .cfa: $rsp 48 +
STACK CFI 2ee5a .cfa: $rsp 56 +
STACK CFI 2ee5e $r12: .cfa -48 + ^ $r13: .cfa -40 + ^ $r14: .cfa -32 + ^ $r15: .cfa -24 + ^ $rbp: .cfa -16 + ^ $rbx: .cfa -56 + ^ .cfa: $rsp 112 +
STACK CFI 2ef65 .cfa: $rsp 56 +
STACK CFI 2ef66 .cfa: $rsp 48 +
STACK CFI 2ef68 .cfa: $rsp 40 +
STACK CFI 2ef6a .cfa: $rsp 32 +
STACK CFI 2ef6c .cfa: $rsp 24 +
STACK CFI 2ef6e .cfa: $rsp 16 +
STACK CFI 2ef6f .cfa: $rsp 8 +
STACK CFI 2ef70 .cfa: $rsp 112 +
STACK CFI INIT 2efa0 a3 .cfa: $rsp 8 + .ra: .cfa -8 + ^
STACK CFI 2efa2 .cfa: $rsp 16 +
STACK CFI 2efa3 .cfa: $rsp 24 +
STACK CFI 2efa7 $r14: .cfa -16 + ^ $rbx: .cfa -24 + ^ .cfa: $rsp 112 +
STACK CFI 2f01e .cfa: $rsp 24 +
STACK CFI 2f01f .cfa: $rsp 16 +
STACK CFI 2f021 .cfa: $rsp 8 +
STACK CFI 2f022 .cfa: $rsp 112 +
STACK CFI INIT 2f050 63 .cfa: $rsp 8 + .ra: .cfa -8 + ^
STACK CFI 2f054 .cfa: $rsp 80 +
STACK CFI INIT 2f0c0 12f .cfa: $rsp 8 + .ra: .cfa -8 + ^
STACK CFI 2f0c1 .cfa: $rsp 16 +
STACK CFI 2f0c5 $rbx: .cfa -16 + ^ .cfa: $rsp 112 +
STACK CFI 2f1ab .cfa: $rsp 16 +
STACK CFI 2f1ac .cfa: $rsp 8 +
STACK CFI 2f1ad .cfa: $rsp 112 +
STACK CFI INIT 2f1f0 69 .cfa: $rsp 8 + .ra: .cfa -8 + ^
STACK CFI 2f1f2 .cfa: $rsp 16 +
STACK CFI 2f1f3 .cfa: $rsp 24 +
STACK CFI 2f1f7 $r14: .cfa -16 + ^ $rbx: .cfa -24 + ^ .cfa: $rsp 64 +
STACK CFI 2f255 .cfa: $rsp 24 +
STACK CFI 2f256 .cfa: $rsp 16 +
STACK CFI 2f258 .cfa: $rsp 8 +
STACK CFI INIT 2f260 4e7 .cfa: $rsp 8 + .ra: .cfa -8 + ^
STACK CFI 2f261 .cfa: $rsp 16 +
STACK CFI 2f263 .cfa: $rsp 24 +
STACK CFI 2f265 .cfa: $rsp 32 +
STACK CFI 2f267 .cfa: $rsp 40 +
STACK CFI 2f269 .cfa: $rsp 48 +
STACK CFI 2f26a .cfa: $rsp 56 +
STACK CFI 2f271 $r12: .cfa -48 + ^ $r13: .cfa -40 + ^ $r14: .cfa -32 + ^ $r15: .cfa -24 + ^ $rbp: .cfa -16 + ^ $rbx: .cfa -56 + ^ .cfa: $rsp 288 +
STACK CFI 2f6bd .cfa: $rsp 56 +
STACK CFI 2f6be .cfa: $rsp 48 +
STACK CFI 2f6c0 .cfa: $rsp 40 +
STACK CFI 2f6c2 .cfa: $rsp 32 +
STACK CFI 2f6c4 .cfa: $rsp 24 +
STACK CFI 2f6c6 .cfa: $rsp 16 +
STACK CFI 2f6c7 .cfa: $rsp 8 +
STACK CFI 2f6c8 .cfa: $rsp 288 +
STACK CFI INIT 2f750 cc .cfa: $rsp 8 + .ra: .cfa -8 + ^
STACK CFI 2f752 .cfa: $rsp 16 +
STACK CFI 2f754 .cfa: $rsp 24 +
STACK CFI 2f755 .cfa: $rsp 32 +
STACK CFI 2f759 $r14: .cfa -24 + ^ $r15: .cfa -16 + ^ $rbx: .cfa -32 + ^ .cfa: $rsp 96 +
STACK CFI 2f7f4 .cfa: $rsp 104 +
STACK CFI 2f7f6 .cfa: $rsp 112 +
STACK CFI 2f7ff .cfa: $rsp 96 +
STACK CFI 2f806 .cfa: $rsp 32 +
STACK CFI 2f807 .cfa: $rsp 24 +
STACK CFI 2f809 .cfa: $rsp 16 +
STACK CFI 2f80b .cfa: $rsp 8 +
STACK CFI 2f80c .cfa: $rsp 96 +
STACK CFI INIT 2f820 7 .cfa: $rsp 8 + .ra: .cfa -8 + ^
STACK CFI INIT 2f830 8c .cfa: $rsp 8 + .ra: .cfa -8 + ^
STACK CFI 2f831 .cfa: $rsp 16 +
STACK CFI 2f833 .cfa: $rsp 24 +
STACK CFI 2f834 $r14: .cfa -24 + ^ $rbp: .cfa -16 + ^ $rbx: .cfa -32 + ^ .cfa: $rsp 32 +
STACK CFI 2f897 .cfa: $rsp 24 +
STACK CFI 2f899 .cfa: $rsp 16 +
STACK CFI 2f89a .cfa: $rsp 8 +
STACK CFI 2f89b .cfa: $rsp 32 +
STACK CFI INIT 2f8c0 8d .cfa: $rsp 8 + .ra: .cfa -8 + ^
STACK CFI 2f8c2 .cfa: $rsp 16 +
STACK CFI 2f8c4 .cfa: $rsp 24 +
STACK CFI 2f8c5 $r14: .cfa -24 + ^ $r15: .cfa -16 + ^ $rbx: .cfa -32 + ^ .cfa: $rsp 32 +
STACK CFI 2f920 .cfa: $rsp 24 +
STACK CFI 2f922 .cfa: $rsp 16 +
STACK CFI 2f924 .cfa: $rsp 8 +
STACK CFI 2f925 .cfa: $rsp 32 +
STACK CFI INIT 2f950 5 .cfa: $rsp 8 + .ra: .cfa -8 + ^
STACK CFI INIT 2f960 5 .cfa: $rsp 8 + .ra: .cfa -8 + ^
STACK CFI INIT 2f970 1f .cfa: $rsp 8 + .ra: .cfa -8 + ^
STACK CFI INIT 2f990 1 .cfa: $rsp 8 + .ra: .cfa -8 + ^
STACK CFI INIT 2f9a0 10 .cfa: $rsp 8 + .ra: .cfa -8 + ^
STACK CFI INIT 2f9b0 17 .cfa: $rsp 8 + .ra: .cfa -8 + ^
STACK CFI INIT 2f9d0 73 .cfa: $rsp 8 + .ra: .cfa -8 + ^
STACK CFI 2f9d2 .cfa: $rsp 16 +
STACK CFI 2f9d4 .cfa: $rsp 24 +
STACK CFI 2f9d5 $r14: .cfa -24 + ^ $r15: .cfa -16 + ^ $rbx: .cfa -32 + ^ .cfa: $rsp 32 +
STACK CFI 2f9db .cfa: $rsp 24 +
STACK CFI 2f9dd .cfa: $rsp 16 +
STACK CFI 2f9df .cfa: $rsp 8 +
STACK CFI 2f9e0 .cfa: $rsp 32 +
STACK CFI 2fa18 .cfa: $rsp 24 +
STACK CFI 2fa1a .cfa: $rsp 16 +
STACK CFI 2fa1c .cfa: $rsp 8 +
STACK CFI 2fa21 .cfa: $rsp 32 +
STACK CFI INIT 2fa50 1d .cfa: $rsp 8 + .ra: .cfa -8 + ^
STACK CFI INIT 2fa70 8 .cfa: $rsp 8 + .ra: .cfa -8 + ^
STACK CFI INIT 2fa80 10 .cfa: $rsp 8 + .ra: .cfa -8 + ^
STACK CFI INIT 2fa90 f .cfa: $rsp 8 + .ra: .cfa -8 + ^
STACK CFI INIT 2faa0 16 .cfa: $rsp 8 + .ra: .cfa -8 + ^
STACK CFI INIT 2fac0 63 .cfa: $rsp 8 + .ra: .cfa -8 + ^
STACK CFI 2fac2 .cfa: $rsp 16 +
STACK CFI 2fac3 .cfa: $rsp 24 +
STACK CFI 2fac4 $r14: .cfa -16 + ^ $rbx: .cfa -24 + ^ .cfa: $rsp 32 +
STACK CFI 2faf9 .cfa: $rsp 24 +
STACK CFI 2fafa .cfa: $rsp 16 +
STACK CFI 2fafc .cfa: $rsp 8 +
STACK CFI 2fb01 .cfa: $rsp 32 +
STACK CFI 2fb05 .cfa: $rsp 24 +
STACK CFI 2fb06 .cfa: $rsp 16 +
STACK CFI 2fb08 .cfa: $rsp 8 +
STACK CFI 2fb09 .cfa: $rsp 32 +
STACK CFI INIT 2fb30 22 .cfa: $rsp 8 + .ra: .cfa -8 + ^
STACK CFI INIT 2fb60 22d .cfa: $rsp 8 + .ra: .cfa -8 + ^
STACK CFI 2fb62 .cfa: $rsp 16 +
STACK CFI 2fb64 .cfa: $rsp 24 +
STACK CFI 2fb66 .cfa: $rsp 32 +
STACK CFI 2fb68 .cfa: $rsp 40 +
STACK CFI 2fb69 .cfa: $rsp 48 +
STACK CFI 2fb6d $r12: .cfa -40 + ^ $r13: .cfa -32 + ^ $r14: .cfa -24 + ^ $r15: .cfa -16 + ^ $rbx: .cfa -48 + ^ .cfa: $rsp 80 +
STACK CFI 2fd11 .cfa: $rsp 48 +
STACK CFI 2fd12 .cfa: $rsp 40 +
STACK CFI 2fd14 .cfa: $rsp 32 +
STACK CFI 2fd16 .cfa: $rsp 24 +
STACK CFI 2fd18 .cfa: $rsp 16 +
STACK CFI 2fd1a .cfa: $rsp 8 +
STACK CFI 2fd1b .cfa: $rsp 80 +
STACK CFI INIT 2fd90 310 .cfa: $rsp 8 + .ra: .cfa -8 + ^
STACK CFI 2fd91 .cfa: $rsp 16 +
STACK CFI 2fd93 .cfa: $rsp 24 +
STACK CFI 2fd95 .cfa: $rsp 32 +
STACK CFI 2fd97 .cfa: $rsp 40 +
STACK CFI 2fd99 .cfa: $rsp 48 +
STACK CFI 2fd9a .cfa: $rsp 56 +
STACK CFI 2fda1 $r12: .cfa -48 + ^ $r13: .cfa -40 + ^ $r14: .cfa -32 + ^ $r15: .cfa -24 + ^ $rbp: .cfa -16 + ^ $rbx: .cfa -56 + ^ .cfa: $rsp 224 +
STACK CFI 2ff37 .cfa: $rsp 56 +
STACK CFI 2ff38 .cfa: $rsp 48 +
STACK CFI 2ff3a .cfa: $rsp 40 +
STACK CFI 2ff3c .cfa: $rsp 32 +
STACK CFI 2ff3e .cfa: $rsp 24 +
STACK CFI 2ff40 .cfa: $rsp 16 +
STACK CFI 2ff41 .cfa: $rsp 8 +
STACK CFI 2ff42 .cfa: $rsp 224 +
STACK CFI INIT 300a0 1c3 .cfa: $rsp 8 + .ra: .cfa -8 + ^
STACK CFI 300a1 .cfa: $rsp 16 +
STACK CFI 300a3 .cfa: $rsp 24 +
STACK CFI 300a5 .cfa: $rsp 32 +
STACK CFI 300a7 .cfa: $rsp 40 +
STACK CFI 300a9 .cfa: $rsp 48 +
STACK CFI 300aa .cfa: $rsp 56 +
STACK CFI 300ae $r12: .cfa -48 + ^ $r13: .cfa -40 + ^ $r14: .cfa -32 + ^ $r15: .cfa -24 + ^ $rbp: .cfa -16 + ^ $rbx: .cfa -56 + ^ .cfa: $rsp 96 +
STACK CFI 3021d .cfa: $rsp 56 +
STACK CFI 3021e .cfa: $rsp 48 +
STACK CFI 30220 .cfa: $rsp 40 +
STACK CFI 30222 .cfa: $rsp 32 +
STACK CFI 30224 .cfa: $rsp 24 +
STACK CFI 30226 .cfa: $rsp 16 +
STACK CFI 30227 .cfa: $rsp 8 +
STACK CFI 30228 .cfa: $rsp 96 +
STACK CFI INIT 30270 109 .cfa: $rsp 8 + .ra: .cfa -8 + ^
STACK CFI 30272 .cfa: $rsp 16 +
STACK CFI 30273 .cfa: $rsp 24 +
STACK CFI 30277 $r14: .cfa -16 + ^ $rbx: .cfa -24 + ^ .cfa: $rsp 112 +
STACK CFI 30343 .cfa: $rsp 24 +
STACK CFI 30344 .cfa: $rsp 16 +
STACK CFI 30346 .cfa: $rsp 8 +
STACK CFI 30347 .cfa: $rsp 112 +
STACK CFI INIT 30380 5 .cfa: $rsp 8 + .ra: .cfa -8 + ^
STACK CFI INIT 30390 ee .cfa: $rsp 8 + .ra: .cfa -8 + ^
STACK CFI 30391 .cfa: $rsp 16 +
STACK CFI 30398 $rbx: .cfa -16 + ^ .cfa: $rsp 192 +
STACK CFI 3042d .cfa: $rsp 16 +
STACK CFI 3042e .cfa: $rsp 8 +
STACK CFI 3042f .cfa: $rsp 192 +
STACK CFI INIT 30480 d4 .cfa: $rsp 8 + .ra: .cfa -8 + ^
STACK CFI 30481 .cfa: $rsp 16 +
STACK CFI 30482 .cfa: $rsp 24 +
STACK CFI 30489 $rbp: .cfa -16 + ^ $rbx: .cfa -24 + ^ .cfa: $rsp 176 +
STACK CFI 30510 .cfa: $rsp 24 +
STACK CFI 30511 .cfa: $rsp 16 +
STACK CFI 30512 .cfa: $rsp 8 +
STACK CFI 30513 .cfa: $rsp 176 +
STACK CFI INIT 30560 117 .cfa: $rsp 8 + .ra: .cfa -8 + ^
STACK CFI 30562 .cfa: $rsp 16 +
STACK CFI 30563 .cfa: $rsp 24 +
STACK CFI 3056a $r14: .cfa -16 + ^ $rbx: .cfa -24 + ^ .cfa: $rsp 208 +
STACK CFI 30659 .cfa: $rsp 24 +
STACK CFI 3065a .cfa: $rsp 16 +
STACK CFI 3065c .cfa: $rsp 8 +
STACK CFI 3065d .cfa: $rsp 208 +
STACK CFI INIT 30680 57 .cfa: $rsp 8 + .ra: .cfa -8 + ^
STACK CFI 30682 .cfa: $rsp 16 +
STACK CFI 30684 .cfa: $rsp 24 +
STACK CFI 30686 .cfa: $rsp 32 +
STACK CFI 30688 .cfa: $rsp 40 +
STACK CFI 30689 $r12: .cfa -40 + ^ $r13: .cfa -32 + ^ $r14: .cfa -24 + ^ $r15: .cfa -16 + ^ $rbx: .cfa -48 + ^ .cfa: $rsp 48 +
STACK CFI INIT 306e0 1fa .cfa: $rsp 8 + .ra: .cfa -8 + ^
STACK CFI 306e1 .cfa: $rsp 16 +
STACK CFI 306e3 .cfa: $rsp 24 +
STACK CFI 306e5 .cfa: $rsp 32 +
STACK CFI 306e7 .cfa: $rsp 40 +
STACK CFI 306e9 .cfa: $rsp 48 +
STACK CFI 306ea .cfa: $rsp 56 +
STACK CFI 306ee $r12: .cfa -48 + ^ $r13: .cfa -40 + ^ $r14: .cfa -32 + ^ $r15: .cfa -24 + ^ $rbp: .cfa -16 + ^ $rbx: .cfa -56 + ^ .cfa: $rsp 144 +
STACK CFI INIT 308e0 52 .cfa: $rsp 8 + .ra: .cfa -8 + ^
STACK CFI 308e2 .cfa: $rsp 16 +
STACK CFI 308e4 .cfa: $rsp 24 +
STACK CFI 308e6 .cfa: $rsp 32 +
STACK CFI 308e8 .cfa: $rsp 40 +
STACK CFI 308e9 $r12: .cfa -40 + ^ $r13: .cfa -32 + ^ $r14: .cfa -24 + ^ $r15: .cfa -16 + ^ $rbx: .cfa -48 + ^ .cfa: $rsp 48 +
STACK CFI INIT 30940 62 .cfa: $rsp 8 + .ra: .cfa -8 + ^
STACK CFI 30942 .cfa: $rsp 16 +
STACK CFI 30944 .cfa: $rsp 24 +
STACK CFI 30946 .cfa: $rsp 32 +
STACK CFI 30947 .cfa: $rsp 40 +
STACK CFI 30948 $r12: .cfa -32 + ^ $r14: .cfa -24 + ^ $r15: .cfa -16 + ^ $rbx: .cfa -40 + ^ .cfa: $rsp 48 +
STACK CFI INIT 309b0 38 .cfa: $rsp 8 + .ra: .cfa -8 + ^
STACK CFI 309b2 .cfa: $rsp 16 +
STACK CFI 309b3 .cfa: $rsp 24 +
STACK CFI 309b4 $r14: .cfa -16 + ^ $rbx: .cfa -24 + ^ .cfa: $rsp 32 +
STACK CFI INIT 309f0 99 .cfa: $rsp 8 + .ra: .cfa -8 + ^
STACK CFI 309f1 .cfa: $rsp 16 +
STACK CFI 309f5 $rbx: .cfa -16 + ^ .cfa: $rsp 96 +
STACK CFI INIT 30a90 fc .cfa: $rsp 8 + .ra: .cfa -8 + ^
STACK CFI 30a91 .cfa: $rsp 16 +
STACK CFI 30a93 .cfa: $rsp 24 +
STACK CFI 30a95 .cfa: $rsp 32 +
STACK CFI 30a97 .cfa: $rsp 40 +
STACK CFI 30a99 .cfa: $rsp 48 +
STACK CFI 30a9a .cfa: $rsp 56 +
STACK CFI 30a9b $r12: .cfa -48 + ^ $r13: .cfa -40 + ^ $r14: .cfa -32 + ^ $r15: .cfa -24 + ^ $rbp: .cfa -16 + ^ $rbx: .cfa -56 + ^ .cfa: $rsp 64 +
STACK CFI INIT 30b90 127 .cfa: $rsp 8 + .ra: .cfa -8 + ^
STACK CFI 30b91 .cfa: $rsp 16 +
STACK CFI 30b93 .cfa: $rsp 24 +
STACK CFI 30b95 .cfa: $rsp 32 +
STACK CFI 30b97 .cfa: $rsp 40 +
STACK CFI 30b99 .cfa: $rsp 48 +
STACK CFI 30b9a .cfa: $rsp 56 +
STACK CFI 30b9e $r12: .cfa -48 + ^ $r13: .cfa -40 + ^ $r14: .cfa -32 + ^ $r15: .cfa -24 + ^ $rbp: .cfa -16 + ^ $rbx: .cfa -56 + ^ .cfa: $rsp 160 +
STACK CFI 30bc2 .cfa: $rsp 168 +
STACK CFI 30be1 .cfa: $rsp 176 +
STACK CFI 30be3 .cfa: $rsp 184 +
STACK CFI 30be4 .cfa: $rsp 192 +
STACK CFI 30be6 .cfa: $rsp 200 +
STACK CFI 30be8 .cfa: $rsp 208 +
STACK CFI 30bf1 .cfa: $rsp 160 +
STACK CFI INIT 30cc0 16 .cfa: $rsp 8 + .ra: .cfa -8 + ^
STACK CFI 30cc1 .cfa: $rsp 16 +
STACK CFI INIT 30ce0 1aa9 .cfa: $rsp 8 + .ra: .cfa -8 + ^
STACK CFI 30ce1 .cfa: $rsp 16 +
STACK CFI 30ce3 .cfa: $rsp 24 +
STACK CFI 30ce5 .cfa: $rsp 32 +
STACK CFI 30ce7 .cfa: $rsp 40 +
STACK CFI 30ce9 .cfa: $rsp 48 +
STACK CFI 30cea .cfa: $rsp 56 +
STACK CFI 30cf1 $r12: .cfa -48 + ^ $r13: .cfa -40 + ^ $r14: .cfa -32 + ^ $r15: .cfa -24 + ^ $rbp: .cfa -16 + ^ $rbx: .cfa -56 + ^ .cfa: $rsp 960 +
STACK CFI 30d2d .cfa: $rsp 968 +
STACK CFI 30d4c .cfa: $rsp 976 +
STACK CFI 30d55 .cfa: $rsp 960 +
STACK CFI 30ea1 .cfa: $rsp 968 +
STACK CFI 30ebb .cfa: $rsp 976 +
STACK CFI 30ec4 .cfa: $rsp 960 +
STACK CFI 30f9b .cfa: $rsp 968 +
STACK CFI 30fb0 .cfa: $rsp 976 +
STACK CFI 30fb9 .cfa: $rsp 960 +
STACK CFI 30fdf .cfa: $rsp 968 +
STACK CFI 30ffc .cfa: $rsp 976 +
STACK CFI 31005 .cfa: $rsp 960 +
STACK CFI 312c1 .cfa: $rsp 968 +
STACK CFI 312d6 .cfa: $rsp 976 +
STACK CFI 312df .cfa: $rsp 960 +
STACK CFI 313f1 .cfa: $rsp 968 +
STACK CFI 31403 .cfa: $rsp 976 +
STACK CFI 3140c .cfa: $rsp 960 +
STACK CFI 31462 .cfa: $rsp 968 +
STACK CFI 31477 .cfa: $rsp 976 +
STACK CFI 31480 .cfa: $rsp 960 +
STACK CFI 3158a .cfa: $rsp 968 +
STACK CFI 315a5 .cfa: $rsp 976 +
STACK CFI 315ae .cfa: $rsp 960 +
STACK CFI 315cb .cfa: $rsp 968 +
STACK CFI 315e0 .cfa: $rsp 976 +
STACK CFI 315e9 .cfa: $rsp 960 +
STACK CFI 319e8 .cfa: $rsp 968 +
STACK CFI 31a00 .cfa: $rsp 976 +
STACK CFI 31a02 .cfa: $rsp 984 +
STACK CFI 31a09 .cfa: $rsp 992 +
STACK CFI 31a10 .cfa: $rsp 1000 +
STACK CFI 31a17 .cfa: $rsp 1008 +
STACK CFI 31a20 .cfa: $rsp 960 +
STACK CFI 31d06 .cfa: $rsp 968 +
STACK CFI 31d1f .cfa: $rsp 976 +
STACK CFI 31d28 .cfa: $rsp 960 +
STACK CFI 31ddb .cfa: $rsp 968 +
STACK CFI 31df6 .cfa: $rsp 976 +
STACK CFI 31df8 .cfa: $rsp 984 +
STACK CFI 31dff .cfa: $rsp 992 +
STACK CFI 31e06 .cfa: $rsp 1000 +
STACK CFI 31e0d .cfa: $rsp 1008 +
STACK CFI 31e16 .cfa: $rsp 960 +
STACK CFI 3204f .cfa: $rsp 968 +
STACK CFI 3206a .cfa: $rsp 976 +
STACK CFI 32073 .cfa: $rsp 960 +
STACK CFI 3237f .cfa: $rsp 968 +
STACK CFI 32381 .cfa: $rsp 976 +
STACK CFI 3238a .cfa: $rsp 960 +
STACK CFI 32540 .cfa: $rsp 968 +
STACK CFI 32542 .cfa: $rsp 976 +
STACK CFI 32549 .cfa: $rsp 984 +
STACK CFI 3254a .cfa: $rsp 992 +
STACK CFI 32551 .cfa: $rsp 1000 +
STACK CFI 32558 .cfa: $rsp 1008 +
STACK CFI 3255f .cfa: $rsp 1016 +
STACK CFI 32566 .cfa: $rsp 1024 +
STACK CFI 3256d .cfa: $rsp 1032 +
STACK CFI 32574 .cfa: $rsp 1040 +
STACK CFI 3257d .cfa: $rsp 960 +
STACK CFI INIT 32790 ce .cfa: $rsp 8 + .ra: .cfa -8 + ^
STACK CFI 32792 .cfa: $rsp 16 +
STACK CFI 32794 .cfa: $rsp 24 +
STACK CFI 32795 .cfa: $rsp 32 +
STACK CFI 32799 $r14: .cfa -24 + ^ $r15: .cfa -16 + ^ $rbx: .cfa -32 + ^ .cfa: $rsp 64 +
STACK CFI 32810 .cfa: $rsp 72 +
STACK CFI 3281f .cfa: $rsp 80 +
STACK CFI 32821 .cfa: $rsp 88 +
STACK CFI 32822 .cfa: $rsp 96 +
STACK CFI 32825 .cfa: $rsp 104 +
STACK CFI 32827 .cfa: $rsp 112 +
STACK CFI 32830 .cfa: $rsp 64 +
STACK CFI INIT 32860 9c .cfa: $rsp 8 + .ra: .cfa -8 + ^
STACK CFI 32862 .cfa: $rsp 16 +
STACK CFI 32864 .cfa: $rsp 24 +
STACK CFI 32866 .cfa: $rsp 32 +
STACK CFI 32868 .cfa: $rsp 40 +
STACK CFI 32869 .cfa: $rsp 48 +
STACK CFI 3286d $r12: .cfa -40 + ^ $r13: .cfa -32 + ^ $r14: .cfa -24 + ^ $r15: .cfa -16 + ^ $rbx: .cfa -48 + ^ .cfa: $rsp 64 +
STACK CFI INIT 32900 11 .cfa: $rsp 8 + .ra: .cfa -8 + ^
STACK CFI INIT 32920 f2e .cfa: $rsp 8 + .ra: .cfa -8 + ^
STACK CFI 32921 .cfa: $rsp 16 +
STACK CFI 32923 .cfa: $rsp 24 +
STACK CFI 32925 .cfa: $rsp 32 +
STACK CFI 32927 .cfa: $rsp 40 +
STACK CFI 32929 .cfa: $rsp 48 +
STACK CFI 3292a .cfa: $rsp 56 +
STACK CFI 32931 $r12: .cfa -48 + ^ $r13: .cfa -40 + ^ $r14: .cfa -32 + ^ $r15: .cfa -24 + ^ $rbp: .cfa -16 + ^ $rbx: .cfa -56 + ^ .cfa: $rsp 192 +
STACK CFI INIT 33850 429 .cfa: $rsp 8 + .ra: .cfa -8 + ^
STACK CFI 33851 .cfa: $rsp 16 +
STACK CFI 33853 .cfa: $rsp 24 +
STACK CFI 33855 .cfa: $rsp 32 +
STACK CFI 33857 .cfa: $rsp 40 +
STACK CFI 33859 .cfa: $rsp 48 +
STACK CFI 3385a .cfa: $rsp 56 +
STACK CFI 33861 $r12: .cfa -48 + ^ $r13: .cfa -40 + ^ $r14: .cfa -32 + ^ $r15: .cfa -24 + ^ $rbp: .cfa -16 + ^ $rbx: .cfa -56 + ^ .cfa: $rsp 240 +
STACK CFI INIT 33c80 16 .cfa: $rsp 8 + .ra: .cfa -8 + ^
STACK CFI INIT 33ca0 1e .cfa: $rsp 8 + .ra: .cfa -8 + ^
STACK CFI INIT 33cc0 3d .cfa: $rsp 8 + .ra: .cfa -8 + ^
STACK CFI 33cc2 .cfa: $rsp 16 +
STACK CFI 33cc4 .cfa: $rsp 24 +
STACK CFI 33cc5 $r14: .cfa -24 + ^ $r15: .cfa -16 + ^ $rbx: .cfa -32 + ^ .cfa: $rsp 32 +
STACK CFI INIT 33d00 8 .cfa: $rsp 8 + .ra: .cfa -8 + ^
STACK CFI INIT 33d10 aa .cfa: $rsp 8 + .ra: .cfa -8 + ^
STACK CFI 33d12 .cfa: $rsp 16 +
STACK CFI 33d14 .cfa: $rsp 24 +
STACK CFI 33d16 .cfa: $rsp 32 +
STACK CFI 33d18 .cfa: $rsp 40 +
STACK CFI 33d19 $r12: .cfa -40 + ^ $r13: .cfa -32 + ^ $r14: .cfa -24 + ^ $r15: .cfa -16 + ^ $rbx: .cfa -48 + ^ .cfa: $rsp 48 +
STACK CFI INIT 33dc0 4e .cfa: $rsp 8 + .ra: .cfa -8 + ^
STACK CFI 33dc2 .cfa: $rsp 16 +
STACK CFI 33dc4 .cfa: $rsp 24 +
STACK CFI 33dc5 $r14: .cfa -24 + ^ $r15: .cfa -16 + ^ $rbx: .cfa -32 + ^ .cfa: $rsp 32 +
STACK CFI INIT 33e10 4d .cfa: $rsp 8 + .ra: .cfa -8 + ^
STACK CFI 33e12 .cfa: $rsp 16 +
STACK CFI 33e14 .cfa: $rsp 24 +
STACK CFI 33e15 $r14: .cfa -24 + ^ $r15: .cfa -16 + ^ $rbx: .cfa -32 + ^ .cfa: $rsp 32 +
STACK CFI INIT 33e60 1b21 .cfa: $rsp 8 + .ra: .cfa -8 + ^
STACK CFI 33e61 .cfa: $rsp 16 +
STACK CFI 33e63 .cfa: $rsp 24 +
STACK CFI 33e65 .cfa: $rsp 32 +
STACK CFI 33e67 .cfa: $rsp 40 +
STACK CFI 33e69 .cfa: $rsp 48 +
STACK CFI 33e6a .cfa: $rsp 56 +
STACK CFI 33e71 $r12: .cfa -48 + ^ $r13: .cfa -40 + ^ $r14: .cfa -32 + ^ $r15: .cfa -24 + ^ $rbp: .cfa -16 + ^ $rbx: .cfa -56 + ^ .cfa: $rsp 608 +
STACK CFI 3526e .cfa: $rsp 616 +
STACK CFI 35270 .cfa: $rsp 624 +
STACK CFI 35272 .cfa: $rsp 632 +
STACK CFI 35274 .cfa: $rsp 640 +
STACK CFI 3527c .cfa: $rsp 648 +
STACK CFI 35283 .cfa: $rsp 656 +
STACK CFI 3528c .cfa: $rsp 608 +
STACK CFI INIT 35990 87 .cfa: $rsp 8 + .ra: .cfa -8 + ^
STACK CFI 35991 .cfa: $rsp 16 +
STACK CFI 35993 .cfa: $rsp 24 +
STACK CFI 35995 .cfa: $rsp 32 +
STACK CFI 35997 .cfa: $rsp 40 +
STACK CFI 35999 .cfa: $rsp 48 +
STACK CFI 3599a .cfa: $rsp 56 +
STACK CFI 3599e $r12: .cfa -48 + ^ $r13: .cfa -40 + ^ $r14: .cfa -32 + ^ $r15: .cfa -24 + ^ $rbp: .cfa -16 + ^ $rbx: .cfa -56 + ^ .cfa: $rsp 80 +
STACK CFI INIT 35a20 45 .cfa: $rsp 8 + .ra: .cfa -8 + ^
STACK CFI INIT 35a70 98 .cfa: $rsp 8 + .ra: .cfa -8 + ^
STACK CFI 35a72 .cfa: $rsp 16 +
STACK CFI 35a74 .cfa: $rsp 24 +
STACK CFI 35a75 .cfa: $rsp 32 +
STACK CFI 35a7c $r14: .cfa -24 + ^ $r15: .cfa -16 + ^ $rbx: .cfa -32 + ^ .cfa: $rsp 240 +
STACK CFI INIT 35b10 625 .cfa: $rsp 8 + .ra: .cfa -8 + ^
STACK CFI 35b11 .cfa: $rsp 16 +
STACK CFI 35b13 .cfa: $rsp 24 +
STACK CFI 35b15 .cfa: $rsp 32 +
STACK CFI 35b17 .cfa: $rsp 40 +
STACK CFI 35b19 .cfa: $rsp 48 +
STACK CFI 35b1a .cfa: $rsp 56 +
STACK CFI 35b21 $r12: .cfa -48 + ^ $r13: .cfa -40 + ^ $r14: .cfa -32 + ^ $r15: .cfa -24 + ^ $rbp: .cfa -16 + ^ $rbx: .cfa -56 + ^ .cfa: $rsp 352 +
STACK CFI 35d1e .cfa: $rsp 360 +
STACK CFI 35d1f .cfa: $rsp 368 +
STACK CFI 35d28 .cfa: $rsp 352 +
STACK CFI 35ec7 .cfa: $rsp 360 +
STACK CFI 35eeb .cfa: $rsp 368 +
STACK CFI 35ef2 .cfa: $rsp 376 +
STACK CFI 35ef9 .cfa: $rsp 384 +
STACK CFI 35f00 .cfa: $rsp 392 +
STACK CFI 35f04 .cfa: $rsp 400 +
STACK CFI 35f0d .cfa: $rsp 352 +
STACK CFI 36038 .cfa: $rsp 360 +
STACK CFI 3603a .cfa: $rsp 368 +
STACK CFI 36041 .cfa: $rsp 376 +
STACK CFI 36048 .cfa: $rsp 384 +
STACK CFI 36050 .cfa: $rsp 392 +
STACK CFI 36057 .cfa: $rsp 400 +
STACK CFI 36060 .cfa: $rsp 352 +
STACK CFI INIT 36140 14 .cfa: $rsp 8 + .ra: .cfa -8 + ^
STACK CFI INIT 36160 e46 .cfa: $rsp 8 + .ra: .cfa -8 + ^
STACK CFI 36161 .cfa: $rsp 16 +
STACK CFI 36163 .cfa: $rsp 24 +
STACK CFI 36165 .cfa: $rsp 32 +
STACK CFI 36167 .cfa: $rsp 40 +
STACK CFI 36169 .cfa: $rsp 48 +
STACK CFI 3616a .cfa: $rsp 56 +
STACK CFI 36171 $r12: .cfa -48 + ^ $r13: .cfa -40 + ^ $r14: .cfa -32 + ^ $r15: .cfa -24 + ^ $rbp: .cfa -16 + ^ $rbx: .cfa -56 + ^ .cfa: $rsp 272 +
STACK CFI 36d7e .cfa: $rsp 280 +
STACK CFI 36d85 .cfa: $rsp 288 +
STACK CFI 36d8e .cfa: $rsp 272 +
STACK CFI INIT 36fb0 66d .cfa: $rsp 8 + .ra: .cfa -8 + ^
STACK CFI 36fb1 .cfa: $rsp 16 +
STACK CFI 36fb3 .cfa: $rsp 24 +
STACK CFI 36fb5 .cfa: $rsp 32 +
STACK CFI 36fb7 .cfa: $rsp 40 +
STACK CFI 36fb9 .cfa: $rsp 48 +
STACK CFI 36fba .cfa: $rsp 56 +
STACK CFI 36fc1 $r12: .cfa -48 + ^ $r13: .cfa -40 + ^ $r14: .cfa -32 + ^ $r15: .cfa -24 + ^ $rbp: .cfa -16 + ^ $rbx: .cfa -56 + ^ .cfa: $rsp 336 +
STACK CFI INIT 37620 67e .cfa: $rsp 8 + .ra: .cfa -8 + ^
STACK CFI 37621 .cfa: $rsp 16 +
STACK CFI 37623 .cfa: $rsp 24 +
STACK CFI 37625 .cfa: $rsp 32 +
STACK CFI 37627 .cfa: $rsp 40 +
STACK CFI 37629 .cfa: $rsp 48 +
STACK CFI 3762a .cfa: $rsp 56 +
STACK CFI 37631 $r12: .cfa -48 + ^ $r13: .cfa -40 + ^ $r14: .cfa -32 + ^ $r15: .cfa -24 + ^ $rbp: .cfa -16 + ^ $rbx: .cfa -56 + ^ .cfa: $rsp 320 +
STACK CFI 37896 .cfa: $rsp 328 +
STACK CFI 37898 .cfa: $rsp 336 +
STACK CFI 378a1 .cfa: $rsp 320 +
STACK CFI 37971 .cfa: $rsp 328 +
STACK CFI 37973 .cfa: $rsp 336 +
STACK CFI 37977 .cfa: $rsp 344 +
STACK CFI 37978 .cfa: $rsp 352 +
STACK CFI 37981 .cfa: $rsp 320 +
STACK CFI 37bd8 .cfa: $rsp 328 +
STACK CFI 37bed .cfa: $rsp 336 +
STACK CFI 37bf6 .cfa: $rsp 320 +
STACK CFI INIT 37ca0 17 .cfa: $rsp 8 + .ra: .cfa -8 + ^
STACK CFI INIT 37cc0 22c4 .cfa: $rsp 8 + .ra: .cfa -8 + ^
STACK CFI 37cc1 .cfa: $rsp 16 +
STACK CFI 37cc3 .cfa: $rsp 24 +
STACK CFI 37cc5 .cfa: $rsp 32 +
STACK CFI 37cc7 .cfa: $rsp 40 +
STACK CFI 37cc9 .cfa: $rsp 48 +
STACK CFI 37cca .cfa: $rsp 56 +
STACK CFI 37cd1 $r12: .cfa -48 + ^ $r13: .cfa -40 + ^ $r14: .cfa -32 + ^ $r15: .cfa -24 + ^ $rbp: .cfa -16 + ^ $rbx: .cfa -56 + ^ .cfa: $rsp 496 +
STACK CFI INIT 39f90 17 .cfa: $rsp 8 + .ra: .cfa -8 + ^
STACK CFI INIT 39fb0 17 .cfa: $rsp 8 + .ra: .cfa -8 + ^
STACK CFI INIT 39fd0 11a .cfa: $rsp 8 + .ra: .cfa -8 + ^
STACK CFI 39fd1 .cfa: $rsp 16 +
STACK CFI 39fd3 .cfa: $rsp 24 +
STACK CFI 39fd5 .cfa: $rsp 32 +
STACK CFI 39fd7 .cfa: $rsp 40 +
STACK CFI 39fd9 .cfa: $rsp 48 +
STACK CFI 39fda .cfa: $rsp 56 +
STACK CFI 39fdb $r12: .cfa -48 + ^ $r13: .cfa -40 + ^ $r14: .cfa -32 + ^ $r15: .cfa -24 + ^ $rbp: .cfa -16 + ^ $rbx: .cfa -56 + ^ .cfa: $rsp 64 +
STACK CFI INIT 3a0f0 28 .cfa: $rsp 8 + .ra: .cfa -8 + ^
STACK CFI INIT 3a120 992 .cfa: $rsp 8 + .ra: .cfa -8 + ^
STACK CFI 3a121 .cfa: $rsp 16 +
STACK CFI 3a123 .cfa: $rsp 24 +
STACK CFI 3a125 .cfa: $rsp 32 +
STACK CFI 3a127 .cfa: $rsp 40 +
STACK CFI 3a129 .cfa: $rsp 48 +
STACK CFI 3a12a .cfa: $rsp 56 +
STACK CFI 3a131 $r12: .cfa -48 + ^ $r13: .cfa -40 + ^ $r14: .cfa -32 + ^ $r15: .cfa -24 + ^ $rbp: .cfa -16 + ^ $rbx: .cfa -56 + ^ .cfa: $rsp 400 +
STACK CFI 3a3fa .cfa: $rsp 408 +
STACK CFI 3a3fd .cfa: $rsp 416 +
STACK CFI 3a406 .cfa: $rsp 400 +
STACK CFI 3a6c3 .cfa: $rsp 408 +
STACK CFI 3a6e0 .cfa: $rsp 416 +
STACK CFI 3a6e7 .cfa: $rsp 424 +
STACK CFI 3a6ee .cfa: $rsp 432 +
STACK CFI 3a6fb .cfa: $rsp 400 +
STACK CFI 3a74e .cfa: $rsp 408 +
STACK CFI 3a755 .cfa: $rsp 416 +
STACK CFI 3a75c .cfa: $rsp 424 +
STACK CFI 3a763 .cfa: $rsp 432 +
STACK CFI 3a76c .cfa: $rsp 400 +
STACK CFI 3a809 .cfa: $rsp 408 +
STACK CFI 3a810 .cfa: $rsp 416 +
STACK CFI 3a817 .cfa: $rsp 424 +
STACK CFI 3a81e .cfa: $rsp 432 +
STACK CFI 3a827 .cfa: $rsp 400 +
STACK CFI INIT 3aac0 39 .cfa: $rsp 8 + .ra: .cfa -8 + ^
STACK CFI INIT 3ab00 376 .cfa: $rsp 8 + .ra: .cfa -8 + ^
STACK CFI 3ab01 .cfa: $rsp 16 +
STACK CFI 3ab03 .cfa: $rsp 24 +
STACK CFI 3ab05 .cfa: $rsp 32 +
STACK CFI 3ab07 .cfa: $rsp 40 +
STACK CFI 3ab09 .cfa: $rsp 48 +
STACK CFI 3ab0a .cfa: $rsp 56 +
STACK CFI 3ab11 $r12: .cfa -48 + ^ $r13: .cfa -40 + ^ $r14: .cfa -32 + ^ $r15: .cfa -24 + ^ $rbp: .cfa -16 + ^ $rbx: .cfa -56 + ^ .cfa: $rsp 352 +
STACK CFI 3adad .cfa: $rsp 360 +
STACK CFI 3adb2 .cfa: $rsp 368 +
STACK CFI 3adbb .cfa: $rsp 352 +
STACK CFI INIT 3ae80 6b5 .cfa: $rsp 8 + .ra: .cfa -8 + ^
STACK CFI 3ae81 .cfa: $rsp 16 +
STACK CFI 3ae83 .cfa: $rsp 24 +
STACK CFI 3ae85 .cfa: $rsp 32 +
STACK CFI 3ae87 .cfa: $rsp 40 +
STACK CFI 3ae89 .cfa: $rsp 48 +
STACK CFI 3ae8a .cfa: $rsp 56 +
STACK CFI 3ae91 $r12: .cfa -48 + ^ $r13: .cfa -40 + ^ $r14: .cfa -32 + ^ $r15: .cfa -24 + ^ $rbp: .cfa -16 + ^ $rbx: .cfa -56 + ^ .cfa: $rsp 352 +
STACK CFI INIT 3b540 c9 .cfa: $rsp 8 + .ra: .cfa -8 + ^
STACK CFI 3b541 .cfa: $rsp 16 +
STACK CFI 3b543 .cfa: $rsp 24 +
STACK CFI 3b545 .cfa: $rsp 32 +
STACK CFI 3b547 .cfa: $rsp 40 +
STACK CFI 3b549 .cfa: $rsp 48 +
STACK CFI 3b54a .cfa: $rsp 56 +
STACK CFI 3b54b $r12: .cfa -48 + ^ $r13: .cfa -40 + ^ $r14: .cfa -32 + ^ $r15: .cfa -24 + ^ $rbp: .cfa -16 + ^ $rbx: .cfa -56 + ^ .cfa: $rsp 64 +
STACK CFI INIT 3b610 22 .cfa: $rsp 8 + .ra: .cfa -8 + ^
STACK CFI 3b611 $rbx: .cfa -16 + ^ .cfa: $rsp 16 +
STACK CFI INIT 3b640 78b .cfa: $rsp 8 + .ra: .cfa -8 + ^
STACK CFI 3b641 .cfa: $rsp 16 +
STACK CFI 3b643 .cfa: $rsp 24 +
STACK CFI 3b645 .cfa: $rsp 32 +
STACK CFI 3b647 .cfa: $rsp 40 +
STACK CFI 3b649 .cfa: $rsp 48 +
STACK CFI 3b64a .cfa: $rsp 56 +
STACK CFI 3b651 $r12: .cfa -48 + ^ $r13: .cfa -40 + ^ $r14: .cfa -32 + ^ $r15: .cfa -24 + ^ $rbp: .cfa -16 + ^ $rbx: .cfa -56 + ^ .cfa: $rsp 208 +
STACK CFI INIT 3bdd0 80 .cfa: $rsp 8 + .ra: .cfa -8 + ^
STACK CFI 3bdd1 .cfa: $rsp 16 +
STACK CFI 3bdd3 .cfa: $rsp 24 +
STACK CFI 3bdd5 .cfa: $rsp 32 +
STACK CFI 3bdd6 .cfa: $rsp 40 +
STACK CFI 3bdda $r14: .cfa -32 + ^ $r15: .cfa -24 + ^ $rbp: .cfa -16 + ^ $rbx: .cfa -40 + ^ .cfa: $rsp 64 +
STACK CFI 3bdf0 .cfa: $rsp 40 +
STACK CFI 3bdf1 .cfa: $rsp 32 +
STACK CFI 3bdf3 .cfa: $rsp 24 +
STACK CFI 3bdf5 .cfa: $rsp 16 +
STACK CFI 3bdf6 .cfa: $rsp 8 +
STACK CFI 3bdf7 .cfa: $rsp 64 +
STACK CFI INIT 3be50 99 .cfa: $rsp 8 + .ra: .cfa -8 + ^
STACK CFI 3be52 .cfa: $rsp 16 +
STACK CFI 3be53 .cfa: $rsp 24 +
STACK CFI 3be57 $r14: .cfa -16 + ^ $rbx: .cfa -24 + ^ .cfa: $rsp 80 +
STACK CFI 3bed0 .cfa: $rsp 24 +
STACK CFI 3bed1 .cfa: $rsp 16 +
STACK CFI 3bed3 .cfa: $rsp 8 +
STACK CFI 3bed8 .cfa: $rsp 80 +
STACK CFI INIT 3bef0 8 .cfa: $rsp 8 + .ra: .cfa -8 + ^
STACK CFI INIT 3bf00 8 .cfa: $rsp 8 + .ra: .cfa -8 + ^
STACK CFI INIT 3bf10 1 .cfa: $rsp 8 + .ra: .cfa -8 + ^
STACK CFI INIT 3bf20 56 .cfa: $rsp 8 + .ra: .cfa -8 + ^
STACK CFI 3bf22 .cfa: $rsp 16 +
STACK CFI 3bf23 .cfa: $rsp 24 +
STACK CFI 3bf24 $r14: .cfa -16 + ^ $rbx: .cfa -24 + ^ .cfa: $rsp 32 +
STACK CFI 3bf4d .cfa: $rsp 24 +
STACK CFI 3bf4e .cfa: $rsp 16 +
STACK CFI 3bf50 .cfa: $rsp 8 +
STACK CFI 3bf55 .cfa: $rsp 32 +
STACK CFI 3bf59 .cfa: $rsp 24 +
STACK CFI 3bf5a .cfa: $rsp 16 +
STACK CFI 3bf5c .cfa: $rsp 8 +
STACK CFI 3bf5d .cfa: $rsp 32 +
STACK CFI INIT 3bf80 f .cfa: $rsp 8 + .ra: .cfa -8 + ^
STACK CFI INIT 3bf90 16 .cfa: $rsp 8 + .ra: .cfa -8 + ^
STACK CFI INIT 3bfb0 6b .cfa: $rsp 8 + .ra: .cfa -8 + ^
STACK CFI 3bfb2 .cfa: $rsp 16 +
STACK CFI 3bfb3 .cfa: $rsp 24 +
STACK CFI 3bfb4 $r14: .cfa -16 + ^ $rbx: .cfa -24 + ^ .cfa: $rsp 32 +
STACK CFI 3bff1 .cfa: $rsp 24 +
STACK CFI 3bff2 .cfa: $rsp 16 +
STACK CFI 3bff4 .cfa: $rsp 8 +
STACK CFI 3bff9 .cfa: $rsp 32 +
STACK CFI INIT 3c020 128 .cfa: $rsp 8 + .ra: .cfa -8 + ^
STACK CFI 3c021 .cfa: $rsp 16 +
STACK CFI 3c023 .cfa: $rsp 24 +
STACK CFI 3c025 .cfa: $rsp 32 +
STACK CFI 3c027 .cfa: $rsp 40 +
STACK CFI 3c029 .cfa: $rsp 48 +
STACK CFI 3c02a .cfa: $rsp 56 +
STACK CFI 3c02e $r12: .cfa -48 + ^ $r13: .cfa -40 + ^ $r14: .cfa -32 + ^ $r15: .cfa -24 + ^ $rbp: .cfa -16 + ^ $rbx: .cfa -56 + ^ .cfa: $rsp 144 +
STACK CFI 3c0de .cfa: $rsp 56 +
STACK CFI 3c0df .cfa: $rsp 48 +
STACK CFI 3c0e1 .cfa: $rsp 40 +
STACK CFI 3c0e3 .cfa: $rsp 32 +
STACK CFI 3c0e5 .cfa: $rsp 24 +
STACK CFI 3c0e7 .cfa: $rsp 16 +
STACK CFI 3c0e8 .cfa: $rsp 8 +
STACK CFI 3c0e9 .cfa: $rsp 144 +
STACK CFI INIT 3c150 b .cfa: $rsp 8 + .ra: .cfa -8 + ^
STACK CFI INIT 3c160 b .cfa: $rsp 8 + .ra: .cfa -8 + ^
STACK CFI INIT 3c170 18d .cfa: $rsp 8 + .ra: .cfa -8 + ^
STACK CFI 3c171 .cfa: $rsp 16 +
STACK CFI 3c173 .cfa: $rsp 24 +
STACK CFI 3c175 .cfa: $rsp 32 +
STACK CFI 3c177 .cfa: $rsp 40 +
STACK CFI 3c179 .cfa: $rsp 48 +
STACK CFI 3c17a .cfa: $rsp 56 +
STACK CFI 3c17e $r12: .cfa -48 + ^ $r13: .cfa -40 + ^ $r14: .cfa -32 + ^ $r15: .cfa -24 + ^ $rbp: .cfa -16 + ^ $rbx: .cfa -56 + ^ .cfa: $rsp 96 +
STACK CFI 3c2f2 .cfa: $rsp 56 +
STACK CFI 3c2f3 .cfa: $rsp 48 +
STACK CFI 3c2f5 .cfa: $rsp 40 +
STACK CFI 3c2f7 .cfa: $rsp 32 +
STACK CFI 3c2f9 .cfa: $rsp 24 +
STACK CFI 3c2fb .cfa: $rsp 16 +
STACK CFI 3c2fc .cfa: $rsp 8 +
STACK CFI INIT 3c300 177 .cfa: $rsp 8 + .ra: .cfa -8 + ^
STACK CFI 3c301 .cfa: $rsp 16 +
STACK CFI 3c303 .cfa: $rsp 24 +
STACK CFI 3c304 $r14: .cfa -24 + ^ $rbp: .cfa -16 + ^ $rbx: .cfa -32 + ^ .cfa: $rsp 32 +
STACK CFI 3c465 .cfa: $rsp 24 +
STACK CFI 3c467 .cfa: $rsp 16 +
STACK CFI 3c468 .cfa: $rsp 8 +
STACK CFI 3c469 .cfa: $rsp 32 +
STACK CFI INIT 3c480 2d .cfa: $rsp 8 + .ra: .cfa -8 + ^
STACK CFI INIT 3c4b0 2d .cfa: $rsp 8 + .ra: .cfa -8 + ^
STACK CFI INIT 3c4e0 36 .cfa: $rsp 8 + .ra: .cfa -8 + ^
STACK CFI INIT 3c520 33 .cfa: $rsp 8 + .ra: .cfa -8 + ^
STACK CFI INIT 3c560 8 .cfa: $rsp 8 + .ra: .cfa -8 + ^
STACK CFI INIT 3c570 c .cfa: $rsp 8 + .ra: .cfa -8 + ^
STACK CFI INIT 3c580 274 .cfa: $rsp 8 + .ra: .cfa -8 + ^
STACK CFI 3c581 .cfa: $rsp 16 +
STACK CFI 3c583 .cfa: $rsp 24 +
STACK CFI 3c585 .cfa: $rsp 32 +
STACK CFI 3c587 .cfa: $rsp 40 +
STACK CFI 3c589 .cfa: $rsp 48 +
STACK CFI 3c58a .cfa: $rsp 56 +
STACK CFI 3c58b $r12: .cfa -48 + ^ $r13: .cfa -40 + ^ $r14: .cfa -32 + ^ $r15: .cfa -24 + ^ $rbp: .cfa -16 + ^ $rbx: .cfa -56 + ^ .cfa: $rsp 64 +
STACK CFI INIT 3c800 a .cfa: $rsp 8 + .ra: .cfa -8 + ^
STACK CFI INIT 3c810 120 .cfa: $rsp 8 + .ra: .cfa -8 + ^
STACK CFI 3c812 .cfa: $rsp 16 +
STACK CFI 3c814 .cfa: $rsp 24 +
STACK CFI 3c815 $r14: .cfa -24 + ^ $r15: .cfa -16 + ^ $rbx: .cfa -32 + ^ .cfa: $rsp 32 +
STACK CFI INIT 3c930 b .cfa: $rsp 8 + .ra: .cfa -8 + ^
STACK CFI INIT 3c940 92 .cfa: $rsp 8 + .ra: .cfa -8 + ^
STACK CFI 3c941 .cfa: $rsp 16 +
STACK CFI 3c943 .cfa: $rsp 24 +
STACK CFI 3c945 .cfa: $rsp 32 +
STACK CFI 3c946 .cfa: $rsp 40 +
STACK CFI 3c947 $r14: .cfa -32 + ^ $r15: .cfa -24 + ^ $rbp: .cfa -16 + ^ $rbx: .cfa -40 + ^ .cfa: $rsp 48 +
STACK CFI INIT 3c9e0 65 .cfa: $rsp 8 + .ra: .cfa -8 + ^
STACK CFI 3c9e2 .cfa: $rsp 16 +
STACK CFI 3c9e3 .cfa: $rsp 24 +
STACK CFI 3c9e4 $r14: .cfa -16 + ^ $rbx: .cfa -24 + ^ .cfa: $rsp 32 +
STACK CFI INIT 3ca50 1e3 .cfa: $rsp 8 + .ra: .cfa -8 + ^
STACK CFI 3ca51 .cfa: $rsp 16 +
STACK CFI 3ca53 .cfa: $rsp 24 +
STACK CFI 3ca55 .cfa: $rsp 32 +
STACK CFI 3ca57 .cfa: $rsp 40 +
STACK CFI 3ca59 .cfa: $rsp 48 +
STACK CFI 3ca5a .cfa: $rsp 56 +
STACK CFI 3ca5e $r12: .cfa -48 + ^ $r13: .cfa -40 + ^ $r14: .cfa -32 + ^ $r15: .cfa -24 + ^ $rbp: .cfa -16 + ^ $rbx: .cfa -56 + ^ .cfa: $rsp 80 +
STACK CFI INIT 3cc40 6c2 .cfa: $rsp 8 + .ra: .cfa -8 + ^
STACK CFI 3cc41 .cfa: $rsp 16 +
STACK CFI 3cc43 .cfa: $rsp 24 +
STACK CFI 3cc45 .cfa: $rsp 32 +
STACK CFI 3cc47 .cfa: $rsp 40 +
STACK CFI 3cc49 .cfa: $rsp 48 +
STACK CFI 3cc4a .cfa: $rsp 56 +
STACK CFI 3cc4e $r12: .cfa -48 + ^ $r13: .cfa -40 + ^ $r14: .cfa -32 + ^ $r15: .cfa -24 + ^ $rbp: .cfa -16 + ^ $rbx: .cfa -56 + ^ .cfa: $rsp 96 +
STACK CFI INIT 3d310 1 .cfa: $rsp 8 + .ra: .cfa -8 + ^
STACK CFI INIT 3d320 1 .cfa: $rsp 8 + .ra: .cfa -8 + ^
STACK CFI INIT 3d330 3d .cfa: $rsp 8 + .ra: .cfa -8 + ^
STACK CFI 3d331 $rbx: .cfa -16 + ^ .cfa: $rsp 16 +
STACK CFI INIT 3d370 3a .cfa: $rsp 8 + .ra: .cfa -8 + ^
STACK CFI 3d371 $rbx: .cfa -16 + ^ .cfa: $rsp 16 +
STACK CFI INIT 3d3b0 23 .cfa: $rsp 8 + .ra: .cfa -8 + ^
STACK CFI INIT 3d3e0 1 .cfa: $rsp 8 + .ra: .cfa -8 + ^
STACK CFI INIT 3d3f0 1 .cfa: $rsp 8 + .ra: .cfa -8 + ^
STACK CFI INIT 3d400 c6a .cfa: $rsp 8 + .ra: .cfa -8 + ^
STACK CFI 3d401 .cfa: $rsp 16 +
STACK CFI 3d403 .cfa: $rsp 24 +
STACK CFI 3d405 .cfa: $rsp 32 +
STACK CFI 3d407 .cfa: $rsp 40 +
STACK CFI 3d409 .cfa: $rsp 48 +
STACK CFI 3d40a .cfa: $rsp 56 +
STACK CFI 3d40e $r12: .cfa -48 + ^ $r13: .cfa -40 + ^ $r14: .cfa -32 + ^ $r15: .cfa -24 + ^ $rbp: .cfa -16 + ^ $rbx: .cfa -56 + ^ .cfa: $rsp 80 +
STACK CFI INIT 3e070 a .cfa: $rsp 8 + .ra: .cfa -8 + ^
STACK CFI INIT 3e080 769 .cfa: $rsp 8 + .ra: .cfa -8 + ^
STACK CFI 3e081 .cfa: $rsp 16 +
STACK CFI 3e083 .cfa: $rsp 24 +
STACK CFI 3e085 .cfa: $rsp 32 +
STACK CFI 3e087 .cfa: $rsp 40 +
STACK CFI 3e089 .cfa: $rsp 48 +
STACK CFI 3e08a .cfa: $rsp 56 +
STACK CFI 3e08e $r12: .cfa -48 + ^ $r13: .cfa -40 + ^ $r14: .cfa -32 + ^ $r15: .cfa -24 + ^ $rbp: .cfa -16 + ^ $rbx: .cfa -56 + ^ .cfa: $rsp 80 +
STACK CFI INIT 3e7f0 49 .cfa: $rsp 8 + .ra: .cfa -8 + ^
STACK CFI 3e7f1 .cfa: $rsp 16 +
STACK CFI 3e7f5 $rbx: .cfa -16 + ^ .cfa: $rsp 32 +
STACK CFI INIT 3e840 c71 .cfa: $rsp 8 + .ra: .cfa -8 + ^
STACK CFI 3e841 .cfa: $rsp 16 +
STACK CFI 3e843 .cfa: $rsp 24 +
STACK CFI 3e845 .cfa: $rsp 32 +
STACK CFI 3e847 .cfa: $rsp 40 +
STACK CFI 3e849 .cfa: $rsp 48 +
STACK CFI 3e84a .cfa: $rsp 56 +
STACK CFI 3e84e $r12: .cfa -48 + ^ $r13: .cfa -40 + ^ $r14: .cfa -32 + ^ $r15: .cfa -24 + ^ $rbp: .cfa -16 + ^ $rbx: .cfa -56 + ^ .cfa: $rsp 80 +
STACK CFI INIT 3f4c0 fbc .cfa: $rsp 8 + .ra: .cfa -8 + ^
STACK CFI 3f4c1 .cfa: $rsp 16 +
STACK CFI 3f4c3 .cfa: $rsp 24 +
STACK CFI 3f4c5 .cfa: $rsp 32 +
STACK CFI 3f4c7 .cfa: $rsp 40 +
STACK CFI 3f4c9 .cfa: $rsp 48 +
STACK CFI 3f4ca .cfa: $rsp 56 +
STACK CFI 3f4ce $r12: .cfa -48 + ^ $r13: .cfa -40 + ^ $r14: .cfa -32 + ^ $r15: .cfa -24 + ^ $rbp: .cfa -16 + ^ $rbx: .cfa -56 + ^ .cfa: $rsp 96 +
STACK CFI INIT 40480 5fe .cfa: $rsp 8 + .ra: .cfa -8 + ^
STACK CFI 40481 .cfa: $rsp 16 +
STACK CFI 40483 .cfa: $rsp 24 +
STACK CFI 40485 .cfa: $rsp 32 +
STACK CFI 40487 .cfa: $rsp 40 +
STACK CFI 40489 .cfa: $rsp 48 +
STACK CFI 4048a .cfa: $rsp 56 +
STACK CFI 4048b $r12: .cfa -48 + ^ $r13: .cfa -40 + ^ $r14: .cfa -32 + ^ $r15: .cfa -24 + ^ $rbp: .cfa -16 + ^ $rbx: .cfa -56 + ^ .cfa: $rsp 64 +
STACK CFI INIT 40a80 bd .cfa: $rsp 8 + .ra: .cfa -8 + ^
STACK CFI 40a81 $rbx: .cfa -16 + ^ .cfa: $rsp 16 +
STACK CFI INIT 40b40 38 .cfa: $rsp 8 + .ra: .cfa -8 + ^
STACK CFI 40b41 .cfa: $rsp 16 +
STACK CFI INIT 40b80 37 .cfa: $rsp 8 + .ra: .cfa -8 + ^
STACK CFI 40b81 .cfa: $rsp 16 +
STACK CFI INIT 40bc0 1eac .cfa: $rsp 8 + .ra: .cfa -8 + ^
STACK CFI 40bc1 .cfa: $rsp 16 +
STACK CFI 40bc3 .cfa: $rsp 24 +
STACK CFI 40bc5 .cfa: $rsp 32 +
STACK CFI 40bc7 .cfa: $rsp 40 +
STACK CFI 40bc9 .cfa: $rsp 48 +
STACK CFI 40bca .cfa: $rsp 56 +
STACK CFI 40bce $r12: .cfa -48 + ^ $r13: .cfa -40 + ^ $r14: .cfa -32 + ^ $r15: .cfa -24 + ^ $rbp: .cfa -16 + ^ $rbx: .cfa -56 + ^ .cfa: $rsp 96 +
STACK CFI INIT 42a70 c15 .cfa: $rsp 8 + .ra: .cfa -8 + ^
STACK CFI 42a71 .cfa: $rsp 16 +
STACK CFI 42a73 .cfa: $rsp 24 +
STACK CFI 42a75 .cfa: $rsp 32 +
STACK CFI 42a77 .cfa: $rsp 40 +
STACK CFI 42a79 .cfa: $rsp 48 +
STACK CFI 42a7a .cfa: $rsp 56 +
STACK CFI 42a7e $r12: .cfa -48 + ^ $r13: .cfa -40 + ^ $r14: .cfa -32 + ^ $r15: .cfa -24 + ^ $rbp: .cfa -16 + ^ $rbx: .cfa -56 + ^ .cfa: $rsp 112 +
STACK CFI INIT 43690 482 .cfa: $rsp 8 + .ra: .cfa -8 + ^
STACK CFI 43692 .cfa: $rsp 16 +
STACK CFI 43694 .cfa: $rsp 24 +
STACK CFI 43696 .cfa: $rsp 32 +
STACK CFI 43698 .cfa: $rsp 40 +
STACK CFI 43699 $r12: .cfa -40 + ^ $r13: .cfa -32 + ^ $r14: .cfa -24 + ^ $r15: .cfa -16 + ^ $rbx: .cfa -48 + ^ .cfa: $rsp 48 +
STACK CFI INIT 43b20 3cf .cfa: $rsp 8 + .ra: .cfa -8 + ^
STACK CFI 43b21 .cfa: $rsp 16 +
STACK CFI 43b23 .cfa: $rsp 24 +
STACK CFI 43b25 .cfa: $rsp 32 +
STACK CFI 43b27 .cfa: $rsp 40 +
STACK CFI 43b29 .cfa: $rsp 48 +
STACK CFI 43b2a .cfa: $rsp 56 +
STACK CFI 43b2b $r12: .cfa -48 + ^ $r13: .cfa -40 + ^ $r14: .cfa -32 + ^ $r15: .cfa -24 + ^ $rbp: .cfa -16 + ^ $rbx: .cfa -56 + ^ .cfa: $rsp 64 +
STACK CFI INIT 43ef0 478 .cfa: $rsp 8 + .ra: .cfa -8 + ^
STACK CFI 43ef1 .cfa: $rsp 16 +
STACK CFI 43ef3 .cfa: $rsp 24 +
STACK CFI 43ef5 .cfa: $rsp 32 +
STACK CFI 43ef7 .cfa: $rsp 40 +
STACK CFI 43ef9 .cfa: $rsp 48 +
STACK CFI 43efa .cfa: $rsp 56 +
STACK CFI 43efe $r12: .cfa -48 + ^ $r13: .cfa -40 + ^ $r14: .cfa -32 + ^ $r15: .cfa -24 + ^ $rbp: .cfa -16 + ^ $rbx: .cfa -56 + ^ .cfa: $rsp 80 +
STACK CFI INIT 44370 455 .cfa: $rsp 8 + .ra: .cfa -8 + ^
STACK CFI 44372 .cfa: $rsp 16 +
STACK CFI 44374 .cfa: $rsp 24 +
STACK CFI 44376 .cfa: $rsp 32 +
STACK CFI 44378 .cfa: $rsp 40 +
STACK CFI 44379 .cfa: $rsp 48 +
STACK CFI 4437d $r12: .cfa -40 + ^ $r13: .cfa -32 + ^ $r14: .cfa -24 + ^ $r15: .cfa -16 + ^ $rbx: .cfa -48 + ^ .cfa: $rsp 64 +
STACK CFI INIT 447d0 47f .cfa: $rsp 8 + .ra: .cfa -8 + ^
STACK CFI 447d1 .cfa: $rsp 16 +
STACK CFI 447d3 .cfa: $rsp 24 +
STACK CFI 447d5 .cfa: $rsp 32 +
STACK CFI 447d7 .cfa: $rsp 40 +
STACK CFI 447d9 .cfa: $rsp 48 +
STACK CFI 447da .cfa: $rsp 56 +
STACK CFI 447de $r12: .cfa -48 + ^ $r13: .cfa -40 + ^ $r14: .cfa -32 + ^ $r15: .cfa -24 + ^ $rbp: .cfa -16 + ^ $rbx: .cfa -56 + ^ .cfa: $rsp 96 +
STACK CFI INIT 44c50 a5 .cfa: $rsp 8 + .ra: .cfa -8 + ^
STACK CFI 44c52 .cfa: $rsp 16 +
STACK CFI 44c54 .cfa: $rsp 24 +
STACK CFI 44c55 $r14: .cfa -24 + ^ $r15: .cfa -16 + ^ $rbx: .cfa -32 + ^ .cfa: $rsp 32 +
STACK CFI INIT 44d00 224 .cfa: $rsp 8 + .ra: .cfa -8 + ^
STACK CFI 44d02 .cfa: $rsp 16 +
STACK CFI 44d03 .cfa: $rsp 24 +
STACK CFI 44d04 $r14: .cfa -16 + ^ $rbx: .cfa -24 + ^ .cfa: $rsp 32 +
STACK CFI INIT 44f30 363 .cfa: $rsp 8 + .ra: .cfa -8 + ^
STACK CFI 44f32 .cfa: $rsp 16 +
STACK CFI 44f33 .cfa: $rsp 24 +
STACK CFI 44f34 $r14: .cfa -16 + ^ $rbx: .cfa -24 + ^ .cfa: $rsp 32 +
STACK CFI INIT 452a0 28a .cfa: $rsp 8 + .ra: .cfa -8 + ^
STACK CFI 452a1 .cfa: $rsp 16 +
STACK CFI 452a3 .cfa: $rsp 24 +
STACK CFI 452a5 .cfa: $rsp 32 +
STACK CFI 452a7 .cfa: $rsp 40 +
STACK CFI 452a8 $r12: .cfa -40 + ^ $r14: .cfa -32 + ^ $r15: .cfa -24 + ^ $rbp: .cfa -16 + ^ $rbx: .cfa -48 + ^ .cfa: $rsp 48 +
STACK CFI INIT 45530 149 .cfa: $rsp 8 + .ra: .cfa -8 + ^
STACK CFI 45532 .cfa: $rsp 16 +
STACK CFI 45534 .cfa: $rsp 24 +
STACK CFI 45535 $r14: .cfa -24 + ^ $r15: .cfa -16 + ^ $rbx: .cfa -32 + ^ .cfa: $rsp 32 +
STACK CFI INIT 45680 149 .cfa: $rsp 8 + .ra: .cfa -8 + ^
STACK CFI 45682 .cfa: $rsp 16 +
STACK CFI 45684 .cfa: $rsp 24 +
STACK CFI 45685 $r14: .cfa -24 + ^ $r15: .cfa -16 + ^ $rbx: .cfa -32 + ^ .cfa: $rsp 32 +
STACK CFI INIT 457d0 f44 .cfa: $rsp 8 + .ra: .cfa -8 + ^
STACK CFI 457d1 .cfa: $rsp 16 +
STACK CFI 457d3 .cfa: $rsp 24 +
STACK CFI 457d5 .cfa: $rsp 32 +
STACK CFI 457d7 .cfa: $rsp 40 +
STACK CFI 457d9 .cfa: $rsp 48 +
STACK CFI 457da .cfa: $rsp 56 +
STACK CFI 457e1 $r12: .cfa -48 + ^ $r13: .cfa -40 + ^ $r14: .cfa -32 + ^ $r15: .cfa -24 + ^ $rbp: .cfa -16 + ^ $rbx: .cfa -56 + ^ .cfa: $rsp 4192 +
STACK CFI INIT 46720 17e .cfa: $rsp 8 + .ra: .cfa -8 + ^
STACK CFI 46721 .cfa: $rsp 16 +
STACK CFI 46723 .cfa: $rsp 24 +
STACK CFI 46725 .cfa: $rsp 32 +
STACK CFI 46727 .cfa: $rsp 40 +
STACK CFI 46729 .cfa: $rsp 48 +
STACK CFI 4672a .cfa: $rsp 56 +
STACK CFI 4672b $r12: .cfa -48 + ^ $r13: .cfa -40 + ^ $r14: .cfa -32 + ^ $r15: .cfa -24 + ^ $rbp: .cfa -16 + ^ $rbx: .cfa -56 + ^ .cfa: $rsp 64 +
STACK CFI INIT 468a0 61 .cfa: $rsp 8 + .ra: .cfa -8 + ^
STACK CFI INIT 46910 4f .cfa: $rsp 8 + .ra: .cfa -8 + ^
STACK CFI INIT 46960 aa .cfa: $rsp 8 + .ra: .cfa -8 + ^
STACK CFI 46962 .cfa: $rsp 16 +
STACK CFI 46964 .cfa: $rsp 24 +
STACK CFI 46966 .cfa: $rsp 32 +
STACK CFI 46967 .cfa: $rsp 40 +
STACK CFI 46968 $r12: .cfa -32 + ^ $r14: .cfa -24 + ^ $r15: .cfa -16 + ^ $rbx: .cfa -40 + ^ .cfa: $rsp 48 +
STACK CFI INIT 46a10 63 .cfa: $rsp 8 + .ra: .cfa -8 + ^
STACK CFI 46a12 .cfa: $rsp 16 +
STACK CFI 46a14 .cfa: $rsp 24 +
STACK CFI 46a15 $r14: .cfa -24 + ^ $r15: .cfa -16 + ^ $rbx: .cfa -32 + ^ .cfa: $rsp 32 +
STACK CFI INIT 46a80 384 .cfa: $rsp 8 + .ra: .cfa -8 + ^
STACK CFI 46a81 .cfa: $rsp 16 +
STACK CFI 46a83 .cfa: $rsp 24 +
STACK CFI 46a85 .cfa: $rsp 32 +
STACK CFI 46a87 .cfa: $rsp 40 +
STACK CFI 46a89 .cfa: $rsp 48 +
STACK CFI 46a8a .cfa: $rsp 56 +
STACK CFI 46a8e $r12: .cfa -48 + ^ $r13: .cfa -40 + ^ $r14: .cfa -32 + ^ $r15: .cfa -24 + ^ $rbp: .cfa -16 + ^ $rbx: .cfa -56 + ^ .cfa: $rsp 160 +
STACK CFI 46be3 .cfa: $rsp 168 +
STACK CFI 46be4 .cfa: $rsp 176 +
STACK CFI 46be6 .cfa: $rsp 184 +
STACK CFI 46be8 .cfa: $rsp 192 +
STACK CFI 46bf1 .cfa: $rsp 160 +
STACK CFI 46c13 .cfa: $rsp 168 +
STACK CFI 46c31 .cfa: $rsp 176 +
STACK CFI 46c33 .cfa: $rsp 184 +
STACK CFI 46c35 .cfa: $rsp 192 +
STACK CFI 46c3e .cfa: $rsp 160 +
STACK CFI INIT 46e10 1a8 .cfa: $rsp 8 + .ra: .cfa -8 + ^
STACK CFI 46e11 .cfa: $rsp 16 +
STACK CFI 46e13 .cfa: $rsp 24 +
STACK CFI 46e15 .cfa: $rsp 32 +
STACK CFI 46e17 .cfa: $rsp 40 +
STACK CFI 46e19 .cfa: $rsp 48 +
STACK CFI 46e1a .cfa: $rsp 56 +
STACK CFI 46e1e $r12: .cfa -48 + ^ $r13: .cfa -40 + ^ $r14: .cfa -32 + ^ $r15: .cfa -24 + ^ $rbp: .cfa -16 + ^ $rbx: .cfa -56 + ^ .cfa: $rsp 144 +
STACK CFI INIT 46fc0 f3 .cfa: $rsp 8 + .ra: .cfa -8 + ^
STACK CFI 46fc2 .cfa: $rsp 16 +
STACK CFI 46fc4 .cfa: $rsp 24 +
STACK CFI 46fc6 .cfa: $rsp 32 +
STACK CFI 46fc7 .cfa: $rsp 40 +
STACK CFI 46fc8 $r12: .cfa -32 + ^ $r14: .cfa -24 + ^ $r15: .cfa -16 + ^ $rbx: .cfa -40 + ^ .cfa: $rsp 48 +
STACK CFI INIT 470c0 17f .cfa: $rsp 8 + .ra: .cfa -8 + ^
STACK CFI INIT 47240 194 .cfa: $rsp 8 + .ra: .cfa -8 + ^
STACK CFI 47241 .cfa: $rsp 16 +
STACK CFI 47243 .cfa: $rsp 24 +
STACK CFI 47245 .cfa: $rsp 32 +
STACK CFI 47247 .cfa: $rsp 40 +
STACK CFI 47249 .cfa: $rsp 48 +
STACK CFI 4724a .cfa: $rsp 56 +
STACK CFI 4724e $r12: .cfa -48 + ^ $r13: .cfa -40 + ^ $r14: .cfa -32 + ^ $r15: .cfa -24 + ^ $rbp: .cfa -16 + ^ $rbx: .cfa -56 + ^ .cfa: $rsp 160 +
STACK CFI INIT 473e0 479 .cfa: $rsp 8 + .ra: .cfa -8 + ^
STACK CFI 473e1 .cfa: $rsp 16 +
STACK CFI 473e3 .cfa: $rsp 24 +
STACK CFI 473e5 .cfa: $rsp 32 +
STACK CFI 473e7 .cfa: $rsp 40 +
STACK CFI 473e9 .cfa: $rsp 48 +
STACK CFI 473ea .cfa: $rsp 56 +
STACK CFI 473f1 $r12: .cfa -48 + ^ $r13: .cfa -40 + ^ $r14: .cfa -32 + ^ $r15: .cfa -24 + ^ $rbp: .cfa -16 + ^ $rbx: .cfa -56 + ^ .cfa: $rsp 192 +
STACK CFI 4750d .cfa: $rsp 200 +
STACK CFI 4750e .cfa: $rsp 208 +
STACK CFI 47515 .cfa: $rsp 216 +
STACK CFI 47516 .cfa: $rsp 224 +
STACK CFI 4751f .cfa: $rsp 192 +
STACK CFI 4758f .cfa: $rsp 200 +
STACK CFI 47590 .cfa: $rsp 208 +
STACK CFI 47599 .cfa: $rsp 192 +
STACK CFI 475b1 .cfa: $rsp 200 +
STACK CFI 475c8 .cfa: $rsp 208 +
STACK CFI 475ca .cfa: $rsp 216 +
STACK CFI 475d0 .cfa: $rsp 224 +
STACK CFI 475d9 .cfa: $rsp 192 +
STACK CFI 47634 .cfa: $rsp 200 +
STACK CFI 47635 .cfa: $rsp 208 +
STACK CFI 4763e .cfa: $rsp 192 +
STACK CFI INIT 47860 2d .cfa: $rsp 8 + .ra: .cfa -8 + ^
STACK CFI 47862 .cfa: $rsp 16 +
STACK CFI 47863 .cfa: $rsp 24 +
STACK CFI 47864 $r14: .cfa -16 + ^ $rbx: .cfa -24 + ^ .cfa: $rsp 32 +
STACK CFI INIT 47890 b6 .cfa: $rsp 8 + .ra: .cfa -8 + ^
STACK CFI 47892 .cfa: $rsp 16 +
STACK CFI 47894 .cfa: $rsp 24 +
STACK CFI 47896 .cfa: $rsp 32 +
STACK CFI 47897 .cfa: $rsp 40 +
STACK CFI 47898 $r12: .cfa -32 + ^ $r14: .cfa -24 + ^ $r15: .cfa -16 + ^ $rbx: .cfa -40 + ^ .cfa: $rsp 48 +
STACK CFI INIT 47950 91 .cfa: $rsp 8 + .ra: .cfa -8 + ^
STACK CFI 47952 .cfa: $rsp 16 +
STACK CFI 47954 .cfa: $rsp 24 +
STACK CFI 47955 $r14: .cfa -24 + ^ $r15: .cfa -16 + ^ $rbx: .cfa -32 + ^ .cfa: $rsp 32 +
STACK CFI INIT 479f0 2d .cfa: $rsp 8 + .ra: .cfa -8 + ^
STACK CFI 479f2 .cfa: $rsp 16 +
STACK CFI 479f3 .cfa: $rsp 24 +
STACK CFI 479f4 $r14: .cfa -16 + ^ $rbx: .cfa -24 + ^ .cfa: $rsp 32 +
STACK CFI INIT 47a20 159 .cfa: $rsp 8 + .ra: .cfa -8 + ^
STACK CFI 47a22 .cfa: $rsp 16 +
STACK CFI 47a24 .cfa: $rsp 24 +
STACK CFI 47a26 .cfa: $rsp 32 +
STACK CFI 47a28 .cfa: $rsp 40 +
STACK CFI 47a29 $r12: .cfa -40 + ^ $r13: .cfa -32 + ^ $r14: .cfa -24 + ^ $r15: .cfa -16 + ^ $rbx: .cfa -48 + ^ .cfa: $rsp 48 +
STACK CFI INIT 47b80 221 .cfa: $rsp 8 + .ra: .cfa -8 + ^
STACK CFI 47b81 .cfa: $rsp 16 +
STACK CFI 47b83 .cfa: $rsp 24 +
STACK CFI 47b85 .cfa: $rsp 32 +
STACK CFI 47b87 .cfa: $rsp 40 +
STACK CFI 47b89 .cfa: $rsp 48 +
STACK CFI 47b8a .cfa: $rsp 56 +
STACK CFI 47b8e $r12: .cfa -48 + ^ $r13: .cfa -40 + ^ $r14: .cfa -32 + ^ $r15: .cfa -24 + ^ $rbp: .cfa -16 + ^ $rbx: .cfa -56 + ^ .cfa: $rsp 80 +
STACK CFI INIT 47db0 b2 .cfa: $rsp 8 + .ra: .cfa -8 + ^
STACK CFI 47db1 .cfa: $rsp 16 +
STACK CFI 47db3 .cfa: $rsp 24 +
STACK CFI 47db5 .cfa: $rsp 32 +
STACK CFI 47db6 .cfa: $rsp 40 +
STACK CFI 47db7 $r14: .cfa -32 + ^ $r15: .cfa -24 + ^ $rbp: .cfa -16 + ^ $rbx: .cfa -40 + ^ .cfa: $rsp 48 +
STACK CFI INIT 47e70 8fe .cfa: $rsp 8 + .ra: .cfa -8 + ^
STACK CFI 47e71 .cfa: $rsp 16 +
STACK CFI 47e73 .cfa: $rsp 24 +
STACK CFI 47e75 .cfa: $rsp 32 +
STACK CFI 47e77 .cfa: $rsp 40 +
STACK CFI 47e79 .cfa: $rsp 48 +
STACK CFI 47e7a .cfa: $rsp 56 +
STACK CFI 47e81 $r12: .cfa -48 + ^ $r13: .cfa -40 + ^ $r14: .cfa -32 + ^ $r15: .cfa -24 + ^ $rbp: .cfa -16 + ^ $rbx: .cfa -56 + ^ .cfa: $rsp 336 +
STACK CFI 48188 .cfa: $rsp 344 +
STACK CFI 4818e .cfa: $rsp 352 +
STACK CFI 48194 .cfa: $rsp 360 +
STACK CFI 4819d .cfa: $rsp 368 +
STACK CFI 481a9 .cfa: $rsp 336 +
STACK CFI 48317 .cfa: $rsp 344 +
STACK CFI 48330 .cfa: $rsp 352 +
STACK CFI 48339 .cfa: $rsp 336 +
STACK CFI 4872c .cfa: $rsp 344 +
STACK CFI 4872d .cfa: $rsp 352 +
STACK CFI 48736 .cfa: $rsp 336 +
STACK CFI INIT 48770 3eb .cfa: $rsp 8 + .ra: .cfa -8 + ^
STACK CFI 48771 .cfa: $rsp 16 +
STACK CFI 48773 .cfa: $rsp 24 +
STACK CFI 48775 .cfa: $rsp 32 +
STACK CFI 48777 .cfa: $rsp 40 +
STACK CFI 48779 .cfa: $rsp 48 +
STACK CFI 4877a .cfa: $rsp 56 +
STACK CFI 4877b $r12: .cfa -48 + ^ $r13: .cfa -40 + ^ $r14: .cfa -32 + ^ $r15: .cfa -24 + ^ $rbp: .cfa -16 + ^ $rbx: .cfa -56 + ^ .cfa: $rsp 64 +
STACK CFI INIT 48b60 fe .cfa: $rsp 8 + .ra: .cfa -8 + ^
STACK CFI 48b62 .cfa: $rsp 16 +
STACK CFI 48b64 .cfa: $rsp 24 +
STACK CFI 48b66 .cfa: $rsp 32 +
STACK CFI 48b68 .cfa: $rsp 40 +
STACK CFI 48b69 .cfa: $rsp 48 +
STACK CFI 48b70 $r12: .cfa -40 + ^ $r13: .cfa -32 + ^ $r14: .cfa -24 + ^ $r15: .cfa -16 + ^ $rbx: .cfa -48 + ^ .cfa: $rsp 176 +
STACK CFI INIT 48c60 363 .cfa: $rsp 8 + .ra: .cfa -8 + ^
STACK CFI 48c61 .cfa: $rsp 16 +
STACK CFI 48c63 .cfa: $rsp 24 +
STACK CFI 48c65 .cfa: $rsp 32 +
STACK CFI 48c67 .cfa: $rsp 40 +
STACK CFI 48c69 .cfa: $rsp 48 +
STACK CFI 48c6a .cfa: $rsp 56 +
STACK CFI 48c6e $r12: .cfa -48 + ^ $r13: .cfa -40 + ^ $r14: .cfa -32 + ^ $r15: .cfa -24 + ^ $rbp: .cfa -16 + ^ $rbx: .cfa -56 + ^ .cfa: $rsp 112 +
STACK CFI INIT 48fd0 442 .cfa: $rsp 8 + .ra: .cfa -8 + ^
STACK CFI 48fd1 .cfa: $rsp 16 +
STACK CFI 48fd3 .cfa: $rsp 24 +
STACK CFI 48fd5 .cfa: $rsp 32 +
STACK CFI 48fd7 .cfa: $rsp 40 +
STACK CFI 48fd9 .cfa: $rsp 48 +
STACK CFI 48fda .cfa: $rsp 56 +
STACK CFI 48fde $r12: .cfa -48 + ^ $r13: .cfa -40 + ^ $r14: .cfa -32 + ^ $r15: .cfa -24 + ^ $rbp: .cfa -16 + ^ $rbx: .cfa -56 + ^ .cfa: $rsp 80 +
STACK CFI INIT 49420 4e .cfa: $rsp 8 + .ra: .cfa -8 + ^
STACK CFI 49422 .cfa: $rsp 16 +
STACK CFI 49424 .cfa: $rsp 24 +
STACK CFI 49425 $r14: .cfa -24 + ^ $r15: .cfa -16 + ^ $rbx: .cfa -32 + ^ .cfa: $rsp 32 +
STACK CFI INIT 49470 138 .cfa: $rsp 8 + .ra: .cfa -8 + ^
STACK CFI 49471 .cfa: $rsp 16 +
STACK CFI 49473 .cfa: $rsp 24 +
STACK CFI 49475 .cfa: $rsp 32 +
STACK CFI 49477 .cfa: $rsp 40 +
STACK CFI 49479 .cfa: $rsp 48 +
STACK CFI 4947a .cfa: $rsp 56 +
STACK CFI 4947e $r12: .cfa -48 + ^ $r13: .cfa -40 + ^ $r14: .cfa -32 + ^ $r15: .cfa -24 + ^ $rbp: .cfa -16 + ^ $rbx: .cfa -56 + ^ .cfa: $rsp 80 +
STACK CFI INIT 495b0 1db .cfa: $rsp 8 + .ra: .cfa -8 + ^
STACK CFI 495b1 .cfa: $rsp 16 +
STACK CFI 495b3 .cfa: $rsp 24 +
STACK CFI 495b5 .cfa: $rsp 32 +
STACK CFI 495b7 .cfa: $rsp 40 +
STACK CFI 495b9 .cfa: $rsp 48 +
STACK CFI 495ba .cfa: $rsp 56 +
STACK CFI 495bb $r12: .cfa -48 + ^ $r13: .cfa -40 + ^ $r14: .cfa -32 + ^ $r15: .cfa -24 + ^ $rbp: .cfa -16 + ^ $rbx: .cfa -56 + ^ .cfa: $rsp 64 +
STACK CFI INIT 49790 30e .cfa: $rsp 8 + .ra: .cfa -8 + ^
STACK CFI 49791 .cfa: $rsp 16 +
STACK CFI 49793 .cfa: $rsp 24 +
STACK CFI 49795 .cfa: $rsp 32 +
STACK CFI 49797 .cfa: $rsp 40 +
STACK CFI 49799 .cfa: $rsp 48 +
STACK CFI 4979a .cfa: $rsp 56 +
STACK CFI 4979e $r12: .cfa -48 + ^ $r13: .cfa -40 + ^ $r14: .cfa -32 + ^ $r15: .cfa -24 + ^ $rbp: .cfa -16 + ^ $rbx: .cfa -56 + ^ .cfa: $rsp 96 +
STACK CFI INIT 49aa0 376 .cfa: $rsp 8 + .ra: .cfa -8 + ^
STACK CFI 49aa1 .cfa: $rsp 16 +
STACK CFI 49aa3 .cfa: $rsp 24 +
STACK CFI 49aa5 .cfa: $rsp 32 +
STACK CFI 49aa7 .cfa: $rsp 40 +
STACK CFI 49aa9 .cfa: $rsp 48 +
STACK CFI 49aaa .cfa: $rsp 56 +
STACK CFI 49aae $r12: .cfa -48 + ^ $r13: .cfa -40 + ^ $r14: .cfa -32 + ^ $r15: .cfa -24 + ^ $rbp: .cfa -16 + ^ $rbx: .cfa -56 + ^ .cfa: $rsp 80 +
STACK CFI INIT 49e20 10d9 .cfa: $rsp 8 + .ra: .cfa -8 + ^
STACK CFI 49e21 .cfa: $rsp 16 +
STACK CFI 49e23 .cfa: $rsp 24 +
STACK CFI 49e25 .cfa: $rsp 32 +
STACK CFI 49e27 .cfa: $rsp 40 +
STACK CFI 49e29 .cfa: $rsp 48 +
STACK CFI 49e2a .cfa: $rsp 56 +
STACK CFI 49e2e $r12: .cfa -48 + ^ $r13: .cfa -40 + ^ $r14: .cfa -32 + ^ $r15: .cfa -24 + ^ $rbp: .cfa -16 + ^ $rbx: .cfa -56 + ^ .cfa: $rsp 144 +
STACK CFI INIT 4af00 b .cfa: $rsp 8 + .ra: .cfa -8 + ^
STACK CFI INIT 4af10 383 .cfa: $rsp 8 + .ra: .cfa -8 + ^
STACK CFI 4af11 .cfa: $rsp 16 +
STACK CFI 4af13 .cfa: $rsp 24 +
STACK CFI 4af15 .cfa: $rsp 32 +
STACK CFI 4af17 .cfa: $rsp 40 +
STACK CFI 4af19 .cfa: $rsp 48 +
STACK CFI 4af1a .cfa: $rsp 56 +
STACK CFI 4af1b $r12: .cfa -48 + ^ $r13: .cfa -40 + ^ $r14: .cfa -32 + ^ $r15: .cfa -24 + ^ $rbp: .cfa -16 + ^ $rbx: .cfa -56 + ^ .cfa: $rsp 64 +
STACK CFI INIT 4b2a0 15f .cfa: $rsp 8 + .ra: .cfa -8 + ^
STACK CFI 4b2a2 .cfa: $rsp 16 +
STACK CFI 4b2a4 .cfa: $rsp 24 +
STACK CFI 4b2a6 .cfa: $rsp 32 +
STACK CFI 4b2a8 .cfa: $rsp 40 +
STACK CFI 4b2a9 $r12: .cfa -40 + ^ $r13: .cfa -32 + ^ $r14: .cfa -24 + ^ $r15: .cfa -16 + ^ $rbx: .cfa -48 + ^ .cfa: $rsp 48 +
STACK CFI INIT 4b400 1d .cfa: $rsp 8 + .ra: .cfa -8 + ^
STACK CFI INIT 4b420 b .cfa: $rsp 8 + .ra: .cfa -8 + ^
STACK CFI INIT 4b430 186 .cfa: $rsp 8 + .ra: .cfa -8 + ^
STACK CFI 4b431 .cfa: $rsp 16 +
STACK CFI 4b433 .cfa: $rsp 24 +
STACK CFI 4b435 .cfa: $rsp 32 +
STACK CFI 4b437 .cfa: $rsp 40 +
STACK CFI 4b439 .cfa: $rsp 48 +
STACK CFI 4b43a .cfa: $rsp 56 +
STACK CFI 4b43b $r12: .cfa -48 + ^ $r13: .cfa -40 + ^ $r14: .cfa -32 + ^ $r15: .cfa -24 + ^ $rbp: .cfa -16 + ^ $rbx: .cfa -56 + ^ .cfa: $rsp 64 +
STACK CFI INIT 4b5c0 110 .cfa: $rsp 8 + .ra: .cfa -8 + ^
STACK CFI 4b5c2 .cfa: $rsp 16 +
STACK CFI 4b5c4 .cfa: $rsp 24 +
STACK CFI 4b5c6 .cfa: $rsp 32 +
STACK CFI 4b5c8 .cfa: $rsp 40 +
STACK CFI 4b5c9 $r12: .cfa -40 + ^ $r13: .cfa -32 + ^ $r14: .cfa -24 + ^ $r15: .cfa -16 + ^ $rbx: .cfa -48 + ^ .cfa: $rsp 48 +
STACK CFI INIT 4b6d0 c0e .cfa: $rsp 8 + .ra: .cfa -8 + ^
STACK CFI 4b6d1 .cfa: $rsp 16 +
STACK CFI 4b6d3 .cfa: $rsp 24 +
STACK CFI 4b6d5 .cfa: $rsp 32 +
STACK CFI 4b6d7 .cfa: $rsp 40 +
STACK CFI 4b6d9 .cfa: $rsp 48 +
STACK CFI 4b6da .cfa: $rsp 56 +
STACK CFI 4b6de $r12: .cfa -48 + ^ $r13: .cfa -40 + ^ $r14: .cfa -32 + ^ $r15: .cfa -24 + ^ $rbp: .cfa -16 + ^ $rbx: .cfa -56 + ^ .cfa: $rsp 112 +
STACK CFI INIT 4c2e0 b88 .cfa: $rsp 8 + .ra: .cfa -8 + ^
STACK CFI 4c2e1 .cfa: $rsp 16 +
STACK CFI 4c2e3 .cfa: $rsp 24 +
STACK CFI 4c2e5 .cfa: $rsp 32 +
STACK CFI 4c2e7 .cfa: $rsp 40 +
STACK CFI 4c2e9 .cfa: $rsp 48 +
STACK CFI 4c2ea .cfa: $rsp 56 +
STACK CFI 4c2ee $r12: .cfa -48 + ^ $r13: .cfa -40 + ^ $r14: .cfa -32 + ^ $r15: .cfa -24 + ^ $rbp: .cfa -16 + ^ $rbx: .cfa -56 + ^ .cfa: $rsp 112 +
STACK CFI INIT 4ce70 2b .cfa: $rsp 8 + .ra: .cfa -8 + ^
STACK CFI 4ce72 .cfa: $rsp 16 +
STACK CFI 4ce73 .cfa: $rsp 24 +
STACK CFI 4ce74 $r14: .cfa -16 + ^ $rbx: .cfa -24 + ^ .cfa: $rsp 32 +
STACK CFI INIT 4cea0 2c .cfa: $rsp 8 + .ra: .cfa -8 + ^
STACK CFI 4cea1 .cfa: $rsp 16 +
STACK CFI 4cea3 .cfa: $rsp 24 +
STACK CFI 4cea4 $r14: .cfa -24 + ^ $rbp: .cfa -16 + ^ $rbx: .cfa -32 + ^ .cfa: $rsp 32 +
STACK CFI INIT 4ced0 c .cfa: $rsp 8 + .ra: .cfa -8 + ^
STACK CFI INIT 4cee0 20 .cfa: $rsp 8 + .ra: .cfa -8 + ^
STACK CFI INIT 4cf00 c .cfa: $rsp 8 + .ra: .cfa -8 + ^
STACK CFI INIT 4cf10 31 .cfa: $rsp 8 + .ra: .cfa -8 + ^
STACK CFI INIT 4cf50 345 .cfa: $rsp 8 + .ra: .cfa -8 + ^
STACK CFI 4cf51 .cfa: $rsp 16 +
STACK CFI 4cf53 .cfa: $rsp 24 +
STACK CFI 4cf55 .cfa: $rsp 32 +
STACK CFI 4cf57 .cfa: $rsp 40 +
STACK CFI 4cf59 .cfa: $rsp 48 +
STACK CFI 4cf5a .cfa: $rsp 56 +
STACK CFI 4cf5b $r12: .cfa -48 + ^ $r13: .cfa -40 + ^ $r14: .cfa -32 + ^ $r15: .cfa -24 + ^ $rbp: .cfa -16 + ^ $rbx: .cfa -56 + ^ .cfa: $rsp 64 +
STACK CFI INIT 4d2a0 b .cfa: $rsp 8 + .ra: .cfa -8 + ^
STACK CFI INIT 4d2b0 e .cfa: $rsp 8 + .ra: .cfa -8 + ^
STACK CFI INIT 4d2c0 e .cfa: $rsp 8 + .ra: .cfa -8 + ^
STACK CFI INIT 4d2d0 f .cfa: $rsp 8 + .ra: .cfa -8 + ^
STACK CFI INIT 4d2e0 361 .cfa: $rsp 8 + .ra: .cfa -8 + ^
STACK CFI 4d2e2 .cfa: $rsp 16 +
STACK CFI 4d2e4 .cfa: $rsp 24 +
STACK CFI 4d2e6 .cfa: $rsp 32 +
STACK CFI 4d2e7 .cfa: $rsp 40 +
STACK CFI 4d2e8 $r12: .cfa -32 + ^ $r14: .cfa -24 + ^ $r15: .cfa -16 + ^ $rbx: .cfa -40 + ^ .cfa: $rsp 48 +
STACK CFI INIT 4d650 1b6b .cfa: $rsp 8 + .ra: .cfa -8 + ^
STACK CFI 4d6a8 .cfa: $rsp 16 +
STACK CFI 4d6a9 .cfa: $rsp 24 +
STACK CFI 4d6aa $r14: .cfa -16 + ^ $rbx: .cfa -24 + ^ .cfa: $rsp 32 +
STACK CFI INIT 4f1c0 9 .cfa: $rsp 8 + .ra: .cfa -8 + ^
STACK CFI INIT 4f1d0 c .cfa: $rsp 8 + .ra: .cfa -8 + ^
STACK CFI INIT 4f1e0 c .cfa: $rsp 8 + .ra: .cfa -8 + ^
STACK CFI INIT 4f1f0 23c .cfa: $rsp 8 + .ra: .cfa -8 + ^
STACK CFI 4f1f2 .cfa: $rsp 16 +
STACK CFI 4f1f3 .cfa: $rsp 24 +
STACK CFI 4f1f4 $r14: .cfa -16 + ^ $rbx: .cfa -24 + ^ .cfa: $rsp 32 +
STACK CFI INIT 4f430 266 .cfa: $rsp 8 + .ra: .cfa -8 + ^
STACK CFI 4f432 .cfa: $rsp 16 +
STACK CFI 4f433 .cfa: $rsp 24 +
STACK CFI 4f434 $r14: .cfa -16 + ^ $rbx: .cfa -24 + ^ .cfa: $rsp 32 +
STACK CFI INIT 4f6a0 266 .cfa: $rsp 8 + .ra: .cfa -8 + ^
STACK CFI 4f6a2 .cfa: $rsp 16 +
STACK CFI 4f6a3 .cfa: $rsp 24 +
STACK CFI 4f6a4 $r14: .cfa -16 + ^ $rbx: .cfa -24 + ^ .cfa: $rsp 32 +
STACK CFI INIT 4f910 fb .cfa: $rsp 8 + .ra: .cfa -8 + ^
STACK CFI 4f912 .cfa: $rsp 16 +
STACK CFI 4f914 .cfa: $rsp 24 +
STACK CFI 4f915 .cfa: $rsp 32 +
STACK CFI 4f919 $r14: .cfa -24 + ^ $r15: .cfa -16 + ^ $rbx: .cfa -32 + ^ .cfa: $rsp 48 +
STACK CFI INIT 4fa10 479 .cfa: $rsp 8 + .ra: .cfa -8 + ^
STACK CFI 4fa11 .cfa: $rsp 16 +
STACK CFI 4fa13 .cfa: $rsp 24 +
STACK CFI 4fa15 .cfa: $rsp 32 +
STACK CFI 4fa17 .cfa: $rsp 40 +
STACK CFI 4fa19 .cfa: $rsp 48 +
STACK CFI 4fa1a .cfa: $rsp 56 +
STACK CFI 4fa1e $r12: .cfa -48 + ^ $r13: .cfa -40 + ^ $r14: .cfa -32 + ^ $r15: .cfa -24 + ^ $rbp: .cfa -16 + ^ $rbx: .cfa -56 + ^ .cfa: $rsp 144 +
STACK CFI 4fa98 .cfa: $rsp 152 +
STACK CFI 4fa99 .cfa: $rsp 160 +
STACK CFI 4fa9b .cfa: $rsp 168 +
STACK CFI 4fa9c .cfa: $rsp 176 +
STACK CFI 4faa5 .cfa: $rsp 144 +
STACK CFI 4faf7 .cfa: $rsp 152 +
STACK CFI 4fb07 .cfa: $rsp 160 +
STACK CFI 4fb10 .cfa: $rsp 144 +
STACK CFI 4fb2d .cfa: $rsp 152 +
STACK CFI 4fb48 .cfa: $rsp 160 +
STACK CFI 4fb4a .cfa: $rsp 168 +
STACK CFI 4fb4b .cfa: $rsp 176 +
STACK CFI 4fb54 .cfa: $rsp 144 +
STACK CFI 4fba8 .cfa: $rsp 152 +
STACK CFI 4fba9 .cfa: $rsp 160 +
STACK CFI 4fbb2 .cfa: $rsp 144 +
STACK CFI 4fc54 .cfa: $rsp 152 +
STACK CFI 4fc55 .cfa: $rsp 160 +
STACK CFI 4fc5e .cfa: $rsp 144 +
STACK CFI INIT 4fe90 190 .cfa: $rsp 8 + .ra: .cfa -8 + ^
STACK CFI INIT 50020 2ac .cfa: $rsp 8 + .ra: .cfa -8 + ^
STACK CFI 50021 .cfa: $rsp 16 +
STACK CFI 50023 .cfa: $rsp 24 +
STACK CFI 50025 .cfa: $rsp 32 +
STACK CFI 50027 .cfa: $rsp 40 +
STACK CFI 50029 .cfa: $rsp 48 +
STACK CFI 5002a .cfa: $rsp 56 +
STACK CFI 5002e $r12: .cfa -48 + ^ $r13: .cfa -40 + ^ $r14: .cfa -32 + ^ $r15: .cfa -24 + ^ $rbp: .cfa -16 + ^ $rbx: .cfa -56 + ^ .cfa: $rsp 112 +
STACK CFI INIT 502d0 34a .cfa: $rsp 8 + .ra: .cfa -8 + ^
STACK CFI 502d1 .cfa: $rsp 16 +
STACK CFI 502d3 .cfa: $rsp 24 +
STACK CFI 502d5 .cfa: $rsp 32 +
STACK CFI 502d7 .cfa: $rsp 40 +
STACK CFI 502d9 .cfa: $rsp 48 +
STACK CFI 502da .cfa: $rsp 56 +
STACK CFI 502de $r12: .cfa -48 + ^ $r13: .cfa -40 + ^ $r14: .cfa -32 + ^ $r15: .cfa -24 + ^ $rbp: .cfa -16 + ^ $rbx: .cfa -56 + ^ .cfa: $rsp 80 +
STACK CFI INIT 50620 892 .cfa: $rsp 8 + .ra: .cfa -8 + ^
STACK CFI 50621 .cfa: $rsp 16 +
STACK CFI 50623 .cfa: $rsp 24 +
STACK CFI 50625 .cfa: $rsp 32 +
STACK CFI 50627 .cfa: $rsp 40 +
STACK CFI 50628 $r12: .cfa -40 + ^ $r14: .cfa -32 + ^ $r15: .cfa -24 + ^ $rbp: .cfa -16 + ^ $rbx: .cfa -48 + ^ .cfa: $rsp 48 +
STACK CFI INIT 50ec0 a88 .cfa: $rsp 8 + .ra: .cfa -8 + ^
STACK CFI 50ec1 .cfa: $rsp 16 +
STACK CFI 50ec3 .cfa: $rsp 24 +
STACK CFI 50ec5 .cfa: $rsp 32 +
STACK CFI 50ec7 .cfa: $rsp 40 +
STACK CFI 50ec9 .cfa: $rsp 48 +
STACK CFI 50eca .cfa: $rsp 56 +
STACK CFI 50ece $r12: .cfa -48 + ^ $r13: .cfa -40 + ^ $r14: .cfa -32 + ^ $r15: .cfa -24 + ^ $rbp: .cfa -16 + ^ $rbx: .cfa -56 + ^ .cfa: $rsp 128 +
STACK CFI INIT 51950 580 .cfa: $rsp 8 + .ra: .cfa -8 + ^
STACK CFI 51951 .cfa: $rsp 16 +
STACK CFI 51953 .cfa: $rsp 24 +
STACK CFI 51955 .cfa: $rsp 32 +
STACK CFI 51956 $r14: .cfa -32 + ^ $r15: .cfa -24 + ^ $rbp: .cfa -16 + ^ $rbx: .cfa -40 + ^ .cfa: $rsp 40 +
STACK CFI INIT 51ed0 224 .cfa: $rsp 8 + .ra: .cfa -8 + ^
STACK CFI 51ed1 .cfa: $rsp 16 +
STACK CFI 51ed3 .cfa: $rsp 24 +
STACK CFI 51ed5 .cfa: $rsp 32 +
STACK CFI 51ed7 .cfa: $rsp 40 +
STACK CFI 51ed9 .cfa: $rsp 48 +
STACK CFI 51eda .cfa: $rsp 56 +
STACK CFI 51ede $r12: .cfa -48 + ^ $r13: .cfa -40 + ^ $r14: .cfa -32 + ^ $r15: .cfa -24 + ^ $rbp: .cfa -16 + ^ $rbx: .cfa -56 + ^ .cfa: $rsp 96 +
STACK CFI INIT 52100 482 .cfa: $rsp 8 + .ra: .cfa -8 + ^
STACK CFI 52101 .cfa: $rsp 16 +
STACK CFI 52103 .cfa: $rsp 24 +
STACK CFI 52105 .cfa: $rsp 32 +
STACK CFI 52106 $r14: .cfa -32 + ^ $r15: .cfa -24 + ^ $rbp: .cfa -16 + ^ $rbx: .cfa -40 + ^ .cfa: $rsp 40 +
STACK CFI INIT 52590 25c .cfa: $rsp 8 + .ra: .cfa -8 + ^
STACK CFI 52592 .cfa: $rsp 16 +
STACK CFI 52594 .cfa: $rsp 24 +
STACK CFI 52596 .cfa: $rsp 32 +
STACK CFI 52598 .cfa: $rsp 40 +
STACK CFI 52599 .cfa: $rsp 48 +
STACK CFI 5259d $r12: .cfa -40 + ^ $r13: .cfa -32 + ^ $r14: .cfa -24 + ^ $r15: .cfa -16 + ^ $rbx: .cfa -48 + ^ .cfa: $rsp 160 +
STACK CFI INIT 527f0 51 .cfa: $rsp 8 + .ra: .cfa -8 + ^
STACK CFI 527f2 .cfa: $rsp 16 +
STACK CFI 527f4 .cfa: $rsp 24 +
STACK CFI 527f6 .cfa: $rsp 32 +
STACK CFI 527f7 .cfa: $rsp 40 +
STACK CFI 527f8 $r12: .cfa -32 + ^ $r14: .cfa -24 + ^ $r15: .cfa -16 + ^ $rbx: .cfa -40 + ^ .cfa: $rsp 48 +
STACK CFI INIT 52850 47 .cfa: $rsp 8 + .ra: .cfa -8 + ^
STACK CFI 52851 .cfa: $rsp 16 +
STACK CFI INIT 528a0 c .cfa: $rsp 8 + .ra: .cfa -8 + ^
STACK CFI INIT 528b0 c .cfa: $rsp 8 + .ra: .cfa -8 + ^
STACK CFI INIT 528c0 c .cfa: $rsp 8 + .ra: .cfa -8 + ^
STACK CFI INIT 528d0 10 .cfa: $rsp 8 + .ra: .cfa -8 + ^
STACK CFI INIT 528e0 37 .cfa: $rsp 8 + .ra: .cfa -8 + ^
STACK CFI 528e2 .cfa: $rsp 16 +
STACK CFI 528e3 .cfa: $rsp 24 +
STACK CFI 528e4 $r14: .cfa -16 + ^ $rbx: .cfa -24 + ^ .cfa: $rsp 32 +
STACK CFI INIT 52920 1aa .cfa: $rsp 8 + .ra: .cfa -8 + ^
STACK CFI 52921 .cfa: $rsp 16 +
STACK CFI 52923 .cfa: $rsp 24 +
STACK CFI 52925 .cfa: $rsp 32 +
STACK CFI 52927 .cfa: $rsp 40 +
STACK CFI 52929 .cfa: $rsp 48 +
STACK CFI 5292a .cfa: $rsp 56 +
STACK CFI 5292e $r12: .cfa -48 + ^ $r13: .cfa -40 + ^ $r14: .cfa -32 + ^ $r15: .cfa -24 + ^ $rbp: .cfa -16 + ^ $rbx: .cfa -56 + ^ .cfa: $rsp 96 +
STACK CFI INIT 52ad0 2f .cfa: $rsp 8 + .ra: .cfa -8 + ^
STACK CFI 52ad2 .cfa: $rsp 16 +
STACK CFI 52ad3 .cfa: $rsp 24 +
STACK CFI 52ad4 $r14: .cfa -16 + ^ $rbx: .cfa -24 + ^ .cfa: $rsp 32 +
STACK CFI INIT 52b00 b .cfa: $rsp 8 + .ra: .cfa -8 + ^
STACK CFI INIT 52b10 b .cfa: $rsp 8 + .ra: .cfa -8 + ^
STACK CFI INIT 52b20 b .cfa: $rsp 8 + .ra: .cfa -8 + ^
STACK CFI INIT 52b30 3 .cfa: $rsp 8 + .ra: .cfa -8 + ^
STACK CFI INIT 52b40 d .cfa: $rsp 8 + .ra: .cfa -8 + ^
STACK CFI 52b41 .cfa: $rsp 16 +
STACK CFI INIT 52b50 59 .cfa: $rsp 8 + .ra: .cfa -8 + ^
STACK CFI 52b52 .cfa: $rsp 16 +
STACK CFI 52b54 .cfa: $rsp 24 +
STACK CFI 52b55 $r14: .cfa -24 + ^ $r15: .cfa -16 + ^ $rbx: .cfa -32 + ^ .cfa: $rsp 32 +
STACK CFI INIT 52bb0 b1 .cfa: $rsp 8 + .ra: .cfa -8 + ^
STACK CFI 52bb2 .cfa: $rsp 16 +
STACK CFI 52bb4 .cfa: $rsp 24 +
STACK CFI 52bb6 .cfa: $rsp 32 +
STACK CFI 52bb7 .cfa: $rsp 40 +
STACK CFI 52bb8 $r12: .cfa -32 + ^ $r14: .cfa -24 + ^ $r15: .cfa -16 + ^ $rbx: .cfa -40 + ^ .cfa: $rsp 48 +
STACK CFI INIT 52c70 5 .cfa: $rsp 8 + .ra: .cfa -8 + ^
STACK CFI INIT 52c80 179 .cfa: $rsp 8 + .ra: .cfa -8 + ^
STACK CFI 52c81 .cfa: $rsp 16 +
STACK CFI 52c83 .cfa: $rsp 24 +
STACK CFI 52c85 .cfa: $rsp 32 +
STACK CFI 52c87 .cfa: $rsp 40 +
STACK CFI 52c89 .cfa: $rsp 48 +
STACK CFI 52c8a .cfa: $rsp 56 +
STACK CFI 52c8b $r12: .cfa -48 + ^ $r13: .cfa -40 + ^ $r14: .cfa -32 + ^ $r15: .cfa -24 + ^ $rbp: .cfa -16 + ^ $rbx: .cfa -56 + ^ .cfa: $rsp 64 +
STACK CFI INIT 52e00 7 .cfa: $rsp 8 + .ra: .cfa -8 + ^
STACK CFI INIT 52e10 2b .cfa: $rsp 8 + .ra: .cfa -8 + ^
STACK CFI 52e11 .cfa: $rsp 16 +
STACK CFI INIT 52e40 4d .cfa: $rsp 8 + .ra: .cfa -8 + ^
STACK CFI 52e44 .cfa: $rsp 64 +
STACK CFI INIT 52e90 58a .cfa: $rsp 8 + .ra: .cfa -8 + ^
STACK CFI 52e91 .cfa: $rsp 16 +
STACK CFI 52e93 .cfa: $rsp 24 +
STACK CFI 52e95 .cfa: $rsp 32 +
STACK CFI 52e97 .cfa: $rsp 40 +
STACK CFI 52e99 .cfa: $rsp 48 +
STACK CFI 52e9a .cfa: $rsp 56 +
STACK CFI 52ea1 $r12: .cfa -48 + ^ $r13: .cfa -40 + ^ $r14: .cfa -32 + ^ $r15: .cfa -24 + ^ $rbp: .cfa -16 + ^ $rbx: .cfa -56 + ^ .cfa: $rsp 240 +
STACK CFI 531df .cfa: $rsp 248 +
STACK CFI 531fb .cfa: $rsp 256 +
STACK CFI 531fd .cfa: $rsp 264 +
STACK CFI 53207 .cfa: $rsp 272 +
STACK CFI 53209 .cfa: $rsp 280 +
STACK CFI 5320d .cfa: $rsp 288 +
STACK CFI 53216 .cfa: $rsp 240 +
STACK CFI 53318 .cfa: $rsp 248 +
STACK CFI 53333 .cfa: $rsp 256 +
STACK CFI 53335 .cfa: $rsp 264 +
STACK CFI 5333f .cfa: $rsp 272 +
STACK CFI 53340 .cfa: $rsp 280 +
STACK CFI 53344 .cfa: $rsp 288 +
STACK CFI 5334d .cfa: $rsp 240 +
STACK CFI 533dd .cfa: $rsp 248 +
STACK CFI 533fb .cfa: $rsp 256 +
STACK CFI 533fd .cfa: $rsp 264 +
STACK CFI 53407 .cfa: $rsp 272 +
STACK CFI 53408 .cfa: $rsp 280 +
STACK CFI 5340c .cfa: $rsp 288 +
STACK CFI 53415 .cfa: $rsp 240 +
STACK CFI INIT 53420 22b .cfa: $rsp 8 + .ra: .cfa -8 + ^
STACK CFI 53421 .cfa: $rsp 16 +
STACK CFI 53423 .cfa: $rsp 24 +
STACK CFI 53425 .cfa: $rsp 32 +
STACK CFI 53427 .cfa: $rsp 40 +
STACK CFI 53429 .cfa: $rsp 48 +
STACK CFI 5342a .cfa: $rsp 56 +
STACK CFI 5342e $r12: .cfa -48 + ^ $r13: .cfa -40 + ^ $r14: .cfa -32 + ^ $r15: .cfa -24 + ^ $rbp: .cfa -16 + ^ $rbx: .cfa -56 + ^ .cfa: $rsp 144 +
STACK CFI 534fd .cfa: $rsp 152 +
STACK CFI 53510 .cfa: $rsp 160 +
STACK CFI 53511 .cfa: $rsp 168 +
STACK CFI 53512 .cfa: $rsp 176 +
STACK CFI 53519 .cfa: $rsp 184 +
STACK CFI 5351b .cfa: $rsp 192 +
STACK CFI 5351d .cfa: $rsp 200 +
STACK CFI 53521 .cfa: $rsp 208 +
STACK CFI 5352a .cfa: $rsp 144 +
STACK CFI 53594 .cfa: $rsp 152 +
STACK CFI 535b1 .cfa: $rsp 160 +
STACK CFI 535ba .cfa: $rsp 144 +
STACK CFI 53618 .cfa: $rsp 152 +
STACK CFI 53635 .cfa: $rsp 160 +
STACK CFI 5363e .cfa: $rsp 144 +
STACK CFI INIT 53650 53 .cfa: $rsp 8 + .ra: .cfa -8 + ^
STACK CFI 53652 .cfa: $rsp 16 +
STACK CFI 53654 .cfa: $rsp 24 +
STACK CFI 53655 $r14: .cfa -24 + ^ $r15: .cfa -16 + ^ $rbx: .cfa -32 + ^ .cfa: $rsp 32 +
STACK CFI 53676 .cfa: $rsp 40 +
STACK CFI 53682 .cfa: $rsp 48 +
STACK CFI 53684 .cfa: $rsp 56 +
STACK CFI 53686 .cfa: $rsp 64 +
STACK CFI 53688 .cfa: $rsp 72 +
STACK CFI 5368a .cfa: $rsp 80 +
STACK CFI 53693 .cfa: $rsp 32 +
STACK CFI INIT 536b0 414 .cfa: $rsp 8 + .ra: .cfa -8 + ^
STACK CFI 536b1 .cfa: $rsp 16 +
STACK CFI 536b3 .cfa: $rsp 24 +
STACK CFI 536b5 .cfa: $rsp 32 +
STACK CFI 536b7 .cfa: $rsp 40 +
STACK CFI 536b9 .cfa: $rsp 48 +
STACK CFI 536ba .cfa: $rsp 56 +
STACK CFI 536c1 $r12: .cfa -48 + ^ $r13: .cfa -40 + ^ $r14: .cfa -32 + ^ $r15: .cfa -24 + ^ $rbp: .cfa -16 + ^ $rbx: .cfa -56 + ^ .cfa: $rsp 288 +
STACK CFI INIT 53ad0 18b .cfa: $rsp 8 + .ra: .cfa -8 + ^
STACK CFI 53ad1 .cfa: $rsp 16 +
STACK CFI 53ad3 .cfa: $rsp 24 +
STACK CFI 53ad5 .cfa: $rsp 32 +
STACK CFI 53ad7 .cfa: $rsp 40 +
STACK CFI 53ad9 .cfa: $rsp 48 +
STACK CFI 53ada .cfa: $rsp 56 +
STACK CFI 53ade $r12: .cfa -48 + ^ $r13: .cfa -40 + ^ $r14: .cfa -32 + ^ $r15: .cfa -24 + ^ $rbp: .cfa -16 + ^ $rbx: .cfa -56 + ^ .cfa: $rsp 128 +
STACK CFI 53c1c .cfa: $rsp 136 +
STACK CFI 53c36 .cfa: $rsp 144 +
STACK CFI 53c37 .cfa: $rsp 152 +
STACK CFI 53c3b .cfa: $rsp 160 +
STACK CFI 53c3d .cfa: $rsp 168 +
STACK CFI 53c3f .cfa: $rsp 176 +
STACK CFI 53c48 .cfa: $rsp 128 +
STACK CFI INIT 53c60 d5 .cfa: $rsp 8 + .ra: .cfa -8 + ^
STACK CFI 53c61 .cfa: $rsp 16 +
STACK CFI 53c63 .cfa: $rsp 24 +
STACK CFI 53c65 .cfa: $rsp 32 +
STACK CFI 53c67 .cfa: $rsp 40 +
STACK CFI 53c69 .cfa: $rsp 48 +
STACK CFI 53c6a .cfa: $rsp 56 +
STACK CFI 53c6e $r12: .cfa -48 + ^ $r13: .cfa -40 + ^ $r14: .cfa -32 + ^ $r15: .cfa -24 + ^ $rbp: .cfa -16 + ^ $rbx: .cfa -56 + ^ .cfa: $rsp 128 +
STACK CFI INIT 53d40 68 .cfa: $rsp 8 + .ra: .cfa -8 + ^
STACK CFI 53d5d .cfa: $rsp 16 +
STACK CFI INIT 53db0 f .cfa: $rsp 8 + .ra: .cfa -8 + ^
STACK CFI INIT 53dc0 b .cfa: $rsp 8 + .ra: .cfa -8 + ^
STACK CFI INIT 53dd0 9 .cfa: $rsp 8 + .ra: .cfa -8 + ^
STACK CFI INIT 53de0 24e .cfa: $rsp 8 + .ra: .cfa -8 + ^
STACK CFI 53de1 .cfa: $rsp 16 +
STACK CFI 53de3 .cfa: $rsp 24 +
STACK CFI 53de5 .cfa: $rsp 32 +
STACK CFI 53de7 .cfa: $rsp 40 +
STACK CFI 53de9 .cfa: $rsp 48 +
STACK CFI 53dea .cfa: $rsp 56 +
STACK CFI 53dee $r12: .cfa -48 + ^ $r13: .cfa -40 + ^ $r14: .cfa -32 + ^ $r15: .cfa -24 + ^ $rbp: .cfa -16 + ^ $rbx: .cfa -56 + ^ .cfa: $rsp 160 +
STACK CFI 53fc4 .cfa: $rsp 168 +
STACK CFI 53fc6 .cfa: $rsp 176 +
STACK CFI 53fcf .cfa: $rsp 160 +
STACK CFI INIT 54030 1e .cfa: $rsp 8 + .ra: .cfa -8 + ^
STACK CFI INIT 54050 35 .cfa: $rsp 8 + .ra: .cfa -8 + ^
STACK CFI INIT 54090 27 .cfa: $rsp 8 + .ra: .cfa -8 + ^
STACK CFI 54091 .cfa: $rsp 16 +
STACK CFI INIT 540c0 be .cfa: $rsp 8 + .ra: .cfa -8 + ^
STACK CFI 540c1 .cfa: $rsp 16 +
STACK CFI 540c3 .cfa: $rsp 24 +
STACK CFI 540c5 .cfa: $rsp 32 +
STACK CFI 540c7 .cfa: $rsp 40 +
STACK CFI 540c9 .cfa: $rsp 48 +
STACK CFI 540ca .cfa: $rsp 56 +
STACK CFI 540cb $r12: .cfa -48 + ^ $r13: .cfa -40 + ^ $r14: .cfa -32 + ^ $r15: .cfa -24 + ^ $rbp: .cfa -16 + ^ $rbx: .cfa -56 + ^ .cfa: $rsp 64 +
STACK CFI INIT 54180 3 .cfa: $rsp 8 + .ra: .cfa -8 + ^
STACK CFI INIT 54190 af .cfa: $rsp 8 + .ra: .cfa -8 + ^
STACK CFI 54191 .cfa: $rsp 16 +
STACK CFI 54193 .cfa: $rsp 24 +
STACK CFI 54195 .cfa: $rsp 32 +
STACK CFI 54197 .cfa: $rsp 40 +
STACK CFI 54199 .cfa: $rsp 48 +
STACK CFI 5419a .cfa: $rsp 56 +
STACK CFI 5419e $r12: .cfa -48 + ^ $r13: .cfa -40 + ^ $r14: .cfa -32 + ^ $r15: .cfa -24 + ^ $rbp: .cfa -16 + ^ $rbx: .cfa -56 + ^ .cfa: $rsp 176 +
STACK CFI INIT 54240 1aa .cfa: $rsp 8 + .ra: .cfa -8 + ^
STACK CFI 54241 .cfa: $rsp 16 +
STACK CFI 54243 .cfa: $rsp 24 +
STACK CFI 54245 .cfa: $rsp 32 +
STACK CFI 54247 .cfa: $rsp 40 +
STACK CFI 54249 .cfa: $rsp 48 +
STACK CFI 5424a .cfa: $rsp 56 +
STACK CFI 5424b $r12: .cfa -48 + ^ $r13: .cfa -40 + ^ $r14: .cfa -32 + ^ $r15: .cfa -24 + ^ $rbp: .cfa -16 + ^ $rbx: .cfa -56 + ^ .cfa: $rsp 64 +
STACK CFI INIT 543f0 221 .cfa: $rsp 8 + .ra: .cfa -8 + ^
STACK CFI 543f1 .cfa: $rsp 16 +
STACK CFI 543f3 .cfa: $rsp 24 +
STACK CFI 543f5 .cfa: $rsp 32 +
STACK CFI 543f7 .cfa: $rsp 40 +
STACK CFI 543f9 .cfa: $rsp 48 +
STACK CFI 543fa .cfa: $rsp 56 +
STACK CFI 543fe $r12: .cfa -48 + ^ $r13: .cfa -40 + ^ $r14: .cfa -32 + ^ $r15: .cfa -24 + ^ $rbp: .cfa -16 + ^ $rbx: .cfa -56 + ^ .cfa: $rsp 112 +
STACK CFI INIT 54620 59 .cfa: $rsp 8 + .ra: .cfa -8 + ^
STACK CFI 54622 .cfa: $rsp 16 +
STACK CFI 54624 .cfa: $rsp 24 +
STACK CFI 54626 .cfa: $rsp 32 +
STACK CFI 54627 .cfa: $rsp 40 +
STACK CFI 54628 $r12: .cfa -32 + ^ $r14: .cfa -24 + ^ $r15: .cfa -16 + ^ $rbx: .cfa -40 + ^ .cfa: $rsp 48 +
STACK CFI INIT 54680 123 .cfa: $rsp 8 + .ra: .cfa -8 + ^
STACK CFI 54681 .cfa: $rsp 16 +
STACK CFI 54683 .cfa: $rsp 24 +
STACK CFI 54685 .cfa: $rsp 32 +
STACK CFI 54687 .cfa: $rsp 40 +
STACK CFI 54689 .cfa: $rsp 48 +
STACK CFI 5468a .cfa: $rsp 56 +
STACK CFI 5468e $r12: .cfa -48 + ^ $r13: .cfa -40 + ^ $r14: .cfa -32 + ^ $r15: .cfa -24 + ^ $rbp: .cfa -16 + ^ $rbx: .cfa -56 + ^ .cfa: $rsp 80 +
STACK CFI INIT 547b0 2c .cfa: $rsp 8 + .ra: .cfa -8 + ^
STACK CFI 547b1 .cfa: $rsp 16 +
STACK CFI INIT 547e0 c .cfa: $rsp 8 + .ra: .cfa -8 + ^
STACK CFI INIT 547f0 c .cfa: $rsp 8 + .ra: .cfa -8 + ^
STACK CFI INIT 54800 c .cfa: $rsp 8 + .ra: .cfa -8 + ^
STACK CFI INIT 54810 685 .cfa: $rsp 8 + .ra: .cfa -8 + ^
STACK CFI 54811 $rbp: .cfa -16 + ^ .cfa: $rsp 16 +
STACK CFI 54814 .cfa: $rbp 16 +
STACK CFI 54821 $r12: .cfa -48 + ^ $r13: .cfa -40 + ^ $r14: .cfa -32 + ^ $r15: .cfa -24 + ^ $rbx: .cfa -56 + ^
STACK CFI INIT 54ea0 55 .cfa: $rsp 8 + .ra: .cfa -8 + ^
STACK CFI 54ea1 .cfa: $rsp 16 +
STACK CFI INIT 54f00 90 .cfa: $rsp 8 + .ra: .cfa -8 + ^
STACK CFI 54f01 .cfa: $rsp 16 +
STACK CFI 54f03 .cfa: $rsp 24 +
STACK CFI 54f05 .cfa: $rsp 32 +
STACK CFI 54f06 .cfa: $rsp 40 +
STACK CFI 54f07 $r14: .cfa -32 + ^ $r15: .cfa -24 + ^ $rbp: .cfa -16 + ^ $rbx: .cfa -40 + ^ .cfa: $rsp 48 +
STACK CFI INIT 54f90 163 .cfa: $rsp 8 + .ra: .cfa -8 + ^
STACK CFI 54f91 .cfa: $rsp 16 +
STACK CFI 54f93 .cfa: $rsp 24 +
STACK CFI 54f95 .cfa: $rsp 32 +
STACK CFI 54f97 .cfa: $rsp 40 +
STACK CFI 54f99 .cfa: $rsp 48 +
STACK CFI 54f9a .cfa: $rsp 56 +
STACK CFI 54f9e $r12: .cfa -48 + ^ $r13: .cfa -40 + ^ $r14: .cfa -32 + ^ $r15: .cfa -24 + ^ $rbp: .cfa -16 + ^ $rbx: .cfa -56 + ^ .cfa: $rsp 80 +
STACK CFI INIT 55100 52 .cfa: $rsp 8 + .ra: .cfa -8 + ^
STACK CFI 55101 .cfa: $rsp 16 +
STACK CFI INIT 55160 52 .cfa: $rsp 8 + .ra: .cfa -8 + ^
STACK CFI 55161 .cfa: $rsp 16 +
STACK CFI INIT 551c0 52 .cfa: $rsp 8 + .ra: .cfa -8 + ^
STACK CFI 551c1 .cfa: $rsp 16 +
STACK CFI INIT 55220 52 .cfa: $rsp 8 + .ra: .cfa -8 + ^
STACK CFI 55221 .cfa: $rsp 16 +
STACK CFI INIT 55280 1f0 .cfa: $rsp 8 + .ra: .cfa -8 + ^
STACK CFI 55281 .cfa: $rsp 16 +
STACK CFI 55283 .cfa: $rsp 24 +
STACK CFI 55285 .cfa: $rsp 32 +
STACK CFI 55286 .cfa: $rsp 40 +
STACK CFI 55287 $r14: .cfa -32 + ^ $r15: .cfa -24 + ^ $rbp: .cfa -16 + ^ $rbx: .cfa -40 + ^ .cfa: $rsp 48 +
STACK CFI INIT 55470 b6 .cfa: $rsp 8 + .ra: .cfa -8 + ^
STACK CFI 55471 .cfa: $rsp 16 +
STACK CFI INIT 55530 6 .cfa: $rsp 8 + .ra: .cfa -8 + ^
STACK CFI INIT 55540 6 .cfa: $rsp 8 + .ra: .cfa -8 + ^
STACK CFI INIT 55550 56 .cfa: $rsp 8 + .ra: .cfa -8 + ^
STACK CFI 55551 .cfa: $rsp 16 +
STACK CFI INIT 555b0 56 .cfa: $rsp 8 + .ra: .cfa -8 + ^
STACK CFI 555b1 .cfa: $rsp 16 +
STACK CFI INIT 55610 56 .cfa: $rsp 8 + .ra: .cfa -8 + ^
STACK CFI 55611 .cfa: $rsp 16 +
STACK CFI INIT 55670 56 .cfa: $rsp 8 + .ra: .cfa -8 + ^
STACK CFI 55671 .cfa: $rsp 16 +
STACK CFI INIT 556d0 55 .cfa: $rsp 8 + .ra: .cfa -8 + ^
STACK CFI 556d1 .cfa: $rsp 16 +
STACK CFI INIT 55730 56 .cfa: $rsp 8 + .ra: .cfa -8 + ^
STACK CFI 55731 .cfa: $rsp 16 +
STACK CFI INIT 55790 56 .cfa: $rsp 8 + .ra: .cfa -8 + ^
STACK CFI 55791 .cfa: $rsp 16 +
STACK CFI INIT 557f0 56 .cfa: $rsp 8 + .ra: .cfa -8 + ^
STACK CFI 557f1 .cfa: $rsp 16 +
STACK CFI INIT 55850 56 .cfa: $rsp 8 + .ra: .cfa -8 + ^
STACK CFI 55851 .cfa: $rsp 16 +
STACK CFI INIT 558b0 56 .cfa: $rsp 8 + .ra: .cfa -8 + ^
STACK CFI 558b1 .cfa: $rsp 16 +
STACK CFI INIT 55910 56 .cfa: $rsp 8 + .ra: .cfa -8 + ^
STACK CFI 55911 .cfa: $rsp 16 +
STACK CFI INIT 55970 56 .cfa: $rsp 8 + .ra: .cfa -8 + ^
STACK CFI 55971 .cfa: $rsp 16 +
STACK CFI INIT 559d0 56 .cfa: $rsp 8 + .ra: .cfa -8 + ^
STACK CFI 559d1 .cfa: $rsp 16 +
STACK CFI INIT 55a30 56 .cfa: $rsp 8 + .ra: .cfa -8 + ^
STACK CFI 55a31 .cfa: $rsp 16 +
STACK CFI INIT 55a90 56 .cfa: $rsp 8 + .ra: .cfa -8 + ^
STACK CFI 55a91 .cfa: $rsp 16 +
STACK CFI INIT 55af0 56 .cfa: $rsp 8 + .ra: .cfa -8 + ^
STACK CFI 55af1 .cfa: $rsp 16 +
STACK CFI INIT 55b50 5d .cfa: $rsp 8 + .ra: .cfa -8 + ^
STACK CFI 55b51 .cfa: $rsp 16 +
STACK CFI INIT 55bb0 58 .cfa: $rsp 8 + .ra: .cfa -8 + ^
STACK CFI 55bb1 .cfa: $rsp 16 +
STACK CFI INIT 55c10 58 .cfa: $rsp 8 + .ra: .cfa -8 + ^
STACK CFI 55c11 .cfa: $rsp 16 +
STACK CFI INIT 55c70 58 .cfa: $rsp 8 + .ra: .cfa -8 + ^
STACK CFI 55c71 .cfa: $rsp 16 +
STACK CFI INIT 55cd0 62 .cfa: $rsp 8 + .ra: .cfa -8 + ^
STACK CFI 55cd1 .cfa: $rsp 16 +
STACK CFI INIT 55d40 58 .cfa: $rsp 8 + .ra: .cfa -8 + ^
STACK CFI 55d41 .cfa: $rsp 16 +
STACK CFI INIT 55da0 58 .cfa: $rsp 8 + .ra: .cfa -8 + ^
STACK CFI 55da1 .cfa: $rsp 16 +
STACK CFI INIT 55e00 5d .cfa: $rsp 8 + .ra: .cfa -8 + ^
STACK CFI 55e01 .cfa: $rsp 16 +
STACK CFI INIT 55e60 58 .cfa: $rsp 8 + .ra: .cfa -8 + ^
STACK CFI 55e61 .cfa: $rsp 16 +
STACK CFI INIT 55ec0 5d .cfa: $rsp 8 + .ra: .cfa -8 + ^
STACK CFI 55ec1 .cfa: $rsp 16 +
STACK CFI INIT 55f20 58 .cfa: $rsp 8 + .ra: .cfa -8 + ^
STACK CFI 55f21 .cfa: $rsp 16 +
STACK CFI INIT 55f80 5d .cfa: $rsp 8 + .ra: .cfa -8 + ^
STACK CFI 55f81 .cfa: $rsp 16 +
STACK CFI INIT 55fe0 6 .cfa: $rsp 8 + .ra: .cfa -8 + ^
STACK CFI INIT 55ff0 6 .cfa: $rsp 8 + .ra: .cfa -8 + ^
STACK CFI INIT 56000 5d .cfa: $rsp 8 + .ra: .cfa -8 + ^
STACK CFI 56001 .cfa: $rsp 16 +
STACK CFI INIT 56060 58 .cfa: $rsp 8 + .ra: .cfa -8 + ^
STACK CFI 56061 .cfa: $rsp 16 +
STACK CFI INIT 560c0 6 .cfa: $rsp 8 + .ra: .cfa -8 + ^
STACK CFI INIT 560d0 6 .cfa: $rsp 8 + .ra: .cfa -8 + ^
STACK CFI INIT 560e0 6 .cfa: $rsp 8 + .ra: .cfa -8 + ^
STACK CFI INIT 560f0 6 .cfa: $rsp 8 + .ra: .cfa -8 + ^
STACK CFI INIT 56100 6 .cfa: $rsp 8 + .ra: .cfa -8 + ^
STACK CFI INIT 56110 6 .cfa: $rsp 8 + .ra: .cfa -8 + ^
STACK CFI INIT 56120 6 .cfa: $rsp 8 + .ra: .cfa -8 + ^
STACK CFI INIT 56130 6 .cfa: $rsp 8 + .ra: .cfa -8 + ^
STACK CFI INIT 56140 6 .cfa: $rsp 8 + .ra: .cfa -8 + ^
STACK CFI INIT 56150 6 .cfa: $rsp 8 + .ra: .cfa -8 + ^
STACK CFI INIT 56160 6 .cfa: $rsp 8 + .ra: .cfa -8 + ^
STACK CFI INIT 56170 7a .cfa: $rsp 8 + .ra: .cfa -8 + ^
STACK CFI 56172 .cfa: $rsp 16 +
STACK CFI 56173 .cfa: $rsp 24 +
STACK CFI 56174 $r14: .cfa -16 + ^ $rbx: .cfa -24 + ^ .cfa: $rsp 32 +
STACK CFI INIT 561f0 3d .cfa: $rsp 8 + .ra: .cfa -8 + ^
STACK CFI 561f1 .cfa: $rsp 16 +
STACK CFI INIT 56230 3d .cfa: $rsp 8 + .ra: .cfa -8 + ^
STACK CFI 56231 .cfa: $rsp 16 +
STACK CFI INIT 56270 3e .cfa: $rsp 8 + .ra: .cfa -8 + ^
STACK CFI 56272 .cfa: $rsp 16 +
STACK CFI 56274 .cfa: $rsp 24 +
STACK CFI 56275 $r14: .cfa -24 + ^ $r15: .cfa -16 + ^ $rbx: .cfa -32 + ^ .cfa: $rsp 32 +
STACK CFI INIT 562b0 30 .cfa: $rsp 8 + .ra: .cfa -8 + ^
STACK CFI 562b1 .cfa: $rsp 16 +
STACK CFI INIT 562e0 2f .cfa: $rsp 8 + .ra: .cfa -8 + ^
STACK CFI 562e1 $rbx: .cfa -16 + ^ .cfa: $rsp 16 +
STACK CFI INIT 56310 5c .cfa: $rsp 8 + .ra: .cfa -8 + ^
STACK CFI 56311 .cfa: $rsp 16 +
STACK CFI INIT 56370 1ab .cfa: $rsp 8 + .ra: .cfa -8 + ^
STACK CFI 56371 .cfa: $rsp 16 +
STACK CFI 56373 .cfa: $rsp 24 +
STACK CFI 56375 .cfa: $rsp 32 +
STACK CFI 56377 .cfa: $rsp 40 +
STACK CFI 56379 .cfa: $rsp 48 +
STACK CFI 5637a .cfa: $rsp 56 +
STACK CFI 5637b $r12: .cfa -48 + ^ $r13: .cfa -40 + ^ $r14: .cfa -32 + ^ $r15: .cfa -24 + ^ $rbp: .cfa -16 + ^ $rbx: .cfa -56 + ^ .cfa: $rsp 64 +
STACK CFI INIT 56520 cb .cfa: $rsp 8 + .ra: .cfa -8 + ^
STACK CFI 56522 .cfa: $rsp 16 +
STACK CFI 56524 .cfa: $rsp 24 +
STACK CFI 56526 .cfa: $rsp 32 +
STACK CFI 56528 .cfa: $rsp 40 +
STACK CFI 56529 .cfa: $rsp 48 +
STACK CFI 5652d $r12: .cfa -40 + ^ $r13: .cfa -32 + ^ $r14: .cfa -24 + ^ $r15: .cfa -16 + ^ $rbx: .cfa -48 + ^ .cfa: $rsp 64 +
STACK CFI INIT 565f0 cb .cfa: $rsp 8 + .ra: .cfa -8 + ^
STACK CFI 565f2 .cfa: $rsp 16 +
STACK CFI 565f4 .cfa: $rsp 24 +
STACK CFI 565f6 .cfa: $rsp 32 +
STACK CFI 565f8 .cfa: $rsp 40 +
STACK CFI 565f9 .cfa: $rsp 48 +
STACK CFI 565fd $r12: .cfa -40 + ^ $r13: .cfa -32 + ^ $r14: .cfa -24 + ^ $r15: .cfa -16 + ^ $rbx: .cfa -48 + ^ .cfa: $rsp 64 +
STACK CFI INIT 566c0 19e .cfa: $rsp 8 + .ra: .cfa -8 + ^
STACK CFI 566c1 .cfa: $rsp 16 +
STACK CFI 566c3 .cfa: $rsp 24 +
STACK CFI 566c5 .cfa: $rsp 32 +
STACK CFI 566c7 .cfa: $rsp 40 +
STACK CFI 566c9 .cfa: $rsp 48 +
STACK CFI 566ca .cfa: $rsp 56 +
STACK CFI 566d1 $r12: .cfa -48 + ^ $r13: .cfa -40 + ^ $r14: .cfa -32 + ^ $r15: .cfa -24 + ^ $rbp: .cfa -16 + ^ $rbx: .cfa -56 + ^ .cfa: $rsp 240 +
STACK CFI INIT 56860 159 .cfa: $rsp 8 + .ra: .cfa -8 + ^
STACK CFI 56861 $rbp: .cfa -16 + ^ .cfa: $rsp 16 +
STACK CFI 56864 .cfa: $rbp 16 +
STACK CFI 5686e $r12: .cfa -48 + ^ $r13: .cfa -40 + ^ $r14: .cfa -32 + ^ $r15: .cfa -24 + ^ $rbx: .cfa -56 + ^
STACK CFI INIT 569c0 64 .cfa: $rsp 8 + .ra: .cfa -8 + ^
STACK CFI 569c1 .cfa: $rsp 16 +
STACK CFI 569c3 .cfa: $rsp 24 +
STACK CFI 569c5 .cfa: $rsp 32 +
STACK CFI 569c6 .cfa: $rsp 40 +
STACK CFI 569c7 $r14: .cfa -32 + ^ $r15: .cfa -24 + ^ $rbp: .cfa -16 + ^ $rbx: .cfa -40 + ^ .cfa: $rsp 48 +
STACK CFI INIT 56a30 10f .cfa: $rsp 8 + .ra: .cfa -8 + ^
STACK CFI 56a31 .cfa: $rsp 16 +
STACK CFI 56a33 .cfa: $rsp 24 +
STACK CFI 56a35 .cfa: $rsp 32 +
STACK CFI 56a36 .cfa: $rsp 40 +
STACK CFI 56a37 $r14: .cfa -32 + ^ $r15: .cfa -24 + ^ $rbp: .cfa -16 + ^ $rbx: .cfa -40 + ^ .cfa: $rsp 48 +
STACK CFI INIT 56b40 80 .cfa: $rsp 8 + .ra: .cfa -8 + ^
STACK CFI 56b42 .cfa: $rsp 16 +
STACK CFI 56b44 .cfa: $rsp 24 +
STACK CFI 56b45 .cfa: $rsp 32 +
STACK CFI 56b49 $r14: .cfa -24 + ^ $r15: .cfa -16 + ^ $rbx: .cfa -32 + ^ .cfa: $rsp 48 +
STACK CFI INIT 56bc0 80 .cfa: $rsp 8 + .ra: .cfa -8 + ^
STACK CFI 56bc2 .cfa: $rsp 16 +
STACK CFI 56bc4 .cfa: $rsp 24 +
STACK CFI 56bc5 .cfa: $rsp 32 +
STACK CFI 56bc9 $r14: .cfa -24 + ^ $r15: .cfa -16 + ^ $rbx: .cfa -32 + ^ .cfa: $rsp 48 +
STACK CFI INIT 56c40 56 .cfa: $rsp 8 + .ra: .cfa -8 + ^
STACK CFI 56c41 .cfa: $rsp 16 +
STACK CFI INIT 56ca0 56 .cfa: $rsp 8 + .ra: .cfa -8 + ^
STACK CFI 56ca1 .cfa: $rsp 16 +
STACK CFI INIT 56d00 58 .cfa: $rsp 8 + .ra: .cfa -8 + ^
STACK CFI 56d01 .cfa: $rsp 16 +
STACK CFI INIT 56d60 57 .cfa: $rsp 8 + .ra: .cfa -8 + ^
STACK CFI 56d61 .cfa: $rsp 16 +
STACK CFI INIT 56dc0 58 .cfa: $rsp 8 + .ra: .cfa -8 + ^
STACK CFI 56dc1 .cfa: $rsp 16 +
STACK CFI INIT 56e20 58 .cfa: $rsp 8 + .ra: .cfa -8 + ^
STACK CFI 56e21 .cfa: $rsp 16 +
STACK CFI INIT 56e80 58 .cfa: $rsp 8 + .ra: .cfa -8 + ^
STACK CFI 56e81 .cfa: $rsp 16 +
STACK CFI INIT 56ee0 1ff .cfa: $rsp 8 + .ra: .cfa -8 + ^
STACK CFI 56ee1 .cfa: $rsp 16 +
STACK CFI 56ee3 .cfa: $rsp 24 +
STACK CFI 56ee5 .cfa: $rsp 32 +
STACK CFI 56ee7 .cfa: $rsp 40 +
STACK CFI 56ee9 .cfa: $rsp 48 +
STACK CFI 56eea .cfa: $rsp 56 +
STACK CFI 56ef1 $r12: .cfa -48 + ^ $r13: .cfa -40 + ^ $r14: .cfa -32 + ^ $r15: .cfa -24 + ^ $rbp: .cfa -16 + ^ $rbx: .cfa -56 + ^ .cfa: $rsp 2880 +
STACK CFI INIT 570e0 12 .cfa: $rsp 8 + .ra: .cfa -8 + ^
STACK CFI INIT 57100 61 .cfa: $rsp 8 + .ra: .cfa -8 + ^
STACK CFI 57101 .cfa: $rsp 16 +
STACK CFI INIT 57170 62 .cfa: $rsp 8 + .ra: .cfa -8 + ^
STACK CFI 57171 .cfa: $rsp 16 +
STACK CFI INIT 571e0 62 .cfa: $rsp 8 + .ra: .cfa -8 + ^
STACK CFI 571e1 .cfa: $rsp 16 +
STACK CFI INIT 57250 1a .cfa: $rsp 8 + .ra: .cfa -8 + ^
STACK CFI INIT 57270 5f .cfa: $rsp 8 + .ra: .cfa -8 + ^
STACK CFI 57271 .cfa: $rsp 16 +
STACK CFI INIT 572d0 1a .cfa: $rsp 8 + .ra: .cfa -8 + ^
STACK CFI INIT 572f0 6b .cfa: $rsp 8 + .ra: .cfa -8 + ^
STACK CFI 572f1 .cfa: $rsp 16 +
STACK CFI INIT 57360 6 .cfa: $rsp 8 + .ra: .cfa -8 + ^
STACK CFI INIT 57370 6 .cfa: $rsp 8 + .ra: .cfa -8 + ^
STACK CFI INIT 57380 6 .cfa: $rsp 8 + .ra: .cfa -8 + ^
STACK CFI INIT 57390 6 .cfa: $rsp 8 + .ra: .cfa -8 + ^
STACK CFI INIT 573a0 6 .cfa: $rsp 8 + .ra: .cfa -8 + ^
STACK CFI INIT 573b0 6 .cfa: $rsp 8 + .ra: .cfa -8 + ^
STACK CFI INIT 573c0 6 .cfa: $rsp 8 + .ra: .cfa -8 + ^
STACK CFI INIT 573d0 87 .cfa: $rsp 8 + .ra: .cfa -8 + ^
STACK CFI 573d1 .cfa: $rsp 16 +
STACK CFI 573d3 .cfa: $rsp 24 +
STACK CFI 573d5 .cfa: $rsp 32 +
STACK CFI 573d6 .cfa: $rsp 40 +
STACK CFI 573d7 $r14: .cfa -32 + ^ $r15: .cfa -24 + ^ $rbp: .cfa -16 + ^ $rbx: .cfa -40 + ^ .cfa: $rsp 48 +
STACK CFI INIT 57460 87 .cfa: $rsp 8 + .ra: .cfa -8 + ^
STACK CFI 57461 .cfa: $rsp 16 +
STACK CFI 57463 .cfa: $rsp 24 +
STACK CFI 57465 .cfa: $rsp 32 +
STACK CFI 57466 .cfa: $rsp 40 +
STACK CFI 57467 $r14: .cfa -32 + ^ $r15: .cfa -24 + ^ $rbp: .cfa -16 + ^ $rbx: .cfa -40 + ^ .cfa: $rsp 48 +
STACK CFI INIT 574f0 87 .cfa: $rsp 8 + .ra: .cfa -8 + ^
STACK CFI 574f1 .cfa: $rsp 16 +
STACK CFI 574f3 .cfa: $rsp 24 +
STACK CFI 574f5 .cfa: $rsp 32 +
STACK CFI 574f6 .cfa: $rsp 40 +
STACK CFI 574f7 $r14: .cfa -32 + ^ $r15: .cfa -24 + ^ $rbp: .cfa -16 + ^ $rbx: .cfa -40 + ^ .cfa: $rsp 48 +
STACK CFI INIT 57580 87 .cfa: $rsp 8 + .ra: .cfa -8 + ^
STACK CFI 57581 .cfa: $rsp 16 +
STACK CFI 57583 .cfa: $rsp 24 +
STACK CFI 57585 .cfa: $rsp 32 +
STACK CFI 57586 .cfa: $rsp 40 +
STACK CFI 57587 $r14: .cfa -32 + ^ $r15: .cfa -24 + ^ $rbp: .cfa -16 + ^ $rbx: .cfa -40 + ^ .cfa: $rsp 48 +
STACK CFI INIT 57610 87 .cfa: $rsp 8 + .ra: .cfa -8 + ^
STACK CFI 57611 .cfa: $rsp 16 +
STACK CFI 57613 .cfa: $rsp 24 +
STACK CFI 57615 .cfa: $rsp 32 +
STACK CFI 57616 .cfa: $rsp 40 +
STACK CFI 57617 $r14: .cfa -32 + ^ $r15: .cfa -24 + ^ $rbp: .cfa -16 + ^ $rbx: .cfa -40 + ^ .cfa: $rsp 48 +
STACK CFI INIT 576a0 87 .cfa: $rsp 8 + .ra: .cfa -8 + ^
STACK CFI 576a1 .cfa: $rsp 16 +
STACK CFI 576a3 .cfa: $rsp 24 +
STACK CFI 576a5 .cfa: $rsp 32 +
STACK CFI 576a6 .cfa: $rsp 40 +
STACK CFI 576a7 $r14: .cfa -32 + ^ $r15: .cfa -24 + ^ $rbp: .cfa -16 + ^ $rbx: .cfa -40 + ^ .cfa: $rsp 48 +
STACK CFI INIT 57730 87 .cfa: $rsp 8 + .ra: .cfa -8 + ^
STACK CFI 57731 .cfa: $rsp 16 +
STACK CFI 57733 .cfa: $rsp 24 +
STACK CFI 57735 .cfa: $rsp 32 +
STACK CFI 57736 .cfa: $rsp 40 +
STACK CFI 57737 $r14: .cfa -32 + ^ $r15: .cfa -24 + ^ $rbp: .cfa -16 + ^ $rbx: .cfa -40 + ^ .cfa: $rsp 48 +
STACK CFI INIT 577c0 4f .cfa: $rsp 8 + .ra: .cfa -8 + ^
STACK CFI 577c1 $rbx: .cfa -16 + ^ .cfa: $rsp 16 +
STACK CFI INIT 57810 a0 .cfa: $rsp 8 + .ra: .cfa -8 + ^
STACK CFI 57811 .cfa: $rsp 16 +
STACK CFI 57813 .cfa: $rsp 24 +
STACK CFI 57815 .cfa: $rsp 32 +
STACK CFI 57817 .cfa: $rsp 40 +
STACK CFI 57818 .cfa: $rsp 48 +
STACK CFI 5781c $r12: .cfa -40 + ^ $r14: .cfa -32 + ^ $r15: .cfa -24 + ^ $rbp: .cfa -16 + ^ $rbx: .cfa -48 + ^ .cfa: $rsp 64 +
STACK CFI INIT 578b0 a2 .cfa: $rsp 8 + .ra: .cfa -8 + ^
STACK CFI 578b1 .cfa: $rsp 16 +
STACK CFI 578b3 .cfa: $rsp 24 +
STACK CFI 578b5 .cfa: $rsp 32 +
STACK CFI 578b7 .cfa: $rsp 40 +
STACK CFI 578b8 .cfa: $rsp 48 +
STACK CFI 578bc $r12: .cfa -40 + ^ $r14: .cfa -32 + ^ $r15: .cfa -24 + ^ $rbp: .cfa -16 + ^ $rbx: .cfa -48 + ^ .cfa: $rsp 64 +
STACK CFI INIT 57960 a2 .cfa: $rsp 8 + .ra: .cfa -8 + ^
STACK CFI 57961 .cfa: $rsp 16 +
STACK CFI 57963 .cfa: $rsp 24 +
STACK CFI 57965 .cfa: $rsp 32 +
STACK CFI 57967 .cfa: $rsp 40 +
STACK CFI 57968 .cfa: $rsp 48 +
STACK CFI 5796c $r12: .cfa -40 + ^ $r14: .cfa -32 + ^ $r15: .cfa -24 + ^ $rbp: .cfa -16 + ^ $rbx: .cfa -48 + ^ .cfa: $rsp 64 +
STACK CFI INIT 57a10 a2 .cfa: $rsp 8 + .ra: .cfa -8 + ^
STACK CFI 57a11 .cfa: $rsp 16 +
STACK CFI 57a13 .cfa: $rsp 24 +
STACK CFI 57a15 .cfa: $rsp 32 +
STACK CFI 57a17 .cfa: $rsp 40 +
STACK CFI 57a18 .cfa: $rsp 48 +
STACK CFI 57a1c $r12: .cfa -40 + ^ $r14: .cfa -32 + ^ $r15: .cfa -24 + ^ $rbp: .cfa -16 + ^ $rbx: .cfa -48 + ^ .cfa: $rsp 64 +
STACK CFI INIT 57ac0 a2 .cfa: $rsp 8 + .ra: .cfa -8 + ^
STACK CFI 57ac1 .cfa: $rsp 16 +
STACK CFI 57ac3 .cfa: $rsp 24 +
STACK CFI 57ac5 .cfa: $rsp 32 +
STACK CFI 57ac7 .cfa: $rsp 40 +
STACK CFI 57ac8 .cfa: $rsp 48 +
STACK CFI 57acc $r12: .cfa -40 + ^ $r14: .cfa -32 + ^ $r15: .cfa -24 + ^ $rbp: .cfa -16 + ^ $rbx: .cfa -48 + ^ .cfa: $rsp 64 +
STACK CFI INIT 57b70 a2 .cfa: $rsp 8 + .ra: .cfa -8 + ^
STACK CFI 57b71 .cfa: $rsp 16 +
STACK CFI 57b73 .cfa: $rsp 24 +
STACK CFI 57b75 .cfa: $rsp 32 +
STACK CFI 57b77 .cfa: $rsp 40 +
STACK CFI 57b78 .cfa: $rsp 48 +
STACK CFI 57b7c $r12: .cfa -40 + ^ $r14: .cfa -32 + ^ $r15: .cfa -24 + ^ $rbp: .cfa -16 + ^ $rbx: .cfa -48 + ^ .cfa: $rsp 64 +
STACK CFI INIT 57c20 a2 .cfa: $rsp 8 + .ra: .cfa -8 + ^
STACK CFI 57c21 .cfa: $rsp 16 +
STACK CFI 57c23 .cfa: $rsp 24 +
STACK CFI 57c25 .cfa: $rsp 32 +
STACK CFI 57c27 .cfa: $rsp 40 +
STACK CFI 57c28 .cfa: $rsp 48 +
STACK CFI 57c2c $r12: .cfa -40 + ^ $r14: .cfa -32 + ^ $r15: .cfa -24 + ^ $rbp: .cfa -16 + ^ $rbx: .cfa -48 + ^ .cfa: $rsp 64 +
STACK CFI INIT 57cd0 a2 .cfa: $rsp 8 + .ra: .cfa -8 + ^
STACK CFI 57cd1 .cfa: $rsp 16 +
STACK CFI 57cd3 .cfa: $rsp 24 +
STACK CFI 57cd5 .cfa: $rsp 32 +
STACK CFI 57cd7 .cfa: $rsp 40 +
STACK CFI 57cd8 .cfa: $rsp 48 +
STACK CFI 57cdc $r12: .cfa -40 + ^ $r14: .cfa -32 + ^ $r15: .cfa -24 + ^ $rbp: .cfa -16 + ^ $rbx: .cfa -48 + ^ .cfa: $rsp 64 +
STACK CFI INIT 57d80 a2 .cfa: $rsp 8 + .ra: .cfa -8 + ^
STACK CFI 57d81 .cfa: $rsp 16 +
STACK CFI 57d83 .cfa: $rsp 24 +
STACK CFI 57d85 .cfa: $rsp 32 +
STACK CFI 57d87 .cfa: $rsp 40 +
STACK CFI 57d88 .cfa: $rsp 48 +
STACK CFI 57d8c $r12: .cfa -40 + ^ $r14: .cfa -32 + ^ $r15: .cfa -24 + ^ $rbp: .cfa -16 + ^ $rbx: .cfa -48 + ^ .cfa: $rsp 64 +
STACK CFI INIT 57e30 a2 .cfa: $rsp 8 + .ra: .cfa -8 + ^
STACK CFI 57e31 .cfa: $rsp 16 +
STACK CFI 57e33 .cfa: $rsp 24 +
STACK CFI 57e35 .cfa: $rsp 32 +
STACK CFI 57e37 .cfa: $rsp 40 +
STACK CFI 57e38 .cfa: $rsp 48 +
STACK CFI 57e3c $r12: .cfa -40 + ^ $r14: .cfa -32 + ^ $r15: .cfa -24 + ^ $rbp: .cfa -16 + ^ $rbx: .cfa -48 + ^ .cfa: $rsp 64 +
STACK CFI INIT 57ee0 a2 .cfa: $rsp 8 + .ra: .cfa -8 + ^
STACK CFI 57ee1 .cfa: $rsp 16 +
STACK CFI 57ee3 .cfa: $rsp 24 +
STACK CFI 57ee5 .cfa: $rsp 32 +
STACK CFI 57ee7 .cfa: $rsp 40 +
STACK CFI 57ee8 .cfa: $rsp 48 +
STACK CFI 57eec $r12: .cfa -40 + ^ $r14: .cfa -32 + ^ $r15: .cfa -24 + ^ $rbp: .cfa -16 + ^ $rbx: .cfa -48 + ^ .cfa: $rsp 64 +
STACK CFI INIT 57f90 a2 .cfa: $rsp 8 + .ra: .cfa -8 + ^
STACK CFI 57f91 .cfa: $rsp 16 +
STACK CFI 57f93 .cfa: $rsp 24 +
STACK CFI 57f95 .cfa: $rsp 32 +
STACK CFI 57f97 .cfa: $rsp 40 +
STACK CFI 57f98 .cfa: $rsp 48 +
STACK CFI 57f9c $r12: .cfa -40 + ^ $r14: .cfa -32 + ^ $r15: .cfa -24 + ^ $rbp: .cfa -16 + ^ $rbx: .cfa -48 + ^ .cfa: $rsp 64 +
STACK CFI INIT 58040 a2 .cfa: $rsp 8 + .ra: .cfa -8 + ^
STACK CFI 58041 .cfa: $rsp 16 +
STACK CFI 58043 .cfa: $rsp 24 +
STACK CFI 58045 .cfa: $rsp 32 +
STACK CFI 58047 .cfa: $rsp 40 +
STACK CFI 58048 .cfa: $rsp 48 +
STACK CFI 5804c $r12: .cfa -40 + ^ $r14: .cfa -32 + ^ $r15: .cfa -24 + ^ $rbp: .cfa -16 + ^ $rbx: .cfa -48 + ^ .cfa: $rsp 64 +
STACK CFI INIT 580f0 a5 .cfa: $rsp 8 + .ra: .cfa -8 + ^
STACK CFI 580f1 .cfa: $rsp 16 +
STACK CFI 580f3 .cfa: $rsp 24 +
STACK CFI 580f5 .cfa: $rsp 32 +
STACK CFI 580f7 .cfa: $rsp 40 +
STACK CFI 580f8 .cfa: $rsp 48 +
STACK CFI 580fc $r12: .cfa -40 + ^ $r14: .cfa -32 + ^ $r15: .cfa -24 + ^ $rbp: .cfa -16 + ^ $rbx: .cfa -48 + ^ .cfa: $rsp 64 +
STACK CFI INIT 581a0 a5 .cfa: $rsp 8 + .ra: .cfa -8 + ^
STACK CFI 581a1 .cfa: $rsp 16 +
STACK CFI 581a3 .cfa: $rsp 24 +
STACK CFI 581a5 .cfa: $rsp 32 +
STACK CFI 581a7 .cfa: $rsp 40 +
STACK CFI 581a8 .cfa: $rsp 48 +
STACK CFI 581ac $r12: .cfa -40 + ^ $r14: .cfa -32 + ^ $r15: .cfa -24 + ^ $rbp: .cfa -16 + ^ $rbx: .cfa -48 + ^ .cfa: $rsp 64 +
STACK CFI INIT 58250 a5 .cfa: $rsp 8 + .ra: .cfa -8 + ^
STACK CFI 58251 .cfa: $rsp 16 +
STACK CFI 58253 .cfa: $rsp 24 +
STACK CFI 58255 .cfa: $rsp 32 +
STACK CFI 58257 .cfa: $rsp 40 +
STACK CFI 58258 .cfa: $rsp 48 +
STACK CFI 5825c $r12: .cfa -40 + ^ $r14: .cfa -32 + ^ $r15: .cfa -24 + ^ $rbp: .cfa -16 + ^ $rbx: .cfa -48 + ^ .cfa: $rsp 64 +
STACK CFI INIT 58300 a5 .cfa: $rsp 8 + .ra: .cfa -8 + ^
STACK CFI 58301 .cfa: $rsp 16 +
STACK CFI 58303 .cfa: $rsp 24 +
STACK CFI 58305 .cfa: $rsp 32 +
STACK CFI 58307 .cfa: $rsp 40 +
STACK CFI 58308 .cfa: $rsp 48 +
STACK CFI 5830c $r12: .cfa -40 + ^ $r14: .cfa -32 + ^ $r15: .cfa -24 + ^ $rbp: .cfa -16 + ^ $rbx: .cfa -48 + ^ .cfa: $rsp 64 +
STACK CFI INIT 583b0 a2 .cfa: $rsp 8 + .ra: .cfa -8 + ^
STACK CFI 583b1 .cfa: $rsp 16 +
STACK CFI 583b3 .cfa: $rsp 24 +
STACK CFI 583b5 .cfa: $rsp 32 +
STACK CFI 583b7 .cfa: $rsp 40 +
STACK CFI 583b8 .cfa: $rsp 48 +
STACK CFI 583bc $r12: .cfa -40 + ^ $r14: .cfa -32 + ^ $r15: .cfa -24 + ^ $rbp: .cfa -16 + ^ $rbx: .cfa -48 + ^ .cfa: $rsp 64 +
STACK CFI INIT 58460 a2 .cfa: $rsp 8 + .ra: .cfa -8 + ^
STACK CFI 58461 .cfa: $rsp 16 +
STACK CFI 58463 .cfa: $rsp 24 +
STACK CFI 58465 .cfa: $rsp 32 +
STACK CFI 58467 .cfa: $rsp 40 +
STACK CFI 58468 .cfa: $rsp 48 +
STACK CFI 5846c $r12: .cfa -40 + ^ $r14: .cfa -32 + ^ $r15: .cfa -24 + ^ $rbp: .cfa -16 + ^ $rbx: .cfa -48 + ^ .cfa: $rsp 64 +
STACK CFI INIT 58510 a2 .cfa: $rsp 8 + .ra: .cfa -8 + ^
STACK CFI 58511 .cfa: $rsp 16 +
STACK CFI 58513 .cfa: $rsp 24 +
STACK CFI 58515 .cfa: $rsp 32 +
STACK CFI 58517 .cfa: $rsp 40 +
STACK CFI 58518 .cfa: $rsp 48 +
STACK CFI 5851c $r12: .cfa -40 + ^ $r14: .cfa -32 + ^ $r15: .cfa -24 + ^ $rbp: .cfa -16 + ^ $rbx: .cfa -48 + ^ .cfa: $rsp 64 +
STACK CFI INIT 585c0 a5 .cfa: $rsp 8 + .ra: .cfa -8 + ^
STACK CFI 585c1 .cfa: $rsp 16 +
STACK CFI 585c3 .cfa: $rsp 24 +
STACK CFI 585c5 .cfa: $rsp 32 +
STACK CFI 585c7 .cfa: $rsp 40 +
STACK CFI 585c8 .cfa: $rsp 48 +
STACK CFI 585cc $r12: .cfa -40 + ^ $r14: .cfa -32 + ^ $r15: .cfa -24 + ^ $rbp: .cfa -16 + ^ $rbx: .cfa -48 + ^ .cfa: $rsp 64 +
STACK CFI INIT 58670 a5 .cfa: $rsp 8 + .ra: .cfa -8 + ^
STACK CFI 58671 .cfa: $rsp 16 +
STACK CFI 58673 .cfa: $rsp 24 +
STACK CFI 58675 .cfa: $rsp 32 +
STACK CFI 58677 .cfa: $rsp 40 +
STACK CFI 58678 .cfa: $rsp 48 +
STACK CFI 5867c $r12: .cfa -40 + ^ $r14: .cfa -32 + ^ $r15: .cfa -24 + ^ $rbp: .cfa -16 + ^ $rbx: .cfa -48 + ^ .cfa: $rsp 64 +
STACK CFI INIT 58720 a5 .cfa: $rsp 8 + .ra: .cfa -8 + ^
STACK CFI 58721 .cfa: $rsp 16 +
STACK CFI 58723 .cfa: $rsp 24 +
STACK CFI 58725 .cfa: $rsp 32 +
STACK CFI 58727 .cfa: $rsp 40 +
STACK CFI 58728 .cfa: $rsp 48 +
STACK CFI 5872c $r12: .cfa -40 + ^ $r14: .cfa -32 + ^ $r15: .cfa -24 + ^ $rbp: .cfa -16 + ^ $rbx: .cfa -48 + ^ .cfa: $rsp 64 +
STACK CFI INIT 587d0 a5 .cfa: $rsp 8 + .ra: .cfa -8 + ^
STACK CFI 587d1 .cfa: $rsp 16 +
STACK CFI 587d3 .cfa: $rsp 24 +
STACK CFI 587d5 .cfa: $rsp 32 +
STACK CFI 587d7 .cfa: $rsp 40 +
STACK CFI 587d8 .cfa: $rsp 48 +
STACK CFI 587dc $r12: .cfa -40 + ^ $r14: .cfa -32 + ^ $r15: .cfa -24 + ^ $rbp: .cfa -16 + ^ $rbx: .cfa -48 + ^ .cfa: $rsp 64 +
STACK CFI INIT 58880 a5 .cfa: $rsp 8 + .ra: .cfa -8 + ^
STACK CFI 58881 .cfa: $rsp 16 +
STACK CFI 58883 .cfa: $rsp 24 +
STACK CFI 58885 .cfa: $rsp 32 +
STACK CFI 58887 .cfa: $rsp 40 +
STACK CFI 58888 .cfa: $rsp 48 +
STACK CFI 5888c $r12: .cfa -40 + ^ $r14: .cfa -32 + ^ $r15: .cfa -24 + ^ $rbp: .cfa -16 + ^ $rbx: .cfa -48 + ^ .cfa: $rsp 64 +
STACK CFI INIT 58930 12 .cfa: $rsp 8 + .ra: .cfa -8 + ^
STACK CFI INIT 58950 b0 .cfa: $rsp 8 + .ra: .cfa -8 + ^
STACK CFI 58951 .cfa: $rsp 16 +
STACK CFI 58953 .cfa: $rsp 24 +
STACK CFI 58955 .cfa: $rsp 32 +
STACK CFI 58957 .cfa: $rsp 40 +
STACK CFI 58958 .cfa: $rsp 48 +
STACK CFI 5895c $r12: .cfa -40 + ^ $r14: .cfa -32 + ^ $r15: .cfa -24 + ^ $rbp: .cfa -16 + ^ $rbx: .cfa -48 + ^ .cfa: $rsp 64 +
STACK CFI INIT 58a00 b0 .cfa: $rsp 8 + .ra: .cfa -8 + ^
STACK CFI 58a01 .cfa: $rsp 16 +
STACK CFI 58a03 .cfa: $rsp 24 +
STACK CFI 58a05 .cfa: $rsp 32 +
STACK CFI 58a07 .cfa: $rsp 40 +
STACK CFI 58a08 .cfa: $rsp 48 +
STACK CFI 58a0c $r12: .cfa -40 + ^ $r14: .cfa -32 + ^ $r15: .cfa -24 + ^ $rbp: .cfa -16 + ^ $rbx: .cfa -48 + ^ .cfa: $rsp 64 +
STACK CFI INIT 58ab0 b0 .cfa: $rsp 8 + .ra: .cfa -8 + ^
STACK CFI 58ab1 .cfa: $rsp 16 +
STACK CFI 58ab3 .cfa: $rsp 24 +
STACK CFI 58ab5 .cfa: $rsp 32 +
STACK CFI 58ab7 .cfa: $rsp 40 +
STACK CFI 58ab8 .cfa: $rsp 48 +
STACK CFI 58abc $r12: .cfa -40 + ^ $r14: .cfa -32 + ^ $r15: .cfa -24 + ^ $rbp: .cfa -16 + ^ $rbx: .cfa -48 + ^ .cfa: $rsp 64 +
STACK CFI INIT 58b60 b0 .cfa: $rsp 8 + .ra: .cfa -8 + ^
STACK CFI 58b61 .cfa: $rsp 16 +
STACK CFI 58b63 .cfa: $rsp 24 +
STACK CFI 58b65 .cfa: $rsp 32 +
STACK CFI 58b67 .cfa: $rsp 40 +
STACK CFI 58b68 .cfa: $rsp 48 +
STACK CFI 58b6c $r12: .cfa -40 + ^ $r14: .cfa -32 + ^ $r15: .cfa -24 + ^ $rbp: .cfa -16 + ^ $rbx: .cfa -48 + ^ .cfa: $rsp 64 +
STACK CFI INIT 58c10 b0 .cfa: $rsp 8 + .ra: .cfa -8 + ^
STACK CFI 58c11 .cfa: $rsp 16 +
STACK CFI 58c13 .cfa: $rsp 24 +
STACK CFI 58c15 .cfa: $rsp 32 +
STACK CFI 58c17 .cfa: $rsp 40 +
STACK CFI 58c18 .cfa: $rsp 48 +
STACK CFI 58c1c $r12: .cfa -40 + ^ $r14: .cfa -32 + ^ $r15: .cfa -24 + ^ $rbp: .cfa -16 + ^ $rbx: .cfa -48 + ^ .cfa: $rsp 64 +
STACK CFI INIT 58cc0 b0 .cfa: $rsp 8 + .ra: .cfa -8 + ^
STACK CFI 58cc1 .cfa: $rsp 16 +
STACK CFI 58cc3 .cfa: $rsp 24 +
STACK CFI 58cc5 .cfa: $rsp 32 +
STACK CFI 58cc7 .cfa: $rsp 40 +
STACK CFI 58cc8 .cfa: $rsp 48 +
STACK CFI 58ccc $r12: .cfa -40 + ^ $r14: .cfa -32 + ^ $r15: .cfa -24 + ^ $rbp: .cfa -16 + ^ $rbx: .cfa -48 + ^ .cfa: $rsp 64 +
STACK CFI INIT 58d70 b0 .cfa: $rsp 8 + .ra: .cfa -8 + ^
STACK CFI 58d71 .cfa: $rsp 16 +
STACK CFI 58d73 .cfa: $rsp 24 +
STACK CFI 58d75 .cfa: $rsp 32 +
STACK CFI 58d77 .cfa: $rsp 40 +
STACK CFI 58d78 .cfa: $rsp 48 +
STACK CFI 58d7c $r12: .cfa -40 + ^ $r14: .cfa -32 + ^ $r15: .cfa -24 + ^ $rbp: .cfa -16 + ^ $rbx: .cfa -48 + ^ .cfa: $rsp 64 +
STACK CFI INIT 58e20 b0 .cfa: $rsp 8 + .ra: .cfa -8 + ^
STACK CFI 58e21 .cfa: $rsp 16 +
STACK CFI 58e23 .cfa: $rsp 24 +
STACK CFI 58e25 .cfa: $rsp 32 +
STACK CFI 58e27 .cfa: $rsp 40 +
STACK CFI 58e28 .cfa: $rsp 48 +
STACK CFI 58e2c $r12: .cfa -40 + ^ $r14: .cfa -32 + ^ $r15: .cfa -24 + ^ $rbp: .cfa -16 + ^ $rbx: .cfa -48 + ^ .cfa: $rsp 64 +
STACK CFI INIT 58ed0 b0 .cfa: $rsp 8 + .ra: .cfa -8 + ^
STACK CFI 58ed1 .cfa: $rsp 16 +
STACK CFI 58ed3 .cfa: $rsp 24 +
STACK CFI 58ed5 .cfa: $rsp 32 +
STACK CFI 58ed7 .cfa: $rsp 40 +
STACK CFI 58ed8 .cfa: $rsp 48 +
STACK CFI 58edc $r12: .cfa -40 + ^ $r14: .cfa -32 + ^ $r15: .cfa -24 + ^ $rbp: .cfa -16 + ^ $rbx: .cfa -48 + ^ .cfa: $rsp 64 +
STACK CFI INIT 58f80 1a .cfa: $rsp 8 + .ra: .cfa -8 + ^
STACK CFI INIT 58fa0 b4 .cfa: $rsp 8 + .ra: .cfa -8 + ^
STACK CFI 58fa1 .cfa: $rsp 16 +
STACK CFI 58fa3 .cfa: $rsp 24 +
STACK CFI 58fa5 .cfa: $rsp 32 +
STACK CFI 58fa7 .cfa: $rsp 40 +
STACK CFI 58fa8 .cfa: $rsp 48 +
STACK CFI 58fac $r12: .cfa -40 + ^ $r14: .cfa -32 + ^ $r15: .cfa -24 + ^ $rbp: .cfa -16 + ^ $rbx: .cfa -48 + ^ .cfa: $rsp 64 +
STACK CFI INIT 59060 b5 .cfa: $rsp 8 + .ra: .cfa -8 + ^
STACK CFI 59061 .cfa: $rsp 16 +
STACK CFI 59063 .cfa: $rsp 24 +
STACK CFI 59065 .cfa: $rsp 32 +
STACK CFI 59067 .cfa: $rsp 40 +
STACK CFI 59068 .cfa: $rsp 48 +
STACK CFI 5906c $r12: .cfa -40 + ^ $r14: .cfa -32 + ^ $r15: .cfa -24 + ^ $rbp: .cfa -16 + ^ $rbx: .cfa -48 + ^ .cfa: $rsp 64 +
STACK CFI INIT 59120 b5 .cfa: $rsp 8 + .ra: .cfa -8 + ^
STACK CFI 59121 .cfa: $rsp 16 +
STACK CFI 59123 .cfa: $rsp 24 +
STACK CFI 59125 .cfa: $rsp 32 +
STACK CFI 59127 .cfa: $rsp 40 +
STACK CFI 59128 .cfa: $rsp 48 +
STACK CFI 5912c $r12: .cfa -40 + ^ $r14: .cfa -32 + ^ $r15: .cfa -24 + ^ $rbp: .cfa -16 + ^ $rbx: .cfa -48 + ^ .cfa: $rsp 64 +
STACK CFI INIT 591e0 b5 .cfa: $rsp 8 + .ra: .cfa -8 + ^
STACK CFI 591e1 .cfa: $rsp 16 +
STACK CFI 591e3 .cfa: $rsp 24 +
STACK CFI 591e5 .cfa: $rsp 32 +
STACK CFI 591e7 .cfa: $rsp 40 +
STACK CFI 591e8 .cfa: $rsp 48 +
STACK CFI 591ec $r12: .cfa -40 + ^ $r14: .cfa -32 + ^ $r15: .cfa -24 + ^ $rbp: .cfa -16 + ^ $rbx: .cfa -48 + ^ .cfa: $rsp 64 +
STACK CFI INIT 592a0 1a .cfa: $rsp 8 + .ra: .cfa -8 + ^
STACK CFI INIT 592c0 b4 .cfa: $rsp 8 + .ra: .cfa -8 + ^
STACK CFI 592c1 .cfa: $rsp 16 +
STACK CFI 592c3 .cfa: $rsp 24 +
STACK CFI 592c5 .cfa: $rsp 32 +
STACK CFI 592c7 .cfa: $rsp 40 +
STACK CFI 592c8 .cfa: $rsp 48 +
STACK CFI 592cc $r12: .cfa -40 + ^ $r14: .cfa -32 + ^ $r15: .cfa -24 + ^ $rbp: .cfa -16 + ^ $rbx: .cfa -48 + ^ .cfa: $rsp 64 +
STACK CFI INIT 59380 b5 .cfa: $rsp 8 + .ra: .cfa -8 + ^
STACK CFI 59381 .cfa: $rsp 16 +
STACK CFI 59383 .cfa: $rsp 24 +
STACK CFI 59385 .cfa: $rsp 32 +
STACK CFI 59387 .cfa: $rsp 40 +
STACK CFI 59388 .cfa: $rsp 48 +
STACK CFI 5938c $r12: .cfa -40 + ^ $r14: .cfa -32 + ^ $r15: .cfa -24 + ^ $rbp: .cfa -16 + ^ $rbx: .cfa -48 + ^ .cfa: $rsp 64 +
STACK CFI INIT 59440 b4 .cfa: $rsp 8 + .ra: .cfa -8 + ^
STACK CFI 59441 .cfa: $rsp 16 +
STACK CFI 59443 .cfa: $rsp 24 +
STACK CFI 59445 .cfa: $rsp 32 +
STACK CFI 59447 .cfa: $rsp 40 +
STACK CFI 59448 .cfa: $rsp 48 +
STACK CFI 5944c $r12: .cfa -40 + ^ $r14: .cfa -32 + ^ $r15: .cfa -24 + ^ $rbp: .cfa -16 + ^ $rbx: .cfa -48 + ^ .cfa: $rsp 64 +
STACK CFI INIT 59500 b5 .cfa: $rsp 8 + .ra: .cfa -8 + ^
STACK CFI 59501 .cfa: $rsp 16 +
STACK CFI 59503 .cfa: $rsp 24 +
STACK CFI 59505 .cfa: $rsp 32 +
STACK CFI 59507 .cfa: $rsp 40 +
STACK CFI 59508 .cfa: $rsp 48 +
STACK CFI 5950c $r12: .cfa -40 + ^ $r14: .cfa -32 + ^ $r15: .cfa -24 + ^ $rbp: .cfa -16 + ^ $rbx: .cfa -48 + ^ .cfa: $rsp 64 +
STACK CFI INIT 595c0 142 .cfa: $rsp 8 + .ra: .cfa -8 + ^
STACK CFI INIT 59710 8 .cfa: $rsp 8 + .ra: .cfa -8 + ^
STACK CFI INIT 59720 174 .cfa: $rsp 8 + .ra: .cfa -8 + ^
STACK CFI INIT 598a0 6d .cfa: $rsp 8 + .ra: .cfa -8 + ^
STACK CFI 598a2 .cfa: $rsp 16 +
STACK CFI 598a4 .cfa: $rsp 24 +
STACK CFI 598a5 $r14: .cfa -24 + ^ $r15: .cfa -16 + ^ $rbx: .cfa -32 + ^ .cfa: $rsp 32 +
STACK CFI INIT 59910 1a3 .cfa: $rsp 8 + .ra: .cfa -8 + ^
STACK CFI 59912 .cfa: $rsp 16 +
STACK CFI 59914 .cfa: $rsp 24 +
STACK CFI 59916 .cfa: $rsp 32 +
STACK CFI 59918 .cfa: $rsp 40 +
STACK CFI 59919 .cfa: $rsp 48 +
STACK CFI 59920 $r12: .cfa -40 + ^ $r13: .cfa -32 + ^ $r14: .cfa -24 + ^ $r15: .cfa -16 + ^ $rbx: .cfa -48 + ^ .cfa: $rsp 2096 +
STACK CFI INIT 59ac0 5b7 .cfa: $rsp 8 + .ra: .cfa -8 + ^
STACK CFI 59ac2 .cfa: $rsp 16 +
STACK CFI 59ac4 .cfa: $rsp 24 +
STACK CFI 59ac6 .cfa: $rsp 32 +
STACK CFI 59ac8 .cfa: $rsp 40 +
STACK CFI 59ac9 .cfa: $rsp 48 +
STACK CFI 59ad0 $r12: .cfa -40 + ^ $r13: .cfa -32 + ^ $r14: .cfa -24 + ^ $r15: .cfa -16 + ^ $rbx: .cfa -48 + ^ .cfa: $rsp 2096 +
STACK CFI INIT 5a080 8 .cfa: $rsp 8 + .ra: .cfa -8 + ^
STACK CFI INIT 5a090 5d .cfa: $rsp 8 + .ra: .cfa -8 + ^
STACK CFI INIT 5a0f0 4c .cfa: $rsp 8 + .ra: .cfa -8 + ^
STACK CFI INIT 5a140 57 .cfa: $rsp 8 + .ra: .cfa -8 + ^
STACK CFI INIT 5a1a0 189 .cfa: $rsp 8 + .ra: .cfa -8 + ^
STACK CFI 5a1a1 .cfa: $rsp 16 +
STACK CFI 5a1a8 $rbx: .cfa -16 + ^ .cfa: $rsp 1936 +
STACK CFI INIT 5a330 544 .cfa: $rsp 8 + .ra: .cfa -8 + ^
STACK CFI 5a331 .cfa: $rsp 16 +
STACK CFI 5a338 $rbx: .cfa -16 + ^ .cfa: $rsp 1936 +
STACK CFI INIT 5a880 14 .cfa: $rsp 8 + .ra: .cfa -8 + ^
STACK CFI INIT 5a8a0 6ed .cfa: $rsp 8 + .ra: .cfa -8 + ^
STACK CFI 5a8a1 .cfa: $rsp 16 +
STACK CFI 5a8a3 .cfa: $rsp 24 +
STACK CFI 5a8a5 .cfa: $rsp 32 +
STACK CFI 5a8a7 .cfa: $rsp 40 +
STACK CFI 5a8a9 .cfa: $rsp 48 +
STACK CFI 5a8aa .cfa: $rsp 56 +
STACK CFI 5a8ae $r12: .cfa -48 + ^ $r13: .cfa -40 + ^ $r14: .cfa -32 + ^ $r15: .cfa -24 + ^ $rbp: .cfa -16 + ^ $rbx: .cfa -56 + ^ .cfa: $rsp 96 +
STACK CFI INIT 5af90 583 .cfa: $rsp 8 + .ra: .cfa -8 + ^
STACK CFI 5af91 .cfa: $rsp 16 +
STACK CFI 5af93 .cfa: $rsp 24 +
STACK CFI 5af95 .cfa: $rsp 32 +
STACK CFI 5af97 .cfa: $rsp 40 +
STACK CFI 5af99 .cfa: $rsp 48 +
STACK CFI 5af9a .cfa: $rsp 56 +
STACK CFI 5afa1 $r12: .cfa -48 + ^ $r13: .cfa -40 + ^ $r14: .cfa -32 + ^ $r15: .cfa -24 + ^ $rbp: .cfa -16 + ^ $rbx: .cfa -56 + ^ .cfa: $rsp 208 +
STACK CFI INIT 5b520 16c .cfa: $rsp 8 + .ra: .cfa -8 + ^
STACK CFI 5b521 .cfa: $rsp 16 +
STACK CFI 5b523 .cfa: $rsp 24 +
STACK CFI 5b525 .cfa: $rsp 32 +
STACK CFI 5b527 .cfa: $rsp 40 +
STACK CFI 5b529 .cfa: $rsp 48 +
STACK CFI 5b52a .cfa: $rsp 56 +
STACK CFI 5b52e $r12: .cfa -48 + ^ $r13: .cfa -40 + ^ $r14: .cfa -32 + ^ $r15: .cfa -24 + ^ $rbp: .cfa -16 + ^ $rbx: .cfa -56 + ^ .cfa: $rsp 80 +
STACK CFI INIT 5b690 b .cfa: $rsp 8 + .ra: .cfa -8 + ^
STACK CFI 5b691 .cfa: $rsp 16 +
STACK CFI INIT 5b6a0 392 .cfa: $rsp 8 + .ra: .cfa -8 + ^
STACK CFI 5b6a1 .cfa: $rsp 16 +
STACK CFI 5b6a3 .cfa: $rsp 24 +
STACK CFI 5b6a5 .cfa: $rsp 32 +
STACK CFI 5b6a7 .cfa: $rsp 40 +
STACK CFI 5b6a9 .cfa: $rsp 48 +
STACK CFI 5b6aa .cfa: $rsp 56 +
STACK CFI 5b6ae $r12: .cfa -48 + ^ $r13: .cfa -40 + ^ $r14: .cfa -32 + ^ $r15: .cfa -24 + ^ $rbp: .cfa -16 + ^ $rbx: .cfa -56 + ^ .cfa: $rsp 80 +
STACK CFI INIT 5ba40 269 .cfa: $rsp 8 + .ra: .cfa -8 + ^
STACK CFI 5ba41 .cfa: $rsp 16 +
STACK CFI 5ba43 .cfa: $rsp 24 +
STACK CFI 5ba45 .cfa: $rsp 32 +
STACK CFI 5ba47 .cfa: $rsp 40 +
STACK CFI 5ba49 .cfa: $rsp 48 +
STACK CFI 5ba4a .cfa: $rsp 56 +
STACK CFI 5ba4b $r12: .cfa -48 + ^ $r13: .cfa -40 + ^ $r14: .cfa -32 + ^ $r15: .cfa -24 + ^ $rbp: .cfa -16 + ^ $rbx: .cfa -56 + ^ .cfa: $rsp 64 +
STACK CFI INIT 5bcb0 11e .cfa: $rsp 8 + .ra: .cfa -8 + ^
STACK CFI INIT 5bdd0 36 .cfa: $rsp 8 + .ra: .cfa -8 + ^
STACK CFI 5bdd2 .cfa: $rsp 16 +
STACK CFI 5bdd3 .cfa: $rsp 24 +
STACK CFI 5bdd4 $r14: .cfa -16 + ^ $rbx: .cfa -24 + ^ .cfa: $rsp 32 +
STACK CFI INIT 5be10 52 .cfa: $rsp 8 + .ra: .cfa -8 + ^
STACK CFI 5be12 .cfa: $rsp 16 +
STACK CFI 5be14 .cfa: $rsp 24 +
STACK CFI 5be15 .cfa: $rsp 32 +
STACK CFI 5be19 $r14: .cfa -24 + ^ $r15: .cfa -16 + ^ $rbx: .cfa -32 + ^ .cfa: $rsp 48 +
STACK CFI INIT 5be70 8 .cfa: $rsp 8 + .ra: .cfa -8 + ^
STACK CFI INIT 5be80 8 .cfa: $rsp 8 + .ra: .cfa -8 + ^
STACK CFI INIT 5be90 63 .cfa: $rsp 8 + .ra: .cfa -8 + ^
STACK CFI 5be92 .cfa: $rsp 16 +
STACK CFI 5be93 .cfa: $rsp 24 +
STACK CFI 5be94 $r14: .cfa -16 + ^ $rbx: .cfa -24 + ^ .cfa: $rsp 32 +
STACK CFI INIT 5bf00 3 .cfa: $rsp 8 + .ra: .cfa -8 + ^
STACK CFI INIT 5bf10 4 .cfa: $rsp 8 + .ra: .cfa -8 + ^
STACK CFI INIT 5bf20 e .cfa: $rsp 8 + .ra: .cfa -8 + ^
STACK CFI INIT 5bf30 4 .cfa: $rsp 8 + .ra: .cfa -8 + ^
STACK CFI INIT 5bf40 7 .cfa: $rsp 8 + .ra: .cfa -8 + ^
STACK CFI INIT 5bf50 f .cfa: $rsp 8 + .ra: .cfa -8 + ^
STACK CFI INIT 5bf60 7 .cfa: $rsp 8 + .ra: .cfa -8 + ^
STACK CFI INIT 5bf70 7 .cfa: $rsp 8 + .ra: .cfa -8 + ^
STACK CFI INIT 5bf80 8 .cfa: $rsp 8 + .ra: .cfa -8 + ^
STACK CFI INIT 5bf90 c .cfa: $rsp 8 + .ra: .cfa -8 + ^
STACK CFI INIT 5bfa0 9 .cfa: $rsp 8 + .ra: .cfa -8 + ^
STACK CFI INIT 5bfb0 3 .cfa: $rsp 8 + .ra: .cfa -8 + ^
STACK CFI INIT 5bfc0 43 .cfa: $rsp 8 + .ra: .cfa -8 + ^
STACK CFI 5bfc2 .cfa: $rsp 16 +
STACK CFI 5bfc3 .cfa: $rsp 24 +
STACK CFI 5bfc7 $r14: .cfa -16 + ^ $rbx: .cfa -24 + ^ .cfa: $rsp 48 +
STACK CFI INIT 5c010 b1 .cfa: $rsp 8 + .ra: .cfa -8 + ^
STACK CFI 5c012 .cfa: $rsp 16 +
STACK CFI 5c014 .cfa: $rsp 24 +
STACK CFI 5c015 .cfa: $rsp 32 +
STACK CFI 5c019 $r14: .cfa -24 + ^ $r15: .cfa -16 + ^ $rbx: .cfa -32 + ^ .cfa: $rsp 96 +
STACK CFI INIT 5c0d0 4e .cfa: $rsp 8 + .ra: .cfa -8 + ^
STACK CFI 5c0d1 .cfa: $rsp 16 +
STACK CFI 5c0d5 $rbx: .cfa -16 + ^ .cfa: $rsp 80 +
STACK CFI INIT 5c120 ca .cfa: $rsp 8 + .ra: .cfa -8 + ^
STACK CFI 5c122 .cfa: $rsp 16 +
STACK CFI 5c124 .cfa: $rsp 24 +
STACK CFI 5c126 .cfa: $rsp 32 +
STACK CFI 5c128 .cfa: $rsp 40 +
STACK CFI 5c129 .cfa: $rsp 48 +
STACK CFI 5c12d $r12: .cfa -40 + ^ $r13: .cfa -32 + ^ $r14: .cfa -24 + ^ $r15: .cfa -16 + ^ $rbx: .cfa -48 + ^ .cfa: $rsp 112 +
STACK CFI INIT 5c1f0 a4 .cfa: $rsp 8 + .ra: .cfa -8 + ^
STACK CFI 5c1f1 .cfa: $rsp 16 +
STACK CFI 5c1f3 .cfa: $rsp 24 +
STACK CFI 5c1f4 .cfa: $rsp 32 +
STACK CFI 5c1f8 $r14: .cfa -24 + ^ $rbp: .cfa -16 + ^ $rbx: .cfa -32 + ^ .cfa: $rsp 96 +
STACK CFI INIT 5c2a0 a1 .cfa: $rsp 8 + .ra: .cfa -8 + ^
STACK CFI 5c2a1 .cfa: $rsp 16 +
STACK CFI 5c2a3 .cfa: $rsp 24 +
STACK CFI 5c2a4 .cfa: $rsp 32 +
STACK CFI 5c2a8 $r14: .cfa -24 + ^ $rbp: .cfa -16 + ^ $rbx: .cfa -32 + ^ .cfa: $rsp 96 +
STACK CFI INIT 5c350 12 .cfa: $rsp 8 + .ra: .cfa -8 + ^
STACK CFI 5c351 .cfa: $rsp 16 +
STACK CFI INIT 5c370 88 .cfa: $rsp 8 + .ra: .cfa -8 + ^
STACK CFI 5c372 .cfa: $rsp 16 +
STACK CFI 5c373 .cfa: $rsp 24 +
STACK CFI 5c374 $r14: .cfa -16 + ^ $rbx: .cfa -24 + ^ .cfa: $rsp 32 +
STACK CFI INIT 5c400 1 .cfa: $rsp 8 + .ra: .cfa -8 + ^
STACK CFI INIT 5c410 80 .cfa: $rsp 8 + .ra: .cfa -8 + ^
STACK CFI 5c412 .cfa: $rsp 16 +
STACK CFI 5c413 .cfa: $rsp 24 +
STACK CFI 5c414 $r14: .cfa -16 + ^ $rbx: .cfa -24 + ^ .cfa: $rsp 32 +
STACK CFI INIT 5c490 5b .cfa: $rsp 8 + .ra: .cfa -8 + ^
STACK CFI 5c491 $rbx: .cfa -16 + ^ .cfa: $rsp 16 +
STACK CFI INIT 5c4f0 e4 .cfa: $rsp 8 + .ra: .cfa -8 + ^
STACK CFI 5c4f2 .cfa: $rsp 16 +
STACK CFI 5c4f3 .cfa: $rsp 24 +
STACK CFI 5c4f4 $r14: .cfa -16 + ^ $rbx: .cfa -24 + ^ .cfa: $rsp 32 +
STACK CFI INIT 5c5e0 e4 .cfa: $rsp 8 + .ra: .cfa -8 + ^
STACK CFI 5c5e2 .cfa: $rsp 16 +
STACK CFI 5c5e3 .cfa: $rsp 24 +
STACK CFI 5c5e4 $r14: .cfa -16 + ^ $rbx: .cfa -24 + ^ .cfa: $rsp 32 +
STACK CFI INIT 5c6d0 168 .cfa: $rsp 8 + .ra: .cfa -8 + ^
STACK CFI 5c6d2 .cfa: $rsp 16 +
STACK CFI 5c6d4 .cfa: $rsp 24 +
STACK CFI 5c6d6 .cfa: $rsp 32 +
STACK CFI 5c6d8 .cfa: $rsp 40 +
STACK CFI 5c6d9 $r12: .cfa -40 + ^ $r13: .cfa -32 + ^ $r14: .cfa -24 + ^ $r15: .cfa -16 + ^ $rbx: .cfa -48 + ^ .cfa: $rsp 48 +
STACK CFI INIT 5c840 1ca .cfa: $rsp 8 + .ra: .cfa -8 + ^
STACK CFI 5c841 .cfa: $rsp 16 +
STACK CFI 5c843 .cfa: $rsp 24 +
STACK CFI 5c845 .cfa: $rsp 32 +
STACK CFI 5c847 .cfa: $rsp 40 +
STACK CFI 5c848 $r12: .cfa -40 + ^ $r14: .cfa -32 + ^ $r15: .cfa -24 + ^ $rbp: .cfa -16 + ^ $rbx: .cfa -48 + ^ .cfa: $rsp 48 +
STACK CFI INIT 5ca10 415 .cfa: $rsp 8 + .ra: .cfa -8 + ^
STACK CFI 5ca11 .cfa: $rsp 16 +
STACK CFI 5ca13 .cfa: $rsp 24 +
STACK CFI 5ca15 .cfa: $rsp 32 +
STACK CFI 5ca17 .cfa: $rsp 40 +
STACK CFI 5ca19 .cfa: $rsp 48 +
STACK CFI 5ca1a .cfa: $rsp 56 +
STACK CFI 5ca1e $r12: .cfa -48 + ^ $r13: .cfa -40 + ^ $r14: .cfa -32 + ^ $r15: .cfa -24 + ^ $rbp: .cfa -16 + ^ $rbx: .cfa -56 + ^ .cfa: $rsp 80 +
STACK CFI INIT 5ce30 156 .cfa: $rsp 8 + .ra: .cfa -8 + ^
STACK CFI 5ce32 .cfa: $rsp 16 +
STACK CFI 5ce34 .cfa: $rsp 24 +
STACK CFI 5ce36 .cfa: $rsp 32 +
STACK CFI 5ce37 .cfa: $rsp 40 +
STACK CFI 5ce38 $r12: .cfa -32 + ^ $r14: .cfa -24 + ^ $r15: .cfa -16 + ^ $rbx: .cfa -40 + ^ .cfa: $rsp 48 +
STACK CFI INIT 5cf90 90 .cfa: $rsp 8 + .ra: .cfa -8 + ^
STACK CFI 5cf92 .cfa: $rsp 16 +
STACK CFI 5cf93 .cfa: $rsp 24 +
STACK CFI 5cf94 $r14: .cfa -16 + ^ $rbx: .cfa -24 + ^ .cfa: $rsp 32 +
STACK CFI INIT 5d020 14d .cfa: $rsp 8 + .ra: .cfa -8 + ^
STACK CFI 5d021 .cfa: $rsp 16 +
STACK CFI 5d022 $rbp: .cfa -16 + ^ $rbx: .cfa -24 + ^ .cfa: $rsp 24 +
STACK CFI INIT 5d170 a3 .cfa: $rsp 8 + .ra: .cfa -8 + ^
STACK CFI 5d171 .cfa: $rsp 16 +
STACK CFI 5d175 $rbx: .cfa -16 + ^ .cfa: $rsp 32 +
STACK CFI INIT 5d220 a3 .cfa: $rsp 8 + .ra: .cfa -8 + ^
STACK CFI 5d221 .cfa: $rsp 16 +
STACK CFI 5d225 $rbx: .cfa -16 + ^ .cfa: $rsp 32 +
STACK CFI INIT 5d2d0 1eed .cfa: $rsp 8 + .ra: .cfa -8 + ^
STACK CFI 5d2d1 .cfa: $rsp 16 +
STACK CFI 5d2d3 .cfa: $rsp 24 +
STACK CFI 5d2d5 .cfa: $rsp 32 +
STACK CFI 5d2d7 .cfa: $rsp 40 +
STACK CFI 5d2d9 .cfa: $rsp 48 +
STACK CFI 5d2da .cfa: $rsp 56 +
STACK CFI 5d2e1 $r12: .cfa -48 + ^ $r13: .cfa -40 + ^ $r14: .cfa -32 + ^ $r15: .cfa -24 + ^ $rbp: .cfa -16 + ^ $rbx: .cfa -56 + ^ .cfa: $rsp 288 +
STACK CFI 5ee6c .cfa: $rsp 296 +
STACK CFI 5ee6d .cfa: $rsp 304 +
STACK CFI 5ee76 .cfa: $rsp 288 +
STACK CFI INIT 5f1c0 7f9 .cfa: $rsp 8 + .ra: .cfa -8 + ^
STACK CFI 5f1c1 $rbp: .cfa -16 + ^ .cfa: $rsp 16 +
STACK CFI 5f1c4 .cfa: $rbp 16 +
STACK CFI 5f1d4 $r12: .cfa -48 + ^ $r13: .cfa -40 + ^ $r14: .cfa -32 + ^ $r15: .cfa -24 + ^ $rbx: .cfa -56 + ^
STACK CFI INIT 5f9c0 2617 .cfa: $rsp 8 + .ra: .cfa -8 + ^
STACK CFI 5f9c1 .cfa: $rsp 16 +
STACK CFI 5f9c3 .cfa: $rsp 24 +
STACK CFI 5f9c5 .cfa: $rsp 32 +
STACK CFI 5f9c7 .cfa: $rsp 40 +
STACK CFI 5f9c9 .cfa: $rsp 48 +
STACK CFI 5f9ca .cfa: $rsp 56 +
STACK CFI 5f9d1 $r12: .cfa -48 + ^ $r13: .cfa -40 + ^ $r14: .cfa -32 + ^ $r15: .cfa -24 + ^ $rbp: .cfa -16 + ^ $rbx: .cfa -56 + ^ .cfa: $rsp 496 +
STACK CFI 5ff34 .cfa: $rsp 504 +
STACK CFI 5ff4e .cfa: $rsp 512 +
STACK CFI 5ff57 .cfa: $rsp 496 +
STACK CFI 601ac .cfa: $rsp 504 +
STACK CFI 601c2 .cfa: $rsp 512 +
STACK CFI 601cb .cfa: $rsp 496 +
STACK CFI 60402 .cfa: $rsp 504 +
STACK CFI 6041c .cfa: $rsp 512 +
STACK CFI 60425 .cfa: $rsp 496 +
STACK CFI 6065f .cfa: $rsp 504 +
STACK CFI 60685 .cfa: $rsp 512 +
STACK CFI 6068e .cfa: $rsp 496 +
STACK CFI 606f2 .cfa: $rsp 504 +
STACK CFI 60702 .cfa: $rsp 512 +
STACK CFI 6070b .cfa: $rsp 496 +
STACK CFI 60f7b .cfa: $rsp 504 +
STACK CFI 60f9b .cfa: $rsp 512 +
STACK CFI 60fa4 .cfa: $rsp 496 +
STACK CFI 6113b .cfa: $rsp 504 +
STACK CFI 6113f .cfa: $rsp 512 +
STACK CFI 61146 .cfa: $rsp 520 +
STACK CFI 6114d .cfa: $rsp 528 +
STACK CFI 6114f .cfa: $rsp 536 +
STACK CFI 61151 .cfa: $rsp 544 +
STACK CFI 61153 .cfa: $rsp 552 +
STACK CFI 61154 .cfa: $rsp 560 +
STACK CFI 61155 .cfa: $rsp 568 +
STACK CFI 61157 .cfa: $rsp 576 +
STACK CFI 6115e .cfa: $rsp 584 +
STACK CFI 61160 .cfa: $rsp 592 +
STACK CFI 61169 .cfa: $rsp 496 +
STACK CFI 61591 .cfa: $rsp 504 +
STACK CFI 61598 .cfa: $rsp 512 +
STACK CFI 6159c .cfa: $rsp 520 +
STACK CFI 615a0 .cfa: $rsp 528 +
STACK CFI 615a9 .cfa: $rsp 496 +
STACK CFI 619f4 .cfa: $rsp 504 +
STACK CFI 619fb .cfa: $rsp 512 +
STACK CFI 619ff .cfa: $rsp 520 +
STACK CFI 61a03 .cfa: $rsp 528 +
STACK CFI 61a0f .cfa: $rsp 496 +
STACK CFI INIT 61fe0 c4 .cfa: $rsp 8 + .ra: .cfa -8 + ^
STACK CFI 61fe2 .cfa: $rsp 16 +
STACK CFI 61fe4 .cfa: $rsp 24 +
STACK CFI 61fe6 .cfa: $rsp 32 +
STACK CFI 61fe8 .cfa: $rsp 40 +
STACK CFI 61fe9 $r12: .cfa -40 + ^ $r13: .cfa -32 + ^ $r14: .cfa -24 + ^ $r15: .cfa -16 + ^ $rbx: .cfa -48 + ^ .cfa: $rsp 48 +
STACK CFI INIT 620b0 270 .cfa: $rsp 8 + .ra: .cfa -8 + ^
STACK CFI 620b1 .cfa: $rsp 16 +
STACK CFI 620b3 .cfa: $rsp 24 +
STACK CFI 620b5 .cfa: $rsp 32 +
STACK CFI 620b7 .cfa: $rsp 40 +
STACK CFI 620b9 .cfa: $rsp 48 +
STACK CFI 620ba .cfa: $rsp 56 +
STACK CFI 620be $r12: .cfa -48 + ^ $r13: .cfa -40 + ^ $r14: .cfa -32 + ^ $r15: .cfa -24 + ^ $rbp: .cfa -16 + ^ $rbx: .cfa -56 + ^ .cfa: $rsp 112 +
STACK CFI INIT 62320 23f .cfa: $rsp 8 + .ra: .cfa -8 + ^
STACK CFI 62321 .cfa: $rsp 16 +
STACK CFI 62323 .cfa: $rsp 24 +
STACK CFI 62325 .cfa: $rsp 32 +
STACK CFI 62327 .cfa: $rsp 40 +
STACK CFI 62329 .cfa: $rsp 48 +
STACK CFI 6232a .cfa: $rsp 56 +
STACK CFI 6232e $r12: .cfa -48 + ^ $r13: .cfa -40 + ^ $r14: .cfa -32 + ^ $r15: .cfa -24 + ^ $rbp: .cfa -16 + ^ $rbx: .cfa -56 + ^ .cfa: $rsp 112 +
STACK CFI INIT 62560 6b .cfa: $rsp 8 + .ra: .cfa -8 + ^
STACK CFI 62562 .cfa: $rsp 16 +
STACK CFI 62563 .cfa: $rsp 24 +
STACK CFI 62564 $r14: .cfa -16 + ^ $rbx: .cfa -24 + ^ .cfa: $rsp 32 +
STACK CFI INIT 625d0 1e1 .cfa: $rsp 8 + .ra: .cfa -8 + ^
STACK CFI 625d1 .cfa: $rsp 16 +
STACK CFI 625d3 .cfa: $rsp 24 +
STACK CFI 625d5 .cfa: $rsp 32 +
STACK CFI 625d7 .cfa: $rsp 40 +
STACK CFI 625d9 .cfa: $rsp 48 +
STACK CFI 625da .cfa: $rsp 56 +
STACK CFI 625db $r12: .cfa -48 + ^ $r13: .cfa -40 + ^ $r14: .cfa -32 + ^ $r15: .cfa -24 + ^ $rbp: .cfa -16 + ^ $rbx: .cfa -56 + ^ .cfa: $rsp 64 +
STACK CFI INIT 627c0 1d3 .cfa: $rsp 8 + .ra: .cfa -8 + ^
STACK CFI 627c1 .cfa: $rsp 16 +
STACK CFI 627c3 .cfa: $rsp 24 +
STACK CFI 627c4 $r14: .cfa -24 + ^ $rbp: .cfa -16 + ^ $rbx: .cfa -32 + ^ .cfa: $rsp 32 +
STACK CFI INIT 629a0 428 .cfa: $rsp 8 + .ra: .cfa -8 + ^
STACK CFI 629a1 .cfa: $rsp 16 +
STACK CFI 629a3 .cfa: $rsp 24 +
STACK CFI 629a5 .cfa: $rsp 32 +
STACK CFI 629a7 .cfa: $rsp 40 +
STACK CFI 629a9 .cfa: $rsp 48 +
STACK CFI 629aa .cfa: $rsp 56 +
STACK CFI 629ab $r12: .cfa -48 + ^ $r13: .cfa -40 + ^ $r14: .cfa -32 + ^ $r15: .cfa -24 + ^ $rbp: .cfa -16 + ^ $rbx: .cfa -56 + ^ .cfa: $rsp 64 +
STACK CFI INIT 62dd0 1f .cfa: $rsp 8 + .ra: .cfa -8 + ^
STACK CFI 62dd1 $rbx: .cfa -16 + ^ .cfa: $rsp 16 +
STACK CFI INIT 62df0 3bc .cfa: $rsp 8 + .ra: .cfa -8 + ^
STACK CFI 62df1 .cfa: $rsp 16 +
STACK CFI 62df3 .cfa: $rsp 24 +
STACK CFI 62df5 .cfa: $rsp 32 +
STACK CFI 62df7 .cfa: $rsp 40 +
STACK CFI 62df9 .cfa: $rsp 48 +
STACK CFI 62dfa .cfa: $rsp 56 +
STACK CFI 62dfe $r12: .cfa -48 + ^ $r13: .cfa -40 + ^ $r14: .cfa -32 + ^ $r15: .cfa -24 + ^ $rbp: .cfa -16 + ^ $rbx: .cfa -56 + ^ .cfa: $rsp 80 +
STACK CFI INIT 631b0 1 .cfa: $rsp 8 + .ra: .cfa -8 + ^
STACK CFI INIT 631c0 130 .cfa: $rsp 8 + .ra: .cfa -8 + ^
STACK CFI 631c2 .cfa: $rsp 16 +
STACK CFI 631c4 .cfa: $rsp 24 +
STACK CFI 631c6 .cfa: $rsp 32 +
STACK CFI 631c7 .cfa: $rsp 40 +
STACK CFI 631c8 $r12: .cfa -32 + ^ $r14: .cfa -24 + ^ $r15: .cfa -16 + ^ $rbx: .cfa -40 + ^ .cfa: $rsp 48 +
STACK CFI INIT 632f0 125 .cfa: $rsp 8 + .ra: .cfa -8 + ^
STACK CFI 632f1 .cfa: $rsp 16 +
STACK CFI 632f3 .cfa: $rsp 24 +
STACK CFI 632f5 .cfa: $rsp 32 +
STACK CFI 632f7 .cfa: $rsp 40 +
STACK CFI 632f8 $r12: .cfa -40 + ^ $r14: .cfa -32 + ^ $r15: .cfa -24 + ^ $rbp: .cfa -16 + ^ $rbx: .cfa -48 + ^ .cfa: $rsp 48 +
STACK CFI INIT 63420 47 .cfa: $rsp 8 + .ra: .cfa -8 + ^
STACK CFI 63421 .cfa: $rsp 16 +
STACK CFI 63423 .cfa: $rsp 24 +
STACK CFI 63424 $r14: .cfa -24 + ^ $rbp: .cfa -16 + ^ $rbx: .cfa -32 + ^ .cfa: $rsp 32 +
STACK CFI INIT 63470 5e .cfa: $rsp 8 + .ra: .cfa -8 + ^
STACK CFI 63471 .cfa: $rsp 16 +
STACK CFI 63472 .cfa: $rsp 24 +
STACK CFI 63473 $rbp: .cfa -16 + ^ $rbx: .cfa -24 + ^ .cfa: $rsp 32 +
STACK CFI INIT 634d0 1e9 .cfa: $rsp 8 + .ra: .cfa -8 + ^
STACK CFI 634d1 .cfa: $rsp 16 +
STACK CFI 634d2 .cfa: $rsp 24 +
STACK CFI 634d3 $rbp: .cfa -16 + ^ $rbx: .cfa -24 + ^ .cfa: $rsp 32 +
STACK CFI INIT 636c0 16 .cfa: $rsp 8 + .ra: .cfa -8 + ^
STACK CFI INIT 636e0 16 .cfa: $rsp 8 + .ra: .cfa -8 + ^
STACK CFI INIT 63700 16 .cfa: $rsp 8 + .ra: .cfa -8 + ^
STACK CFI INIT 63720 fd .cfa: $rsp 8 + .ra: .cfa -8 + ^
STACK CFI 63721 $rbx: .cfa -16 + ^ .cfa: $rsp 16 +
STACK CFI INIT 63820 9e .cfa: $rsp 8 + .ra: .cfa -8 + ^
STACK CFI 63821 $rbx: .cfa -16 + ^ .cfa: $rsp 16 +
STACK CFI INIT 638c0 63 .cfa: $rsp 8 + .ra: .cfa -8 + ^
STACK CFI 638c1 $rbx: .cfa -16 + ^ .cfa: $rsp 16 +
STACK CFI INIT 63930 3b .cfa: $rsp 8 + .ra: .cfa -8 + ^
STACK CFI 63931 $rbx: .cfa -16 + ^ .cfa: $rsp 16 +
STACK CFI INIT 63970 24 .cfa: $rsp 8 + .ra: .cfa -8 + ^
STACK CFI 63971 $rbx: .cfa -16 + ^ .cfa: $rsp 16 +
STACK CFI INIT 639a0 32 .cfa: $rsp 8 + .ra: .cfa -8 + ^
STACK CFI 639a2 .cfa: $rsp 16 +
STACK CFI 639a3 .cfa: $rsp 24 +
STACK CFI 639a4 $r14: .cfa -16 + ^ $rbx: .cfa -24 + ^ .cfa: $rsp 32 +
STACK CFI INIT 639e0 1e6 .cfa: $rsp 8 + .ra: .cfa -8 + ^
STACK CFI 639e2 .cfa: $rsp 16 +
STACK CFI 639e4 .cfa: $rsp 24 +
STACK CFI 639e6 .cfa: $rsp 32 +
STACK CFI 639e7 .cfa: $rsp 40 +
STACK CFI 639e8 $r12: .cfa -32 + ^ $r14: .cfa -24 + ^ $r15: .cfa -16 + ^ $rbx: .cfa -40 + ^ .cfa: $rsp 48 +
STACK CFI INIT 63bd0 184d .cfa: $rsp 8 + .ra: .cfa -8 + ^
STACK CFI 63bd1 .cfa: $rsp 16 +
STACK CFI 63bd3 .cfa: $rsp 24 +
STACK CFI 63bd5 .cfa: $rsp 32 +
STACK CFI 63bd7 .cfa: $rsp 40 +
STACK CFI 63bd9 .cfa: $rsp 48 +
STACK CFI 63bda .cfa: $rsp 56 +
STACK CFI 63be1 $r12: .cfa -48 + ^ $r13: .cfa -40 + ^ $r14: .cfa -32 + ^ $r15: .cfa -24 + ^ $rbp: .cfa -16 + ^ $rbx: .cfa -56 + ^ .cfa: $rsp 192 +
STACK CFI INIT 65420 86 .cfa: $rsp 8 + .ra: .cfa -8 + ^
STACK CFI 65427 .cfa: $rsp 224 +
STACK CFI INIT 654b0 ce .cfa: $rsp 8 + .ra: .cfa -8 + ^
STACK CFI 654b2 .cfa: $rsp 16 +
STACK CFI 654b4 .cfa: $rsp 24 +
STACK CFI 654b5 .cfa: $rsp 32 +
STACK CFI 654bc $r14: .cfa -24 + ^ $r15: .cfa -16 + ^ $rbx: .cfa -32 + ^ .cfa: $rsp 4336 +
STACK CFI INIT 65580 cb .cfa: $rsp 8 + .ra: .cfa -8 + ^
STACK CFI 65582 .cfa: $rsp 16 +
STACK CFI 65583 .cfa: $rsp 24 +
STACK CFI 6558a $r14: .cfa -16 + ^ $rbx: .cfa -24 + ^ .cfa: $rsp 4336 +
STACK CFI INIT 65650 1 .cfa: $rsp 8 + .ra: .cfa -8 + ^
STACK CFI INIT 65660 1 .cfa: $rsp 8 + .ra: .cfa -8 + ^
STACK CFI INIT 65670 5 .cfa: $rsp 8 + .ra: .cfa -8 + ^
STACK CFI INIT 65680 5 .cfa: $rsp 8 + .ra: .cfa -8 + ^
STACK CFI INIT 65690 d .cfa: $rsp 8 + .ra: .cfa -8 + ^
STACK CFI INIT 656a0 e4 .cfa: $rsp 8 + .ra: .cfa -8 + ^
STACK CFI 656a1 .cfa: $rsp 16 +
STACK CFI 656a5 $rbx: .cfa -16 + ^ .cfa: $rsp 48 +
STACK CFI 65782 .cfa: $rsp 16 +
STACK CFI 65783 .cfa: $rsp 8 +
STACK CFI INIT 65790 12 .cfa: $rsp 8 + .ra: .cfa -8 + ^
STACK CFI INIT 657b0 2c .cfa: $rsp 8 + .ra: .cfa -8 + ^
STACK CFI 657b1 .cfa: $rsp 16 +
STACK CFI 657b5 $rbx: .cfa -16 + ^ .cfa: $rsp 48 +
STACK CFI 657da .cfa: $rsp 16 +
STACK CFI 657db .cfa: $rsp 8 +
STACK CFI INIT 657e0 a8 .cfa: $rsp 8 + .ra: .cfa -8 + ^
STACK CFI 657e1 .cfa: $rsp 16 +
STACK CFI 657e3 .cfa: $rsp 24 +
STACK CFI 657e5 .cfa: $rsp 32 +
STACK CFI 657e6 .cfa: $rsp 40 +
STACK CFI 657e7 $r14: .cfa -32 + ^ $r15: .cfa -24 + ^ $rbp: .cfa -16 + ^ $rbx: .cfa -40 + ^ .cfa: $rsp 48 +
STACK CFI 65881 .cfa: $rsp 40 +
STACK CFI 65882 .cfa: $rsp 32 +
STACK CFI 65884 .cfa: $rsp 24 +
STACK CFI 65886 .cfa: $rsp 16 +
STACK CFI 65887 .cfa: $rsp 8 +
STACK CFI INIT 65890 f .cfa: $rsp 8 + .ra: .cfa -8 + ^
STACK CFI 65891 .cfa: $rsp 16 +
STACK CFI INIT 658a0 8 .cfa: $rsp 8 + .ra: .cfa -8 + ^
STACK CFI 658a1 .cfa: $rsp 16 +
STACK CFI INIT 658b0 17 .cfa: $rsp 8 + .ra: .cfa -8 + ^
STACK CFI INIT 658d0 12 .cfa: $rsp 8 + .ra: .cfa -8 + ^
STACK CFI INIT 658f0 db .cfa: $rsp 8 + .ra: .cfa -8 + ^
STACK CFI 658f2 .cfa: $rsp 16 +
STACK CFI 658f4 .cfa: $rsp 24 +
STACK CFI 658f5 .cfa: $rsp 32 +
STACK CFI 658f9 $r14: .cfa -24 + ^ $r15: .cfa -16 + ^ $rbx: .cfa -32 + ^ .cfa: $rsp 64 +
STACK CFI 65995 .cfa: $rsp 32 +
STACK CFI 65996 .cfa: $rsp 24 +
STACK CFI 65998 .cfa: $rsp 16 +
STACK CFI 6599a .cfa: $rsp 8 +
STACK CFI 6599b .cfa: $rsp 64 +
STACK CFI INIT 659d0 2c .cfa: $rsp 8 + .ra: .cfa -8 + ^
STACK CFI 659d1 .cfa: $rsp 16 +
STACK CFI 659d5 $rbx: .cfa -16 + ^ .cfa: $rsp 48 +
STACK CFI 659fa .cfa: $rsp 16 +
STACK CFI 659fb .cfa: $rsp 8 +
STACK CFI INIT 65a00 113 .cfa: $rsp 8 + .ra: .cfa -8 + ^
STACK CFI 65a07 .cfa: $rsp 192 +
STACK CFI 65a3f .cfa: $rsp 8 +
STACK CFI 65a40 .cfa: $rsp 192 +
STACK CFI INIT 65b20 17 .cfa: $rsp 8 + .ra: .cfa -8 + ^
STACK CFI INIT 65b40 de .cfa: $rsp 8 + .ra: .cfa -8 + ^
STACK CFI 65b42 .cfa: $rsp 16 +
STACK CFI 65b44 .cfa: $rsp 24 +
STACK CFI 65b45 .cfa: $rsp 32 +
STACK CFI 65b49 $r14: .cfa -24 + ^ $r15: .cfa -16 + ^ $rbx: .cfa -32 + ^ .cfa: $rsp 64 +
STACK CFI 65be8 .cfa: $rsp 32 +
STACK CFI 65be9 .cfa: $rsp 24 +
STACK CFI 65beb .cfa: $rsp 16 +
STACK CFI 65bed .cfa: $rsp 8 +
STACK CFI 65bee .cfa: $rsp 64 +
STACK CFI INIT 65c20 4e .cfa: $rsp 8 + .ra: .cfa -8 + ^
STACK CFI 65c22 .cfa: $rsp 16 +
STACK CFI 65c23 .cfa: $rsp 24 +
STACK CFI 65c24 $r14: .cfa -16 + ^ $rbx: .cfa -24 + ^ .cfa: $rsp 32 +
STACK CFI 65c40 .cfa: $rsp 24 +
STACK CFI 65c41 .cfa: $rsp 16 +
STACK CFI 65c43 .cfa: $rsp 8 +
STACK CFI 65c48 .cfa: $rsp 32 +
STACK CFI 65c5e .cfa: $rsp 24 +
STACK CFI 65c5f .cfa: $rsp 16 +
STACK CFI 65c61 .cfa: $rsp 8 +
STACK CFI 65c66 .cfa: $rsp 24 +
STACK CFI 65c67 .cfa: $rsp 16 +
STACK CFI 65c69 .cfa: $rsp 8 +
STACK CFI INIT 65c70 91 .cfa: $rsp 8 + .ra: .cfa -8 + ^
STACK CFI 65c77 .cfa: $rsp 144 +
STACK CFI 65cf4 .cfa: $rsp 8 +
STACK CFI 65cf5 .cfa: $rsp 144 +
STACK CFI INIT 65d10 91 .cfa: $rsp 8 + .ra: .cfa -8 + ^
STACK CFI 65d17 .cfa: $rsp 144 +
STACK CFI 65d94 .cfa: $rsp 8 +
STACK CFI 65d95 .cfa: $rsp 144 +
STACK CFI INIT 65db0 91 .cfa: $rsp 8 + .ra: .cfa -8 + ^
STACK CFI 65db7 .cfa: $rsp 144 +
STACK CFI 65e34 .cfa: $rsp 8 +
STACK CFI 65e35 .cfa: $rsp 144 +
STACK CFI INIT 65e50 91 .cfa: $rsp 8 + .ra: .cfa -8 + ^
STACK CFI 65e57 .cfa: $rsp 144 +
STACK CFI 65ed4 .cfa: $rsp 8 +
STACK CFI 65ed5 .cfa: $rsp 144 +
STACK CFI INIT 65ef0 92 .cfa: $rsp 8 + .ra: .cfa -8 + ^
STACK CFI 65ef7 .cfa: $rsp 144 +
STACK CFI 65f75 .cfa: $rsp 8 +
